 UK_DNDC02

 Timestamp is 4f689453 (Tue Mar 20 17:29:39 2012)

 Preferred load address is 00400000

 Start         Length     Name                   Class
 0001:00000000 00131352H .text                   CODE
 0001:00131360 00005ed3H .text$AFX_AUX           CODE
 0001:00137240 0000e70bH .text$AFX_CMNCTL        CODE
 0001:00145950 00006efbH .text$AFX_COL1          CODE
 0001:0014c850 000045a2H .text$AFX_COL2          CODE
 0001:00150e00 00013b27H .text$AFX_CORE1         CODE
 0001:00164930 0000d1cbH .text$AFX_CORE2         CODE
 0001:00171b00 000156caH .text$AFX_CORE3         CODE
 0001:001871d0 0000effbH .text$AFX_CORE4         CODE
 0001:001961d0 00004b49H .text$AFX_DBG1          CODE
 0001:0019ad20 0000cb1bH .text$AFX_DBG2          CODE
 0001:001a7840 000001abH .text$AFX_INET          CODE
 0001:001a79f0 0000ac50H .text$AFX_INIT          CODE
 0001:001b2640 0000d8caH .text$AFX_OLE1          CODE
 0001:001bff10 00007a26H .text$AFX_OLE2          CODE
 0001:001c7940 00006ae6H .text$AFX_OLE3          CODE
 0001:001ce430 0000b4cbH .text$AFX_OLE4          CODE
 0001:001d9900 00003dc1H .text$AFX_OLE5          CODE
 0001:001dd6d0 0000248bH .text$AFX_PRNT          CODE
 0001:001dfb60 0000050dH .text$AFX_TERM          CODE
 0001:001e0070 00010693H .text$x                 CODE
 0002:00000000 00016133H .rdata                  DATA
 0002:00016138 000059f4H .rdata$r                DATA
 0002:0001bb30 00015af8H .xdata$x                DATA
 0002:00031628 00000000H .edata                  DATA
 0003:00000000 00000004H .CRT$XCA                DATA
 0003:00000004 00000008H .CRT$XCC                DATA
 0003:0000000c 00000020H .CRT$XCL                DATA
 0003:0000002c 00000174H .CRT$XCU                DATA
 0003:000001a0 00000004H .CRT$XCZ                DATA
 0003:000001a4 00000004H .CRT$XIA                DATA
 0003:000001a8 0000000cH .CRT$XIC                DATA
 0003:000001b4 00000004H .CRT$XIY                DATA
 0003:000001b8 00000004H .CRT$XIZ                DATA
 0003:000001bc 00000004H .CRT$XPA                DATA
 0003:000001c0 00000008H .CRT$XPX                DATA
 0003:000001c8 00000004H .CRT$XPZ                DATA
 0003:000001cc 00000004H .CRT$XTA                DATA
 0003:000001d0 00000004H .CRT$XTB                DATA
 0003:000001d4 00000004H .CRT$XTZ                DATA
 0003:000001e0 0003298cH .data                   DATA
 0003:00032b70 00074698H .bss                    DATA
 0004:00000000 00000104H .idata$2                DATA
 0004:00000104 00000014H .idata$3                DATA
 0004:00000118 00000c68H .idata$4                DATA
 0004:00000d80 00000c68H .idata$5                DATA
 0004:000019e8 000032acH .idata$6                DATA
 0005:00000000 00001f00H .rsrc$01                DATA
 0005:00001f00 0002f688H .rsrc$02                DATA

  Address         Publics by Value              Rva+Base     Lib:Object

 0001:00000000       ??0BatchRun@@QAE@PAVCWnd@@@Z 00401000 f   BatchRun.obj
 0001:00000073       ?DoDataExchange@BatchRun@@MAEXPAVCDataExchange@@@Z 00401073 f   BatchRun.obj
 0001:000000b2       ?GetMessageMap@BatchRun@@MBEPBUAFX_MSGMAP@@XZ 004010b2 f   BatchRun.obj
 0001:000000c9       ?OnSelectFile@BatchRun@@IAEXXZ 004010c9 f   BatchRun.obj
 0001:000002f7       ?OnOK@BatchRun@@MAEXXZ     004012f7 f   BatchRun.obj
 0001:000003e0       ??_GBatchRun@@UAEPAXI@Z    004013e0 f i BatchRun.obj
 0001:000003e0       ??_EBatchRun@@UAEPAXI@Z    004013e0 f i BatchRun.obj
 0001:00000420       ??1BatchRun@@UAE@XZ        00401420 f i BatchRun.obj
 0001:00000480       ??1CFileDialog@@UAE@XZ     00401480 f i BatchRun.obj
 0001:000004e0       ??1CCommonDialog@@UAE@XZ   004014e0 f i BatchRun.obj
 0001:000005c6       ??0ElkhornData@@QAE@W4ElkhornDataType@@V?$basic_string@DU?$char_traits@D@std@@V?$allocator@D@2@@std@@@Z 004015c6 f   data_set.obj
 0001:00000676       ??0DataSet@@QAE@XZ         00401676 f   data_set.obj
 0001:00000a4d       ??0ElkhornBinData@@QAE@HNN@Z 00401a4d f   data_set.obj
 0001:00000aac       ??4ElkhornBinData@@QAEAAV0@ABV0@@Z 00401aac f   data_set.obj
 0001:00000b15       ??6@YAAAV?$basic_ostream@DU?$char_traits@D@std@@@std@@AAV01@ABVElkhornBinData@@@Z 00401b15 f   data_set.obj
 0001:00000c06       ??6@YAAAV?$basic_ostream@DU?$char_traits@D@std@@@std@@AAV01@ABVElkhornData@@@Z 00401c06 f   data_set.obj
 0001:00000c90       ??1ElkhornData@@QAE@XZ     00401c90 f i data_set.obj
 0001:00000d00       ??4ElkhornData@@QAEAAV0@ABV0@@Z 00401d00 f i data_set.obj
 0001:00000d60       ??0?$basic_string@DU?$char_traits@D@std@@V?$allocator@D@2@@std@@QAE@ABV?$allocator@D@1@@Z 00401d60 f i data_set.obj
 0001:00000da0       ??0?$basic_string@DU?$char_traits@D@std@@V?$allocator@D@2@@std@@QAE@PBDABV?$allocator@D@1@@Z 00401da0 f i data_set.obj
 0001:00000df0       ??1?$basic_string@DU?$char_traits@D@std@@V?$allocator@D@2@@std@@QAE@XZ 00401df0 f i data_set.obj
 0001:00000e20       ??4?$basic_string@DU?$char_traits@D@std@@V?$allocator@D@2@@std@@QAEAAV01@ABV01@@Z 00401e20 f i data_set.obj
 0001:00000e50       ??6?$basic_ostream@DU?$char_traits@D@std@@@std@@QAEAAV01@H@Z 00401e50 f i data_set.obj
 0001:00001040       ??1locale@std@@QAE@XZ      00402040 f i data_set.obj
 0001:000010b0       ?_Decref@facet@locale@std@@QAEPAV123@XZ 004020b0 f i data_set.obj
 0001:00001130       ?flags@ios_base@std@@QBEHXZ 00402130 f i data_set.obj
 0001:00001150       ?getloc@ios_base@std@@QBE?AVlocale@2@XZ 00402150 f i data_set.obj
 0001:000011a0       ??0locale@std@@QAE@ABV01@@Z 004021a0 f i data_set.obj
 0001:000011e0       ?_Incref@facet@locale@std@@QAEXXZ 004021e0 f i data_set.obj
 0001:00001230       ??6?$basic_ostream@DU?$char_traits@D@std@@@std@@QAEAAV01@I@Z 00402230 f i data_set.obj
 0001:000013e0       ??6?$basic_ostream@DU?$char_traits@D@std@@@std@@QAEAAV01@N@Z 004023e0 f i data_set.obj
 0001:00001590       ?setstate@?$basic_ios@DU?$char_traits@D@std@@@std@@QAEXH_N@Z 00402590 f i data_set.obj
 0001:000015d0       ?rdstate@ios_base@std@@QBEHXZ 004025d0 f i data_set.obj
 0001:000015f0       ?rdbuf@?$basic_ios@DU?$char_traits@D@std@@@std@@QBEPAV?$basic_streambuf@DU?$char_traits@D@std@@@2@XZ 004025f0 f i data_set.obj
 0001:00001610       ??0?$vector@NV?$allocator@N@std@@@std@@QAE@ABV?$allocator@N@1@@Z 00402610 f i data_set.obj
 0001:00001650       ??1?$vector@NV?$allocator@N@std@@@std@@QAE@XZ 00402650 f i data_set.obj
 0001:000016c0       ??4?$vector@NV?$allocator@N@std@@@std@@QAEAAV01@ABV01@@Z 004026c0 f i data_set.obj
 0001:00001870       ?size@?$vector@NV?$allocator@N@std@@@std@@QBEIXZ 00402870 f i data_set.obj
 0001:000018c0       ??0?$vector@VElkhornBinData@@V?$allocator@VElkhornBinData@@@std@@@std@@QAE@ABV?$allocator@VElkhornBinData@@@1@@Z 004028c0 f i data_set.obj
 0001:00001900       ??1?$vector@VElkhornBinData@@V?$allocator@VElkhornBinData@@@std@@@std@@QAE@XZ 00402900 f i data_set.obj
 0001:00001980       ??4?$vector@VElkhornBinData@@V?$allocator@VElkhornBinData@@@std@@@std@@QAEAAV01@ABV01@@Z 00402980 f i data_set.obj
 0001:00001b40       ??0?$vector@VElkhornData@@V?$allocator@VElkhornData@@@std@@@std@@QAE@ABV?$allocator@VElkhornData@@@1@@Z 00402b40 f i data_set.obj
 0001:00001b80       ??1?$vector@VElkhornData@@V?$allocator@VElkhornData@@@std@@@std@@QAE@XZ 00402b80 f i data_set.obj
 0001:00001c00       ?resize@?$vector@VElkhornData@@V?$allocator@VElkhornData@@@std@@@std@@QAEXIABVElkhornData@@@Z 00402c00 f i data_set.obj
 0001:00001c80       ??A?$vector@VElkhornData@@V?$allocator@VElkhornData@@@std@@@std@@QAEAAVElkhornData@@I@Z 00402c80 f i data_set.obj
 0001:00001cb0       ?assign@?$basic_string@DU?$char_traits@D@std@@V?$allocator@D@2@@std@@QAEAAV12@ABV12@@Z 00402cb0 f i data_set.obj
 0001:00001cf0       ?assign@?$basic_string@DU?$char_traits@D@std@@V?$allocator@D@2@@std@@QAEAAV12@ABV12@II@Z 00402cf0 f i data_set.obj
 0001:00001e70       ?copy@?$char_traits@D@std@@SAPADPADPBDI@Z 00402e70 f i data_set.obj
 0001:00001e90       ?c_str@?$basic_string@DU?$char_traits@D@std@@V?$allocator@D@2@@std@@QBEPBDXZ 00402e90 f i data_set.obj
 0001:00001ee0       ?size@?$basic_string@DU?$char_traits@D@std@@V?$allocator@D@2@@std@@QBEIXZ 00402ee0 f i data_set.obj
 0001:00001f00       ?assign@?$basic_string@DU?$char_traits@D@std@@V?$allocator@D@2@@std@@QAEAAV12@PBD@Z 00402f00 f i data_set.obj
 0001:00001f40       ?length@?$char_traits@D@std@@SAIPBD@Z 00402f40 f i data_set.obj
 0001:00001f60       ?_Nullstr@?$basic_string@DU?$char_traits@D@std@@V?$allocator@D@2@@std@@CAPBDXZ 00402f60 f i data_set.obj
 0001:00001f70       ?_Tidy@?$basic_string@DU?$char_traits@D@std@@V?$allocator@D@2@@std@@AAEX_N@Z 00402f70 f i data_set.obj
 0001:00002040       ?clear@?$basic_ios@DU?$char_traits@D@std@@@std@@QAEXH_N@Z 00403040 f i data_set.obj
 0001:000020a0       ?fill@?$basic_ios@DU?$char_traits@D@std@@@std@@QBEDXZ 004030a0 f i data_set.obj
 0001:000020c0       ??0sentry@?$basic_ostream@DU?$char_traits@D@std@@@std@@QAE@AAV12@@Z 004030c0 f i data_set.obj
 0001:00002100       ??1sentry@?$basic_ostream@DU?$char_traits@D@std@@@std@@QAE@XZ 00403100 f i data_set.obj
 0001:00002140       ??Bsentry@?$basic_ostream@DU?$char_traits@D@std@@@std@@QBE_NXZ 00403140 f i data_set.obj
 0001:00002160       ?capacity@?$vector@NV?$allocator@N@std@@@std@@QBEIXZ 00403160 f i data_set.obj
 0001:000021b0       ?begin@?$vector@NV?$allocator@N@std@@@std@@QBEPBNXZ 004031b0 f i data_set.obj
 0001:000021d0       ?end@?$vector@NV?$allocator@N@std@@@std@@QBEPBNXZ 004031d0 f i data_set.obj
 0001:000021f0       ?_Destroy@?$vector@NV?$allocator@N@std@@@std@@IAEXPAN0@Z 004031f0 f i data_set.obj
 0001:00002230       ?_Ucopy@?$vector@NV?$allocator@N@std@@@std@@IAEPANPBN0PAN@Z 00403230 f i data_set.obj
 0001:00002280       ?allocate@?$allocator@N@std@@QAEPANIPBX@Z 00403280 f i data_set.obj
 0001:000022b0       ?deallocate@?$allocator@N@std@@QAEXPAXI@Z 004032b0 f i data_set.obj
 0001:000022e0       ?capacity@?$vector@VElkhornBinData@@V?$allocator@VElkhornBinData@@@std@@@std@@QBEIXZ 004032e0 f i data_set.obj
 0001:00002330       ?begin@?$vector@VElkhornBinData@@V?$allocator@VElkhornBinData@@@std@@@std@@QBEPBVElkhornBinData@@XZ 00403330 f i data_set.obj
 0001:00002350       ?end@?$vector@VElkhornBinData@@V?$allocator@VElkhornBinData@@@std@@@std@@QBEPBVElkhornBinData@@XZ 00403350 f i data_set.obj
 0001:00002370       ?size@?$vector@VElkhornBinData@@V?$allocator@VElkhornBinData@@@std@@@std@@QBEIXZ 00403370 f i data_set.obj
 0001:000023c0       ?_Destroy@?$vector@VElkhornBinData@@V?$allocator@VElkhornBinData@@@std@@@std@@IAEXPAVElkhornBinData@@0@Z 004033c0 f i data_set.obj
 0001:00002400       ?_Ucopy@?$vector@VElkhornBinData@@V?$allocator@VElkhornBinData@@@std@@@std@@IAEPAVElkhornBinData@@PBV3@0PAV3@@Z 00403400 f i data_set.obj
 0001:00002450       ?allocate@?$allocator@VElkhornBinData@@@std@@QAEPAVElkhornBinData@@IPBX@Z 00403450 f i data_set.obj
 0001:00002480       ?deallocate@?$allocator@VElkhornBinData@@@std@@QAEXPAXI@Z 00403480 f i data_set.obj
 0001:000024b0       ?begin@?$vector@VElkhornData@@V?$allocator@VElkhornData@@@std@@@std@@QAEPAVElkhornData@@XZ 004034b0 f i data_set.obj
 0001:000024d0       ?end@?$vector@VElkhornData@@V?$allocator@VElkhornData@@@std@@@std@@QAEPAVElkhornData@@XZ 004034d0 f i data_set.obj
 0001:000024f0       ?size@?$vector@VElkhornData@@V?$allocator@VElkhornData@@@std@@@std@@QBEIXZ 004034f0 f i data_set.obj
 0001:00002540       ?insert@?$vector@VElkhornData@@V?$allocator@VElkhornData@@@std@@@std@@QAEXPAVElkhornData@@IABV3@@Z 00403540 f i data_set.obj
 0001:000027a0       ?erase@?$vector@VElkhornData@@V?$allocator@VElkhornData@@@std@@@std@@QAEPAVElkhornData@@PAV3@0@Z 004037a0 f i data_set.obj
 0001:00002810       ?_Destroy@?$vector@VElkhornData@@V?$allocator@VElkhornData@@@std@@@std@@IAEXPAVElkhornData@@0@Z 00403810 f i data_set.obj
 0001:00002850       ?deallocate@?$allocator@VElkhornData@@@std@@QAEXPAXI@Z 00403850 f i data_set.obj
 0001:00002880       ?put@?$num_put@DV?$ostreambuf_iterator@DU?$char_traits@D@std@@@std@@@std@@QBE?AV?$ostreambuf_iterator@DU?$char_traits@D@std@@@2@V32@AAVios_base@2@DJ@Z 00403880 f i data_set.obj
 0001:000028f0       ?put@?$num_put@DV?$ostreambuf_iterator@DU?$char_traits@D@std@@@std@@@std@@QBE?AV?$ostreambuf_iterator@DU?$char_traits@D@std@@@2@V32@AAVios_base@2@DK@Z 004038f0 f i data_set.obj
 0001:00002960       ?put@?$num_put@DV?$ostreambuf_iterator@DU?$char_traits@D@std@@@std@@@std@@QBE?AV?$ostreambuf_iterator@DU?$char_traits@D@std@@@2@V32@AAVios_base@2@DN@Z 00403960 f i data_set.obj
 0001:000029d0       ??0?$ostreambuf_iterator@DU?$char_traits@D@std@@@std@@QAE@PAV?$basic_streambuf@DU?$char_traits@D@std@@@1@@Z 004039d0 f i data_set.obj
 0001:00002a00       ?failed@?$ostreambuf_iterator@DU?$char_traits@D@std@@@std@@QBE_NXZ 00403a00 f i data_set.obj
 0001:00002a20       ?assign@?$basic_string@DU?$char_traits@D@std@@V?$allocator@D@2@@std@@QAEAAV12@PBDI@Z 00403a20 f i data_set.obj
 0001:00002a80       ?erase@?$basic_string@DU?$char_traits@D@std@@V?$allocator@D@2@@std@@QAEAAV12@II@Z 00403a80 f i data_set.obj
 0001:00002b40       ?move@?$char_traits@D@std@@SAPADPADPBDI@Z 00403b40 f i data_set.obj
 0001:00002b60       ?capacity@?$basic_string@DU?$char_traits@D@std@@V?$allocator@D@2@@std@@QBEIXZ 00403b60 f i data_set.obj
 0001:00002b80       ?_Eos@?$basic_string@DU?$char_traits@D@std@@V?$allocator@D@2@@std@@AAEXI@Z 00403b80 f i data_set.obj
 0001:00002bd0       ?assign@?$char_traits@D@std@@SAXAADABD@Z 00403bd0 f i data_set.obj
 0001:00002be0       ?_Grow@?$basic_string@DU?$char_traits@D@std@@V?$allocator@D@2@@std@@AAE_NI_N@Z 00403be0 f i data_set.obj
 0001:00002d40       ?_Refcnt@?$basic_string@DU?$char_traits@D@std@@V?$allocator@D@2@@std@@AAEAAEPBD@Z 00403d40 f i data_set.obj
 0001:00002d60       ?deallocate@?$allocator@D@std@@QAEXPAXI@Z 00403d60 f i data_set.obj
 0001:00002d90       ?opfx@?$basic_ostream@DU?$char_traits@D@std@@@std@@QAE_NXZ 00403d90 f i data_set.obj
 0001:00002e10       ?good@ios_base@std@@QBE_NXZ 00403e10 f i data_set.obj
 0001:00002e40       ?flush@?$basic_ostream@DU?$char_traits@D@std@@@std@@QAEAAV12@XZ 00403e40 f i data_set.obj
 0001:00002ed0       ?fail@ios_base@std@@QBE_NXZ 00403ed0 f i data_set.obj
 0001:00002f00       ?pubsync@?$basic_streambuf@DU?$char_traits@D@std@@@std@@QAEHXZ 00403f00 f i data_set.obj
 0001:00002f40       ?osfx@?$basic_ostream@DU?$char_traits@D@std@@@std@@QAEXXZ 00403f40 f i data_set.obj
 0001:00002f80       ?tie@?$basic_ios@DU?$char_traits@D@std@@@std@@QBEPAV?$basic_ostream@DU?$char_traits@D@std@@@2@XZ 00403f80 f i data_set.obj
 0001:00002fa0       ?construct@?$allocator@N@std@@QAEXPANABN@Z 00403fa0 f i data_set.obj
 0001:00002fd0       ?destroy@?$allocator@N@std@@QAEXPAN@Z 00403fd0 f i data_set.obj
 0001:00003000       ?construct@?$allocator@VElkhornBinData@@@std@@QAEXPAVElkhornBinData@@ABV3@@Z 00404000 f i data_set.obj
 0001:00003030       ?destroy@?$allocator@VElkhornBinData@@@std@@QAEXPAVElkhornBinData@@@Z 00404030 f i data_set.obj
 0001:00003060       ?_Ucopy@?$vector@VElkhornData@@V?$allocator@VElkhornData@@@std@@@std@@IAEPAVElkhornData@@PBV3@0PAV3@@Z 00404060 f i data_set.obj
 0001:000030b0       ?_Ufill@?$vector@VElkhornData@@V?$allocator@VElkhornData@@@std@@@std@@IAEXPAVElkhornData@@IABV3@@Z 004040b0 f i data_set.obj
 0001:00003100       ?allocate@?$allocator@VElkhornData@@@std@@QAEPAVElkhornData@@IPBX@Z 00404100 f i data_set.obj
 0001:00003130       ?destroy@?$allocator@VElkhornData@@@std@@QAEXPAVElkhornData@@@Z 00404130 f i data_set.obj
 0001:00003160       ?max_size@?$basic_string@DU?$char_traits@D@std@@V?$allocator@D@2@@std@@QBEIXZ 00404160 f i data_set.obj
 0001:000031c0       ?_Copy@?$basic_string@DU?$char_traits@D@std@@V?$allocator@D@2@@std@@AAEXI@Z 004041c0 f i data_set.obj
 0001:00003320       ?_Split@?$basic_string@DU?$char_traits@D@std@@V?$allocator@D@2@@std@@AAEXXZ 00404320 f i data_set.obj
 0001:000033a0       ?construct@?$allocator@VElkhornData@@@std@@QAEXPAVElkhornData@@ABV3@@Z 004043a0 f i data_set.obj
 0001:000033d0       ?allocate@?$allocator@D@std@@QAEPADIPBX@Z 004043d0 f i data_set.obj
 0001:00003400       ?max_size@?$allocator@D@std@@QBEIXZ 00404400 f i data_set.obj
 0001:00003450       ??6std@@YAAAV?$basic_ostream@DU?$char_traits@D@std@@@0@AAV10@PBD@Z 00404450 f i data_set.obj
 0001:00003720       ?eq_int_type@?$char_traits@D@std@@SA_NABH0@Z 00404720 f i data_set.obj
 0001:00003740       ?eof@?$char_traits@D@std@@SAHXZ 00404740 f i data_set.obj
 0001:00003750       ?width@ios_base@std@@QBEHXZ 00404750 f i data_set.obj
 0001:00003770       ?width@ios_base@std@@QAEHH@Z 00404770 f i data_set.obj
 0001:000037b0       ?sputc@?$basic_streambuf@DU?$char_traits@D@std@@@std@@QAEHD@Z 004047b0 f i data_set.obj
 0001:00003850       ?to_int_type@?$char_traits@D@std@@SAHABD@Z 00404850 f i data_set.obj
 0001:00003860       ?pptr@?$basic_streambuf@DU?$char_traits@D@std@@@std@@IBEPADXZ 00404860 f i data_set.obj
 0001:00003880       ?epptr@?$basic_streambuf@DU?$char_traits@D@std@@@std@@IBEPADXZ 00404880 f i data_set.obj
 0001:000038b0       ?_Pninc@?$basic_streambuf@DU?$char_traits@D@std@@@std@@IAEPADXZ 004048b0 f i data_set.obj
 0001:000038f0       ?use_facet@std@@YAABV?$num_put@DV?$ostreambuf_iterator@DU?$char_traits@D@std@@@std@@@1@ABVlocale@1@PBV21@_N@Z 004048f0 f i data_set.obj
 0001:00003a30       ??0bad_cast@std@@QAE@PBD@Z 00404a30 f i data_set.obj
 0001:00003a70       ??1bad_cast@std@@UAE@XZ    00404a70 f i data_set.obj
 0001:00003aa0       ?_Doraise@bad_cast@std@@MBEXXZ 00404aa0 f i data_set.obj
 0001:00003af0       ??_Ebad_cast@std@@UAEPAXI@Z 00404af0 f i data_set.obj
 0001:00003af0       ??_Gbad_cast@std@@UAEPAXI@Z 00404af0 f i data_set.obj
 0001:00003b30       ??0bad_cast@std@@QAE@ABV01@@Z 00404b30 f i data_set.obj
 0001:00003b70       ??Bid@locale@std@@QAEIXZ   00404b70 f i data_set.obj
 0001:00003be0       ?copy@std@@YAPANPBN0PAN@Z  00404be0 f i data_set.obj
 0001:00003c20       ?copy@std@@YAPAVElkhornBinData@@PBV2@0PAV2@@Z 00404c20 f i data_set.obj
 0001:00003c60       ??8std@@YA_NABV?$allocator@D@0@0@Z 00404c60 f i data_set.obj
 0001:00003c70       ?_Allocate@std@@YAPANHPAN@Z 00404c70 f i data_set.obj
 0001:00003ca0       ?_Allocate@std@@YAPAVElkhornBinData@@HPAV2@@Z 00404ca0 f i data_set.obj
 0001:00003cd0       ?fill@std@@YAXPAVElkhornData@@0ABV2@@Z 00404cd0 f i data_set.obj
 0001:00003d00       ?copy_backward@std@@YAPAVElkhornData@@PAV2@00@Z 00404d00 f i data_set.obj
 0001:00003d40       ?copy@std@@YAPAVElkhornData@@PAV2@00@Z 00404d40 f i data_set.obj
 0001:00003d80       ?_Construct@std@@YAXPANABN@Z 00404d80 f i data_set.obj
 0001:00003de0       ??2@YAPAXIPAX@Z            00404de0 f i data_set.obj
 0001:00003df0       ?_Destroy@std@@YAXPAN@Z    00404df0 f i data_set.obj
 0001:00003e00       ?_Construct@std@@YAXPAVElkhornBinData@@ABV2@@Z 00404e00 f i data_set.obj
 0001:00003e90       ??3@YAXPAX0@Z              00404e90 f i data_set.obj
 0001:00003ea0       ?_Destroy@std@@YAXPAVElkhornBinData@@@Z 00404ea0 f i data_set.obj
 0001:00003ec0       ?_Allocate@std@@YAPAVElkhornData@@HPAV2@@Z 00404ec0 f i data_set.obj
 0001:00003ef0       ?_Destroy@std@@YAXPAVElkhornData@@@Z 00404ef0 f i data_set.obj
 0001:00003f10       ?_Construct@std@@YAXPAVElkhornData@@ABV2@@Z 00404f10 f i data_set.obj
 0001:00003fa0       ?_Allocate@std@@YAPADHPAD@Z 00404fa0 f i data_set.obj
 0001:00003fd0       ??0ElkhornBinData@@QAE@ABV0@@Z 00404fd0 f i data_set.obj
 0001:00004040       ??_GElkhornBinData@@QAEPAXI@Z 00405040 f i data_set.obj
 0001:00004080       ??_GElkhornData@@QAEPAXI@Z 00405080 f i data_set.obj
 0001:000040c0       ??0ElkhornData@@QAE@ABV0@@Z 004050c0 f i data_set.obj
 0001:00004150       ??0?$basic_string@DU?$char_traits@D@std@@V?$allocator@D@2@@std@@QAE@ABV01@@Z 00405150 f i data_set.obj
 0001:000041a0       ??1ElkhornBinData@@QAE@XZ  004051a0 f i data_set.obj
 0001:000041d0       ?sputn@?$basic_streambuf@DU?$char_traits@D@std@@@std@@QAEHPBDH@Z 004051d0 f i data_set.obj
 0001:00004210       ??0?$vector@NV?$allocator@N@std@@@std@@QAE@ABV01@@Z 00405210 f i data_set.obj
 0001:00004290       ??0?$vector@VElkhornBinData@@V?$allocator@VElkhornBinData@@@std@@@std@@QAE@ABV01@@Z 00405290 f i data_set.obj
 0001:00004310       ??0?$num_put@DV?$ostreambuf_iterator@DU?$char_traits@D@std@@@std@@@std@@QAE@I@Z 00405310 f i data_set.obj
 0001:000043c0       ??1facet@locale@std@@UAE@XZ 004053c0 f i data_set.obj
 0001:000043e0       ??0facet@locale@std@@IAE@I@Z 004053e0 f i data_set.obj
 0001:00004410       ??_Gfacet@locale@std@@UAEPAXI@Z 00405410 f i data_set.obj
 0001:00004410       ??_Efacet@locale@std@@UAEPAXI@Z 00405410 f i data_set.obj
 0001:00004450       ?do_put@?$num_put@DV?$ostreambuf_iterator@DU?$char_traits@D@std@@@std@@@std@@MBE?AV?$ostreambuf_iterator@DU?$char_traits@D@std@@@2@V32@AAVios_base@2@D_N@Z 00405450 f i data_set.obj
 0001:000046b0       ?do_put@?$num_put@DV?$ostreambuf_iterator@DU?$char_traits@D@std@@@std@@@std@@MBE?AV?$ostreambuf_iterator@DU?$char_traits@D@std@@@2@V32@AAVios_base@2@DJ@Z 004056b0 f i data_set.obj
 0001:00004740       ?do_put@?$num_put@DV?$ostreambuf_iterator@DU?$char_traits@D@std@@@std@@@std@@MBE?AV?$ostreambuf_iterator@DU?$char_traits@D@std@@@2@V32@AAVios_base@2@DK@Z 00405740 f i data_set.obj
 0001:000047d0       ?do_put@?$num_put@DV?$ostreambuf_iterator@DU?$char_traits@D@std@@@std@@@std@@MBE?AV?$ostreambuf_iterator@DU?$char_traits@D@std@@@2@V32@AAVios_base@2@DN@Z 004057d0 f i data_set.obj
 0001:000048c0       ?precision@ios_base@std@@QBEHXZ 004058c0 f i data_set.obj
 0001:000048e0       ?do_put@?$num_put@DV?$ostreambuf_iterator@DU?$char_traits@D@std@@@std@@@std@@MBE?AV?$ostreambuf_iterator@DU?$char_traits@D@std@@@2@V32@AAVios_base@2@DO@Z 004058e0 f i data_set.obj
 0001:000049d0       ?do_put@?$num_put@DV?$ostreambuf_iterator@DU?$char_traits@D@std@@@std@@@std@@MBE?AV?$ostreambuf_iterator@DU?$char_traits@D@std@@@2@V32@AAVios_base@2@DPBX@Z 004059d0 f i data_set.obj
 0001:00004b00       ??_E?$num_put@DV?$ostreambuf_iterator@DU?$char_traits@D@std@@@std@@@std@@UAEPAXI@Z 00405b00 f i data_set.obj
 0001:00004b00       ??_G?$num_put@DV?$ostreambuf_iterator@DU?$char_traits@D@std@@@std@@@std@@UAEPAXI@Z 00405b00 f i data_set.obj
 0001:00004b40       ??1?$num_put@DV?$ostreambuf_iterator@DU?$char_traits@D@std@@@std@@@std@@UAE@XZ 00405b40 f i data_set.obj
 0001:00004b70       ?append@?$basic_string@DU?$char_traits@D@std@@V?$allocator@D@2@@std@@QAEAAV12@ID@Z 00405b70 f i data_set.obj
 0001:00004c10       ?assign@?$char_traits@D@std@@SAPADPADIABD@Z 00405c10 f i data_set.obj
 0001:00004c40       ?_Ffmt@?$num_put@DV?$ostreambuf_iterator@DU?$char_traits@D@std@@@std@@@std@@KAPADPADDH@Z 00405c40 f i data_set.obj
 0001:00004d30       ?_Fput@?$num_put@DV?$ostreambuf_iterator@DU?$char_traits@D@std@@@std@@@std@@KA?AV?$ostreambuf_iterator@DU?$char_traits@D@std@@@2@V32@AAVios_base@2@DPBDII@Z 00405d30 f i data_set.obj
 0001:00005100       ?_Ifmt@?$num_put@DV?$ostreambuf_iterator@DU?$char_traits@D@std@@@std@@@std@@KAPADPADDH@Z 00406100 f i data_set.obj
 0001:000051e0       ?_Iput@?$num_put@DV?$ostreambuf_iterator@DU?$char_traits@D@std@@@std@@@std@@KA?AV?$ostreambuf_iterator@DU?$char_traits@D@std@@@2@V32@AAVios_base@2@DPADI@Z 004061e0 f i data_set.obj
 0001:000055e0       ?_Put@?$num_put@DV?$ostreambuf_iterator@DU?$char_traits@D@std@@@std@@@std@@KA?AV?$ostreambuf_iterator@DU?$char_traits@D@std@@@2@V32@PBDI@Z 004065e0 f i data_set.obj
 0001:00005640       ?_Putc@?$num_put@DV?$ostreambuf_iterator@DU?$char_traits@D@std@@@std@@@std@@KA?AV?$ostreambuf_iterator@DU?$char_traits@D@std@@@2@V32@PBDI@Z 00406640 f i data_set.obj
 0001:000056b0       ?_Rep@?$num_put@DV?$ostreambuf_iterator@DU?$char_traits@D@std@@@std@@@std@@KA?AV?$ostreambuf_iterator@DU?$char_traits@D@std@@@2@V32@DI@Z 004066b0 f i data_set.obj
 0001:00005700       ?falsename@?$numpunct@D@std@@QBE?AV?$basic_string@DU?$char_traits@D@std@@V?$allocator@D@2@@2@XZ 00406700 f i data_set.obj
 0001:00005760       ?truename@?$numpunct@D@std@@QBE?AV?$basic_string@DU?$char_traits@D@std@@V?$allocator@D@2@@2@XZ 00406760 f i data_set.obj
 0001:000057c0       ??4?$ostreambuf_iterator@DU?$char_traits@D@std@@@std@@QAEAAV01@D@Z 004067c0 f i data_set.obj
 0001:00005840       ??D?$ostreambuf_iterator@DU?$char_traits@D@std@@@std@@QAEAAV01@XZ 00406840 f i data_set.obj
 0001:00005860       ??E?$ostreambuf_iterator@DU?$char_traits@D@std@@@std@@QAEAAV01@XZ 00406860 f i data_set.obj
 0001:00005880       ?decimal_point@?$numpunct@D@std@@QBEDXZ 00406880 f i data_set.obj
 0001:000058c0       ?thousands_sep@?$numpunct@D@std@@QBEDXZ 004068c0 f i data_set.obj
 0001:00005900       ?grouping@?$numpunct@D@std@@QBE?AV?$basic_string@DU?$char_traits@D@std@@V?$allocator@D@2@@2@XZ 00406900 f i data_set.obj
 0001:00005960       ?use_facet@std@@YAABV?$numpunct@D@1@ABVlocale@1@PBV21@_N@Z 00406960 f i data_set.obj
 0001:00005aa0       ?_Widen@std@@YADDPAD@Z     00406aa0 f i data_set.obj
 0001:00005ab0       ??0?$numpunct@D@std@@QAE@I@Z 00406ab0 f i data_set.obj
 0001:00005b60       ?do_decimal_point@?$numpunct@D@std@@MBEDXZ 00406b60 f i data_set.obj
 0001:00005b80       ?do_thousands_sep@?$numpunct@D@std@@MBEDXZ 00406b80 f i data_set.obj
 0001:00005ba0       ?do_grouping@?$numpunct@D@std@@MBE?AV?$basic_string@DU?$char_traits@D@std@@V?$allocator@D@2@@2@XZ 00406ba0 f i data_set.obj
 0001:00005c00       ?do_falsename@?$numpunct@D@std@@MBE?AV?$basic_string@DU?$char_traits@D@std@@V?$allocator@D@2@@2@XZ 00406c00 f i data_set.obj
 0001:00005c60       ?do_truename@?$numpunct@D@std@@MBE?AV?$basic_string@DU?$char_traits@D@std@@V?$allocator@D@2@@2@XZ 00406c60 f i data_set.obj
 0001:00005cc0       ??_G?$numpunct@D@std@@UAEPAXI@Z 00406cc0 f i data_set.obj
 0001:00005cc0       ??_E?$numpunct@D@std@@UAEPAXI@Z 00406cc0 f i data_set.obj
 0001:00005d00       ??1?$numpunct@D@std@@UAE@XZ 00406d00 f i data_set.obj
 0001:00005d80       ?_Save@?$_Tidyfac@V?$num_put@DV?$ostreambuf_iterator@DU?$char_traits@D@std@@@std@@@std@@@std@@SAPAV?$num_put@DV?$ostreambuf_iterator@DU?$char_traits@D@std@@@std@@@2@PAV32@@Z 00406d80 f i data_set.obj
 0001:00005e10       ?_Save@?$_Tidyfac@V?$numpunct@D@std@@@std@@SAPAV?$numpunct@D@2@PAV32@@Z 00406e10 f i data_set.obj
 0001:00005ea0       ?_Init@?$num_put@DV?$ostreambuf_iterator@DU?$char_traits@D@std@@@std@@@std@@IAEXABV_Locinfo@2@@Z 00406ea0 f i data_set.obj
 0001:00005ec0       ?_Init@?$numpunct@D@std@@IAEXABV_Locinfo@2@@Z 00406ec0 f i data_set.obj
 0001:00005f70       ?_Getlconv@_Locinfo@std@@QBEPBUlconv@@XZ 00406f70 f i data_set.obj
 0001:00005fa0       ?_Getfalse@_Locinfo@std@@QBEPBDXZ 00406fa0 f i data_set.obj
 0001:00005fc0       ?_Gettrue@_Locinfo@std@@QBEPBDXZ 00406fc0 f i data_set.obj
 0001:00005fe0       ?_Tidy@?$_Tidyfac@V?$num_put@DV?$ostreambuf_iterator@DU?$char_traits@D@std@@@std@@@std@@@std@@SAXXZ 00406fe0 f i data_set.obj
 0001:00006090       ?_Tidy@?$_Tidyfac@V?$numpunct@D@std@@@std@@SAXXZ 00407090 f i data_set.obj
 0001:00006140       ?_Maklocstr@std@@YAPADPBDPAD@Z 00407140 f i data_set.obj
 0001:000061d0       ?id@?$ctype@G@std@@$D      004071d0 f i data_set.obj
 0001:00006200       ?id@?$num_put@DV?$ostreambuf_iterator@DU?$char_traits@D@std@@@$D 00407200 f i data_set.obj
 0001:00006230       ?id@?$numpunct@D@std@@$D   00407230 f i data_set.obj
 0001:00006260       ?id@?$numpunct@D@std@@$E   00407260 f i data_set.obj
 0001:00006270       ?id@?$num_put@DV?$ostreambuf_iterator@DU?$char_traits@D@std@@@$E 00407270 f i data_set.obj
 0001:00006280       ?id@?$ctype@G@std@@$E      00407280 f i data_set.obj
 0001:00006290       ?GetMessageMap@graphexApp@@MBEPBUAFX_MSGMAP@@XZ 00407290 f   dndc71.obj
 0001:000062a7       ??0graphexApp@@QAE@XZ      004072a7 f   dndc71.obj
 0001:00006508       ?InitInstance@graphexApp@@UAEHXZ 00407508 f   dndc71.obj
 0001:00006656       ??0CAboutDlg@@QAE@XZ       00407656 f   dndc71.obj
 0001:0000668a       ?DoDataExchange@CAboutDlg@@MAEXPAVCDataExchange@@@Z 0040768a f   dndc71.obj
 0001:000066b4       ?GetMessageMap@CAboutDlg@@MBEPBUAFX_MSGMAP@@XZ 004076b4 f   dndc71.obj
 0001:000066cb       ?OnAppAbout@graphexApp@@QAEXXZ 004076cb f   dndc71.obj
 0001:0000673a       ?OnLButtonDown@CAboutDlg@@IAEXIVCPoint@@@Z 0040773a f   dndc71.obj
 0001:00006780       ??_EgraphexApp@@UAEPAXI@Z  00407780 f i dndc71.obj
 0001:00006780       ??_GgraphexApp@@UAEPAXI@Z  00407780 f i dndc71.obj
 0001:000067c0       ??1graphexApp@@UAE@XZ      004077c0 f i dndc71.obj
 0001:000067f0       ??_ECAboutDlg@@UAEPAXI@Z   004077f0 f i dndc71.obj
 0001:000067f0       ??_GCAboutDlg@@UAEPAXI@Z   004077f0 f i dndc71.obj
 0001:00006830       ??1CAboutDlg@@UAE@XZ       00407830 f i dndc71.obj
 0001:00006860       ?JulianDay@@YAHHH@Z        00407860 f   dndc_climate.obj
 0001:0000692f       ?day_par@@YAMHMPAM@Z       0040792f f   dndc_climate.obj
 0001:00006d20       ?SaveDatatoFile@@YAXPADH@Z 00407d20 f   dndc_InputFile.obj
 0001:00009e30       ?ReadInputDatafromDND@@YAXPADH@Z 0040ae30 f   dndc_InputFile.obj
 0001:0000e025       ?Toend@@YAXPAD0@Z          0040f025 f   dndc_InputFile.obj
 0001:0000e0a0       ??1Site_BaseInformation@@QAE@XZ 0040f0a0 f i dndc_InputFile.obj
 0001:0000e0d0       ??0Dndc_ManningChannel@@QAE@PAVCWnd@@@Z 0040f0d0 f   Dndc_ManningChannel.obj
 0001:0000e10b       ?DoDataExchange@Dndc_ManningChannel@@MAEXPAVCDataExchange@@@Z 0040f10b f   Dndc_ManningChannel.obj
 0001:0000e135       ?GetMessageMap@Dndc_ManningChannel@@MBEPBUAFX_MSGMAP@@XZ 0040f135 f   Dndc_ManningChannel.obj
 0001:0000e14c       ?OnMc1@Dndc_ManningChannel@@IAEXXZ 0040f14c f   Dndc_ManningChannel.obj
 0001:0000e15e       ?OnOK@Dndc_ManningChannel@@MAEXXZ 0040f15e f   Dndc_ManningChannel.obj
 0001:0000e190       ??_GDndc_ManningChannel@@UAEPAXI@Z 0040f190 f i Dndc_ManningChannel.obj
 0001:0000e190       ??_EDndc_ManningChannel@@UAEPAXI@Z 0040f190 f i Dndc_ManningChannel.obj
 0001:0000e1d0       ??1Dndc_ManningChannel@@UAE@XZ 0040f1d0 f i Dndc_ManningChannel.obj
 0001:0000e200       ??0Dndc_ManningLand@@QAE@PAVCWnd@@@Z 0040f200 f   Dndc_ManningLand.obj
 0001:0000e23b       ?DoDataExchange@Dndc_ManningLand@@MAEXPAVCDataExchange@@@Z 0040f23b f   Dndc_ManningLand.obj
 0001:0000e265       ?GetMessageMap@Dndc_ManningLand@@MBEPBUAFX_MSGMAP@@XZ 0040f265 f   Dndc_ManningLand.obj
 0001:0000e280       ??_GDndc_ManningLand@@UAEPAXI@Z 0040f280 f i Dndc_ManningLand.obj
 0001:0000e280       ??_EDndc_ManningLand@@UAEPAXI@Z 0040f280 f i Dndc_ManningLand.obj
 0001:0000e2c0       ??1Dndc_ManningLand@@UAE@XZ 0040f2c0 f i Dndc_ManningLand.obj
 0001:0000e2f0       ??0Dndc_manure11@@QAE@PAVCWnd@@@Z 0040f2f0 f   Dndc_manure11.obj
 0001:0000e942       ?DoDataExchange@Dndc_manure11@@MAEXPAVCDataExchange@@@Z 0040f942 f   Dndc_manure11.obj
 0001:0000f49b       ?GetMessageMap@Dndc_manure11@@MBEPBUAFX_MSGMAP@@XZ 0041049b f   Dndc_manure11.obj
 0001:0000f4b2       ?OnOK@Dndc_manure11@@MAEXXZ 004104b2 f   Dndc_manure11.obj
 0001:0000f5bd       ?OnSuan@Dndc_manure11@@IAEXXZ 004105bd f   Dndc_manure11.obj
 0001:000106f7       ?OnCancel@Dndc_manure11@@MAEXXZ 004116f7 f   Dndc_manure11.obj
 0001:0001071b       ?OnUnit1@Dndc_manure11@@IAEXXZ 0041171b f   Dndc_manure11.obj
 0001:000107ca       ?Onunit@Dndc_manure11@@IAEXXZ 004117ca f   Dndc_manure11.obj
 0001:00010879       ?OnInitDialog@Dndc_manure11@@MAEHXZ 00411879 f   Dndc_manure11.obj
 0001:000108e0       ??_GDndc_manure11@@UAEPAXI@Z 004118e0 f i Dndc_manure11.obj
 0001:000108e0       ??_EDndc_manure11@@UAEPAXI@Z 004118e0 f i Dndc_manure11.obj
 0001:00010920       ??1Dndc_manure11@@UAE@XZ   00411920 f i Dndc_manure11.obj
 0001:00010950       ??_9@$BNA@AE               00411950 f i Dndc_manure11.obj
 0001:00010960       ??0Dndc_manure12@@QAE@PAVCWnd@@@Z 00411960 f   Dndc_manure12.obj
 0001:000109cd       ?DoDataExchange@Dndc_manure12@@MAEXPAVCDataExchange@@@Z 004119cd f   Dndc_manure12.obj
 0001:00010a60       ?GetMessageMap@Dndc_manure12@@MBEPBUAFX_MSGMAP@@XZ 00411a60 f   Dndc_manure12.obj
 0001:00010a77       ?OnOK@Dndc_manure12@@MAEXXZ 00411a77 f   Dndc_manure12.obj
 0001:00010c10       ??_EDndc_manure12@@UAEPAXI@Z 00411c10 f i Dndc_manure12.obj
 0001:00010c10       ??_GDndc_manure12@@UAEPAXI@Z 00411c10 f i Dndc_manure12.obj
 0001:00010c50       ??1Dndc_manure12@@UAE@XZ   00411c50 f i Dndc_manure12.obj
 0001:00010cdb       ?CreateObject@dndc_ManureFarmCrops@@SGPAVCObject@@XZ 00411cdb f   dndc_ManureFarmCrops.obj
 0001:00010d68       ?GetRuntimeClass@dndc_ManureFarmCrops@@UBEPAUCRuntimeClass@@XZ 00411d68 f   dndc_ManureFarmCrops.obj
 0001:00010d7f       ??0dndc_ManureFarmCrops@@QAE@XZ 00411d7f f   dndc_ManureFarmCrops.obj
 0001:00010f7d       ??1dndc_ManureFarmCrops@@UAE@XZ 00411f7d f   dndc_ManureFarmCrops.obj
 0001:00010faa       ?DoDataExchange@dndc_ManureFarmCrops@@MAEXPAVCDataExchange@@@Z 00411faa f   dndc_ManureFarmCrops.obj
 0001:00011310       ?GetMessageMap@dndc_ManureFarmCrops@@MBEPBUAFX_MSGMAP@@XZ 00412310 f   dndc_ManureFarmCrops.obj
 0001:00011327       ?OnManureCrop@dndc_ManureFarmCrops@@IAEXXZ 00412327 f   dndc_ManureFarmCrops.obj
 0001:000132d7       ?OnInitDialog@dndc_ManureFarmCrops@@MAEHXZ 004142d7 f   dndc_ManureFarmCrops.obj
 0001:00013d95       ?Onunit@dndc_ManureFarmCrops@@IAEXXZ 00414d95 f   dndc_ManureFarmCrops.obj
 0001:00013fe1       ?Onunit2@dndc_ManureFarmCrops@@IAEXXZ 00414fe1 f   dndc_ManureFarmCrops.obj
 0001:0001422d       ?OnNextRotation3@dndc_ManureFarmCrops@@IAEXXZ 0041522d f   dndc_ManureFarmCrops.obj
 0001:00014286       ?OnLastRotation3@dndc_ManureFarmCrops@@IAEXXZ 00415286 f   dndc_ManureFarmCrops.obj
 0001:000142e5       ?OnSetActive@dndc_ManureFarmCrops@@UAEHXZ 004152e5 f   dndc_ManureFarmCrops.obj
 0001:000144c0       ??_Edndc_ManureFarmCrops@@UAEPAXI@Z 004154c0 f i dndc_ManureFarmCrops.obj
 0001:000144c0       ??_Gdndc_ManureFarmCrops@@UAEPAXI@Z 004154c0 f i dndc_ManureFarmCrops.obj
 0001:00014c09       ??0DNDC_Map@@QAE@PAVCWnd@@@Z 00415c09 f   dndc_map.obj
 0001:00014cb2       ?DoDataExchange@DNDC_Map@@MAEXPAVCDataExchange@@@Z 00415cb2 f   dndc_map.obj
 0001:00014d38       ?GetMessageMap@DNDC_Map@@MBEPBUAFX_MSGMAP@@XZ 00415d38 f   dndc_map.obj
 0001:00014d4f       ?OnOK@DNDC_Map@@MAEXXZ     00415d4f f   dndc_map.obj
 0001:00014d61       ?OnSelectGlobeFile@DNDC_Map@@IAEXXZ 00415d61 f   dndc_map.obj
 0001:0001532f       ?OnSelectDNDCFile@DNDC_Map@@IAEXXZ 0041632f f   dndc_map.obj
 0001:00015e36       ?OnDblclkDndcFileList@DNDC_Map@@IAEXXZ 00416e36 f   dndc_map.obj
 0001:00015ef9       ?ReadDomain@@YAXH@Z        00416ef9 f   dndc_map.obj
 0001:00016084       ?OnWeighIrri@DNDC_Map@@IAEXXZ 00417084 f   dndc_map.obj
 0001:00016888       ?MapFile@DNDC_Map@@QAEXH@Z 00417888 f   dndc_map.obj
 0001:00018702       ?OnCountryData@DNDC_Map@@IAEXXZ 00419702 f   dndc_map.obj
 0001:00018726       ?OnDraw@DNDC_Map@@IAEXXZ   00419726 f   dndc_map.obj
 0001:0001874c       ?OnSelchangeMapItem@DNDC_Map@@IAEXXZ 0041974c f   dndc_map.obj
 0001:00018788       ?OnDrawGlobe@DNDC_Map@@IAEXXZ 00419788 f   dndc_map.obj
 0001:000187ae       ?OnSelchangeSelectCrop@DNDC_Map@@IAEXXZ 004197ae f   dndc_map.obj
 0001:00019a17       ?Summarizing@DNDC_Map@@QAEXXZ 0041aa17 f   dndc_map.obj
 0001:0001a500       ??_EDNDC_Map@@UAEPAXI@Z    0041b500 f i dndc_map.obj
 0001:0001a500       ??_GDNDC_Map@@UAEPAXI@Z    0041b500 f i dndc_map.obj
 0001:0001a540       ??1DNDC_Map@@UAE@XZ        0041b540 f i dndc_map.obj
 0001:0001a5e0       ??1SelectIrriFile@@UAE@XZ  0041b5e0 f i dndc_map.obj
 0001:0001a640       ?dndc_region@dndc74@@QAEXPAUMODEL_LINK_INFO@@PAVCGraphexDoc@@H@Z 0041b640 f   dndc_region.obj
 0001:0001ad93       ?PaintGrid@dndc74@@QAEXPADPAVCGraphexDoc@@H@Z 0041bd93 f   dndc_region.obj
 0001:0001b440       ??_H@YGXPAXIHP6EX0@Z@Z     0041c440 f i dndc_region.obj
 0001:0001b480       ?region_farm_files@@YAXPAD0HHHHHH000PAMM001M0M0000HPAHH111@Z 0041c480 f   dndc_RegionFiles.obj
 0001:0001e9bb       ?region_soil_files@@YAXHMMMMMMMMHHPADM0HMMHMM@Z 0041f9bb f   dndc_RegionFiles.obj
 0001:00020126       ?region_site_files@@YAXPADMM00@Z 00421126 f   dndc_RegionFiles.obj
 0001:00020294       ?region_climate_files@@YAHPADMMMHMHHHHHHH@Z 00421294 f   dndc_RegionFiles.obj
 0001:000217d1       ?region_livestock_files@@YAXHPADPAH111PAM22222222221111222222222222222222222222112222221@Z 004227d1 f   dndc_RegionFiles.obj
 0001:00021e78       ?MakeDailyClimateFile@@YAXPAD00HHMVCString@@MMMMHHH0HHHH@Z 00422e78 f   dndc_RegionFiles.obj
 0001:00023130       ?CreateObject@dndc_save@@SGPAVCObject@@XZ 00424130 f   dndc_save.obj
 0001:000231bd       ?GetRuntimeClass@dndc_save@@UBEPAUCRuntimeClass@@XZ 004241bd f   dndc_save.obj
 0001:000231d4       ??0dndc_save@@QAE@XZ       004241d4 f   dndc_save.obj
 0001:0002320b       ??1dndc_save@@UAE@XZ       0042420b f   dndc_save.obj
 0001:00023238       ?DoDataExchange@dndc_save@@MAEXPAVCDataExchange@@@Z 00424238 f   dndc_save.obj
 0001:00023262       ?GetMessageMap@dndc_save@@MBEPBUAFX_MSGMAP@@XZ 00424262 f   dndc_save.obj
 0001:00023279       ?OnSavesite@dndc_save@@QAEXXZ 00424279 f   dndc_save.obj
 0001:00023490       ??_Gdndc_save@@UAEPAXI@Z   00424490 f i dndc_save.obj
 0001:00023490       ??_Edndc_save@@UAEPAXI@Z   00424490 f i dndc_save.obj
 0001:000243d3       ??0dndc74@@QAE@XZ          004253d3 f   dndc_site.obj
 0001:0002462f       ??1dndc74@@QAE@XZ          0042562f f   dndc_site.obj
 0001:00024665       ?dndc_site@dndc74@@QAEXPAVCGraphexDoc@@@Z 00425665 f   dndc_site.obj
 0001:00024780       ??0DNDC_SoilProfile@@QAE@PAVCWnd@@@Z 00425780 f   DNDC_SoilProfile.obj
 0001:00024dec       ?DoDataExchange@DNDC_SoilProfile@@MAEXPAVCDataExchange@@@Z 00425dec f   DNDC_SoilProfile.obj
 0001:00025799       ?GetMessageMap@DNDC_SoilProfile@@MBEPBUAFX_MSGMAP@@XZ 00426799 f   DNDC_SoilProfile.obj
 0001:000257b0       ?OnSelchangeSoiltexture1@DNDC_SoilProfile@@IAEXXZ 004267b0 f   DNDC_SoilProfile.obj
 0001:00025879       ?OnSelchangeSoiltexture2@DNDC_SoilProfile@@IAEXXZ 00426879 f   DNDC_SoilProfile.obj
 0001:00025942       ?OnSelchangeSoiltexture3@DNDC_SoilProfile@@IAEXXZ 00426942 f   DNDC_SoilProfile.obj
 0001:00025a0b       ?OnSelchangeSoiltexture4@DNDC_SoilProfile@@IAEXXZ 00426a0b f   DNDC_SoilProfile.obj
 0001:00025ad4       ?OnSelchangeSoiltexture5@DNDC_SoilProfile@@IAEXXZ 00426ad4 f   DNDC_SoilProfile.obj
 0001:00025b9d       ?OnSelchangeSoiltexture6@DNDC_SoilProfile@@IAEXXZ 00426b9d f   DNDC_SoilProfile.obj
 0001:00025c66       ?OnSelchangeSoiltexture7@DNDC_SoilProfile@@IAEXXZ 00426c66 f   DNDC_SoilProfile.obj
 0001:00025d2f       ?OnSelchangeSoiltexture8@DNDC_SoilProfile@@IAEXXZ 00426d2f f   DNDC_SoilProfile.obj
 0001:00025df8       ?OnSelchangeSoiltexture9@DNDC_SoilProfile@@IAEXXZ 00426df8 f   DNDC_SoilProfile.obj
 0001:00025ebe       ?OnSelchangeSoiltexture10@DNDC_SoilProfile@@IAEXXZ 00426ebe f   DNDC_SoilProfile.obj
 0001:00025f87       ?OnSPsave@DNDC_SoilProfile@@IAEXXZ 00426f87 f   DNDC_SoilProfile.obj
 0001:0002630a       ?OnSPread@DNDC_SoilProfile@@IAEXXZ 0042730a f   DNDC_SoilProfile.obj
 0001:00026c40       ?OnOK@DNDC_SoilProfile@@MAEXXZ 00427c40 f   DNDC_SoilProfile.obj
 0001:00026fea       ?SaveProfileData@DNDC_SoilProfile@@QAEXHPAD@Z 00427fea f   DNDC_SoilProfile.obj
 0001:0002775d       ?OnInitDialog@DNDC_SoilProfile@@MAEHXZ 0042875d f   DNDC_SoilProfile.obj
 0001:00027e10       ??_GDNDC_SoilProfile@@UAEPAXI@Z 00428e10 f i DNDC_SoilProfile.obj
 0001:00027e10       ??_EDNDC_SoilProfile@@UAEPAXI@Z 00428e10 f i DNDC_SoilProfile.obj
 0001:00027e50       ??1DNDC_SoilProfile@@UAE@XZ 00428e50 f i DNDC_SoilProfile.obj
 0001:00027f60       ?ReadCropPara1@@YAXPAHQAY0GE@DPAM222222222220@Z 00428f60 f   dndc_tool.obj
 0001:00028188       ?CellColor@@YAXHMPAH00@Z   00429188 f   dndc_tool.obj
 0001:0002851e       ?FindCrops@@YAXPADPAH1@Z   0042951e f   dndc_tool.obj
 0001:00028748       ?FileCopy@@YAHPAD0@Z       00429748 f   dndc_tool.obj
 0001:00028930       ?FileExpend@@YAHPAD0@Z     00429930 f   dndc_tool.obj
 0001:00028b29       ?OrderNumber@@YA?AVCString@@HPADPAV1@@Z 00429b29 f   dndc_tool.obj
 0001:00028bdd       ?ResetListItem@@YAHHHPADPAVCListCtrl@@@Z 00429bdd f   dndc_tool.obj
 0001:00028cfe       ?XX@@YAXPAU_iobuf@@@Z      00429cfe f   dndc_tool.obj
 0001:00028d71       ?PathAddFile@@YA?AVCString@@V1@0@Z 00429d71 f   dndc_tool.obj
 0001:00028ecf       ?PathAddFile@@YAPADPAD0@Z  00429ecf f   dndc_tool.obj
 0001:00028f96       ?NumberToChar@@YAHPADH@Z   00429f96 f   dndc_tool.obj
 0001:00029038       ?ChangeChar@@YAHPADDD@Z    0042a038 f   dndc_tool.obj
 0001:000290a3       ?ChangeChar@@YA?AVCString@@V1@DD@Z 0042a0a3 f   dndc_tool.obj
 0001:00029169       ?EraseFBSpace@@YAPAVCString@@PAV1@@Z 0042a169 f   dndc_tool.obj
 0001:000291d2       ?EraseFBSpace@@YAPADPAD@Z  0042a1d2 f   dndc_tool.obj
 0001:0002925c       ?EraseAllSpace@@YA?AVCString@@PAV1@@Z 0042a25c f   dndc_tool.obj
 0001:000292ff       ?EraseAllSpace@@YAPADPAD@Z 0042a2ff f   dndc_tool.obj
 0001:0002938a       ?GetShortFileName@@YAHPAD@Z 0042a38a f   dndc_tool.obj
 0001:000293f6       ?ValueToCString@@YAPADPADM@Z 0042a3f6 f   dndc_tool.obj
 0001:0002941f       ?CheckValueRange@@YAMMHH@Z 0042a41f f   dndc_tool.obj
 0001:0002944f       ?note@@YAXHPAD@Z           0042a44f f   dndc_tool.obj
 0001:000294e1       ?note@@YAXHVCString@@@Z    0042a4e1 f   dndc_tool.obj
 0001:00029577       ?sopen@@YAPAU_iobuf@@PAD0@Z 0042a577 f   dndc_tool.obj
 0001:00029641       ?sopen@@YAPAU_iobuf@@PADH@Z 0042a641 f   dndc_tool.obj
 0001:00029753       ?FileMessage@@YAXPADH@Z    0042a753 f   dndc_tool.obj
 0001:000297be       ?FileMessage@@YAXVCString@@H@Z 0042a7be f   dndc_tool.obj
 0001:00029866       ?Glean_String@@YAXPADHH0@Z 0042a866 f   dndc_tool.obj
 0001:00029901       ?SOCtoNO3@@YAMMM@Z         0042a901 f   dndc_tool.obj
 0001:0002999f       ?SocProfile@@YAXHMMPAM00@Z 0042a99f f   dndc_tool.obj
 0001:000299de       ?HumadsFraction@@YAMMH@Z   0042a9de f   dndc_tool.obj
 0001:00029a22       ?CN_ratios@@YAXPAM00000@Z  0042aa22 f   dndc_tool.obj
 0001:00029a5d       ?DefineManureDates@@YAXPADPAH1PAM2@Z 0042aa5d f   dndc_tool.obj
 0001:00029af1       ?FindOneCrop@@YAHPADH@Z    0042aaf1 f   dndc_tool.obj
 0001:00029d08       ?DefineResidueDates@@YAXPADPAHPAM@Z 0042ad08 f   dndc_tool.obj
 0001:00029eb4       ?DefineFloodDates@@YAXPADPAH111@Z 0042aeb4 f   dndc_tool.obj
 0001:0002a1c3       ?DefineTillDates@@YAXPADPAH11@Z 0042b1c3 f   dndc_tool.obj
 0001:0002a3a8       ?DefinePHDates@@YAXPADPAH1111@Z 0042b3a8 f   dndc_tool.obj
 0001:0002a548       ?DefineFertDates@@YAXPADPAHQAY04HQAY04M111H@Z 0042b548 f   dndc_tool.obj
 0001:0002a5a1       ?DefineManureRate@@YAXPADPAM11@Z 0042b5a1 f   dndc_tool.obj
 0001:0002a697       ?FindCropPara@@YAXPADPAM11H@Z 0042b697 f   dndc_tool.obj
 0001:0002a940       ?read_scale@CGraphexView@@QAEXH@Z 0042b940 f   dndc_uncertainty.obj
 0001:0002a9db       ?draw_county1@CGraphexView@@QAEXPAVCGraphexDoc@@H@Z 0042b9db f   dndc_uncertainty.obj
 0001:0002adc7       ?draw_states@CGraphexView@@QAEXPAVCGraphexDoc@@@Z 0042bdc7 f   dndc_uncertainty.obj
 0001:0002b088       ?draw_a_state@CGraphexView@@QAEXPAVCGraphexDoc@@H@Z 0042c088 f   dndc_uncertainty.obj
 0001:0002b54a       ?Find_Grid@CGraphexView@@QAEXHHHH@Z 0042c54a f   dndc_uncertainty.obj
 0001:0002b9ae       ?draw_a_county@CGraphexView@@QAEXPAVCGraphexDoc@@H@Z 0042c9ae f   dndc_uncertainty.obj
 0001:0002bf90       ?County_data@CGraphexView@@QAEXHH@Z 0042cf90 f   dndc_wizard.obj
 0001:0002c545       ?DrawCbalance@CGraphexView@@QAEXPAVCGraphexDoc@@@Z 0042d545 f   dndc_wizard.obj
 0001:0002d1a9       ?DrawNbalance@CGraphexView@@QAEXPAVCGraphexDoc@@@Z 0042e1a9 f   dndc_wizard.obj
 0001:0002e665       ?GWP@CGraphexView@@QAEXPAVCGraphexDoc@@@Z 0042f665 f   dndc_wizard.obj
 0001:0002ef9a       ?RunWizardMonteCarlo@CGraphexView@@QAEXH@Z 0042ff9a f   dndc_wizard.obj
 0001:0002f722       ?WizardRandomGenerator@@YAHH@Z 00430722 f   dndc_wizard.obj
 0001:0002f775       ?draw_LandUse@CGraphexView@@QAEXPAVCGraphexDoc@@HH@Z 00430775 f   dndc_wizard.obj
 0001:0003015c       ?landuse_color@@YAXMPAH00@Z 0043115c f   dndc_wizard.obj
 0001:00030245       ?find_ha@@YAMJH@Z          00431245 f   dndc_wizard.obj
 0001:000306a0       ??0Dndc_YieldPredict@@QAE@PAVCWnd@@@Z 004316a0 f   Dndc_YieldPredict.obj
 0001:00030761       ?DoDataExchange@Dndc_YieldPredict@@MAEXPAVCDataExchange@@@Z 00431761 f   Dndc_YieldPredict.obj
 0001:0003082e       ?GetMessageMap@Dndc_YieldPredict@@MBEPBUAFX_MSGMAP@@XZ 0043182e f   Dndc_YieldPredict.obj
 0001:00030845       ?OnOK@Dndc_YieldPredict@@MAEXXZ 00431845 f   Dndc_YieldPredict.obj
 0001:00030c3b       ?OnInitDialog@Dndc_YieldPredict@@MAEHXZ 00431c3b f   Dndc_YieldPredict.obj
 0001:00030d5a       ?Ondatabase@Dndc_YieldPredict@@IAEXXZ 00431d5a f   Dndc_YieldPredict.obj
 0001:00030d80       ?OnRadio2@Dndc_YieldPredict@@IAEXXZ 00431d80 f   Dndc_YieldPredict.obj
 0001:00030da6       ?SetGridList@Dndc_YieldPredict@@QAEHH@Z 00431da6 f   Dndc_YieldPredict.obj
 0001:00031130       ??_GDndc_YieldPredict@@UAEPAXI@Z 00432130 f i Dndc_YieldPredict.obj
 0001:00031130       ??_EDndc_YieldPredict@@UAEPAXI@Z 00432130 f i Dndc_YieldPredict.obj
 0001:00031170       ??1Dndc_YieldPredict@@UAE@XZ 00432170 f i Dndc_YieldPredict.obj
 0001:000311d0       ??0DNDCgoing@@QAE@PAVCWnd@@@Z 004321d0 f   DNDCgoing.obj
 0001:0003120b       ?DoDataExchange@DNDCgoing@@MAEXPAVCDataExchange@@@Z 0043220b f   DNDCgoing.obj
 0001:00031235       ?GetMessageMap@DNDCgoing@@MBEPBUAFX_MSGMAP@@XZ 00432235 f   DNDCgoing.obj
 0001:00031250       ??_EDNDCgoing@@UAEPAXI@Z   00432250 f i DNDCgoing.obj
 0001:00031250       ??_GDNDCgoing@@UAEPAXI@Z   00432250 f i DNDCgoing.obj
 0001:00031290       ??1DNDCgoing@@UAE@XZ       00432290 f i DNDCgoing.obj
 0001:00031365       ??0DrawDrought@@QAE@PAVCWnd@@@Z 00432365 f   DrawDrought.obj
 0001:000313a0       ?DoDataExchange@DrawDrought@@MAEXPAVCDataExchange@@@Z 004323a0 f   DrawDrought.obj
 0001:000313ca       ?GetMessageMap@DrawDrought@@MBEPBUAFX_MSGMAP@@XZ 004323ca f   DrawDrought.obj
 0001:000313e1       ?OnInitDialog@DrawDrought@@MAEHXZ 004323e1 f   DrawDrought.obj
 0001:0003140a       ?OnOK@DrawDrought@@MAEXXZ  0043240a f   DrawDrought.obj
 0001:00032d80       ??_EDrawDrought@@UAEPAXI@Z 00433d80 f i DrawDrought.obj
 0001:00032d80       ??_GDrawDrought@@UAEPAXI@Z 00433d80 f i DrawDrought.obj
 0001:00032dc0       ??1DrawDrought@@UAE@XZ     00433dc0 f i DrawDrought.obj
 0001:00032df0       ??0ExtractData@@QAE@PAVCWnd@@@Z 00433df0 f   ExtractData.obj
 0001:00032e8a       ?DoDataExchange@ExtractData@@MAEXPAVCDataExchange@@@Z 00433e8a f   ExtractData.obj
 0001:00032f10       ?GetMessageMap@ExtractData@@MBEPBUAFX_MSGMAP@@XZ 00433f10 f   ExtractData.obj
 0001:00032f27       ?OnSelectFile@ExtractData@@IAEXXZ 00433f27 f   ExtractData.obj
 0001:00033134       ?OnOK@ExtractData@@MAEXXZ  00434134 f   ExtractData.obj
 0001:00033279       ?ReadWrite2@@YAXPADVCString@@11HPAU_iobuf@@H@Z 00434279 f   ExtractData.obj
 0001:00033564       ?ReadWrite@ExtractData@@QAEXXZ 00434564 f   ExtractData.obj
 0001:00033bc0       ?OnDblclkOutputFileList@ExtractData@@IAEXXZ 00434bc0 f   ExtractData.obj
 0001:00033c70       ??_GExtractData@@UAEPAXI@Z 00434c70 f i ExtractData.obj
 0001:00033c70       ??_EExtractData@@UAEPAXI@Z 00434c70 f i ExtractData.obj
 0001:00033cb0       ??1ExtractData@@UAE@XZ     00434cb0 f i ExtractData.obj
 0001:00033d10       ??0GlobeData@@QAE@PAVCWnd@@@Z 00434d10 f   GlobeData.obj
 0001:00033d98       ?DoDataExchange@GlobeData@@MAEXPAVCDataExchange@@@Z 00434d98 f   GlobeData.obj
 0001:00033df1       ?GetMessageMap@GlobeData@@MBEPBUAFX_MSGMAP@@XZ 00434df1 f   GlobeData.obj
 0001:00033e08       ?OnDataFile@GlobeData@@IAEXXZ 00434e08 f   GlobeData.obj
 0001:00034286       ?OnDataCalculate@GlobeData@@IAEXXZ 00435286 f   GlobeData.obj
 0001:00034324       ?N2O_flux@GlobeData@@QAEMMMMMMMMMM@Z 00435324 f   GlobeData.obj
 0001:00034510       ?OnSelchangeContinent@GlobeData@@IAEXXZ 00435510 f   GlobeData.obj
 0001:00034542       ?OnOK@GlobeData@@MAEXXZ    00435542 f   GlobeData.obj
 0001:00035750       ??_EGlobeData@@UAEPAXI@Z   00436750 f i GlobeData.obj
 0001:00035750       ??_GGlobeData@@UAEPAXI@Z   00436750 f i GlobeData.obj
 0001:00035790       ??1GlobeData@@UAE@XZ       00436790 f i GlobeData.obj
 0001:00035810       ??0GlobeDataExtract@@QAE@PAVCWnd@@@Z 00436810 f   GlobeDataExtract.obj
 0001:00035913       ?DoDataExchange@GlobeDataExtract@@MAEXPAVCDataExchange@@@Z 00436913 f   GlobeDataExtract.obj
 0001:000359f7       ?GetMessageMap@GlobeDataExtract@@MBEPBUAFX_MSGMAP@@XZ 004369f7 f   GlobeDataExtract.obj
 0001:00035a0e       ?OnOK@GlobeDataExtract@@MAEXXZ 00436a0e f   GlobeDataExtract.obj
 0001:00035b19       ?DataExtract1@GlobeDataExtract@@QAEXHH@Z 00436b19 f   GlobeDataExtract.obj
 0001:000362aa       ?DataExtract2@GlobeDataExtract@@QAEXHH@Z 004372aa f   GlobeDataExtract.obj
 0001:00038eef       ?OnInitDialog@GlobeDataExtract@@MAEHXZ 00439eef f   GlobeDataExtract.obj
 0001:00038f30       ??_GGlobeDataExtract@@UAEPAXI@Z 00439f30 f i GlobeDataExtract.obj
 0001:00038f30       ??_EGlobeDataExtract@@UAEPAXI@Z 00439f30 f i GlobeDataExtract.obj
 0001:00038f70       ??1GlobeDataExtract@@UAE@XZ 00439f70 f i GlobeDataExtract.obj
 0001:00039123       ??0GlobeMap@@QAE@PAVCWnd@@@Z 0043a123 f   GlobeMap.obj
 0001:000391f3       ?DoDataExchange@GlobeMap@@MAEXPAVCDataExchange@@@Z 0043a1f3 f   GlobeMap.obj
 0001:000392c0       ?GetMessageMap@GlobeMap@@MBEPBUAFX_MSGMAP@@XZ 0043a2c0 f   GlobeMap.obj
 0001:000392d7       ?WorldMapping@GlobeMap@@QAEXHHHH@Z 0043a2d7 f   GlobeMap.obj
 0001:0003aca6       ?CountryColor@@YAXHPAH00@Z 0043bca6 f   GlobeMap.obj
 0001:0003b01f       ?CropColor@@YAXHMPAH00@Z   0043c01f f   GlobeMap.obj
 0001:0003b196       ?SoilColor@@YAXHMPAH00@Z   0043c196 f   GlobeMap.obj
 0001:0003b382       ?ManageColor@@YAXHMPAH00@Z 0043c382 f   GlobeMap.obj
 0001:0003b53b       ?Color1@@YAXMPAH00H@Z      0043c53b f   GlobeMap.obj
 0001:0003b754       ?CheckLimit@@YAXPAH00@Z    0043c754 f   GlobeMap.obj
 0001:0003b7c8       ?RandomGeneratorA@@YAHH@Z  0043c7c8 f   GlobeMap.obj
 0001:0003b81b       ?SoilConvert@@YAXMMMM@Z    0043c81b f   GlobeMap.obj
 0001:0003ba8b       ?OnSelMapFile@GlobeMap@@IAEXXZ 0043ca8b f   GlobeMap.obj
 0001:0003bc9c       ?DrawMap@GlobeMap@@QAEXXZ  0043cc9c f   GlobeMap.obj
 0001:0003c1ca       ?OnDblclkMapFileList@GlobeMap@@IAEXXZ 0043d1ca f   GlobeMap.obj
 0001:0003c279       ?ConvertGlobalClimateToCountry@@YAXHVCString@@@Z 0043d279 f   GlobeMap.obj
 0001:0003c452       ?CalculateSoilDensity@@YAMMM@Z 0043d452 f   GlobeMap.obj
 0001:0003c4e8       ?OnRadio1@GlobeMap@@IAEXXZ 0043d4e8 f   GlobeMap.obj
 0001:0003c514       ?OnRadio2@GlobeMap@@IAEXXZ 0043d514 f   GlobeMap.obj
 0001:0003c540       ?OnRadio3@GlobeMap@@IAEXXZ 0043d540 f   GlobeMap.obj
 0001:0003c56c       ?OnRadio4@GlobeMap@@IAEXXZ 0043d56c f   GlobeMap.obj
 0001:0003c598       ?OnRadio5@GlobeMap@@IAEXXZ 0043d598 f   GlobeMap.obj
 0001:0003c5c4       ?OnRadio6@GlobeMap@@IAEXXZ 0043d5c4 f   GlobeMap.obj
 0001:0003c5f0       ?OnRadio7@GlobeMap@@IAEXXZ 0043d5f0 f   GlobeMap.obj
 0001:0003c61c       ?OnSelchangeItem@GlobeMap@@IAEXXZ 0043d61c f   GlobeMap.obj
 0001:0003c67b       ?OnSelchangeSelectSoil@GlobeMap@@IAEXXZ 0043d67b f   GlobeMap.obj
 0001:0003c6da       ?OnSelchangeSelectManage@GlobeMap@@IAEXXZ 0043d6da f   GlobeMap.obj
 0001:0003c740       ??_GGlobeMap@@UAEPAXI@Z    0043d740 f i GlobeMap.obj
 0001:0003c740       ??_EGlobeMap@@UAEPAXI@Z    0043d740 f i GlobeMap.obj
 0001:0003c780       ??1GlobeMap@@UAE@XZ        0043d780 f i GlobeMap.obj
 0001:0003c820       ??0GlobeResult@@QAE@PAVCWnd@@@Z 0043d820 f   GlobeResult.obj
 0001:0003c85b       ?DoDataExchange@GlobeResult@@MAEXPAVCDataExchange@@@Z 0043d85b f   GlobeResult.obj
 0001:0003c885       ?GetMessageMap@GlobeResult@@MBEPBUAFX_MSGMAP@@XZ 0043d885 f   GlobeResult.obj
 0001:0003c8a0       ??_EGlobeResult@@UAEPAXI@Z 0043d8a0 f i GlobeResult.obj
 0001:0003c8a0       ??_GGlobeResult@@UAEPAXI@Z 0043d8a0 f i GlobeResult.obj
 0001:0003c8e0       ??1GlobeResult@@UAE@XZ     0043d8e0 f i GlobeResult.obj
 0001:0003c910       ?CreateObject@CGraphexDoc@@SGPAVCObject@@XZ 0043d910 f   graphexDoc.obj
 0001:0003c99d       ?GetRuntimeClass@CGraphexDoc@@UBEPAUCRuntimeClass@@XZ 0043d99d f   graphexDoc.obj
 0001:0003c9b4       ?GetMessageMap@CGraphexDoc@@MBEPBUAFX_MSGMAP@@XZ 0043d9b4 f   graphexDoc.obj
 0001:0003c9cb       ??0CGraphexDoc@@IAE@XZ     0043d9cb f   graphexDoc.obj
 0001:0003cb5e       ??1CGraphexDoc@@UAE@XZ     0043db5e f   graphexDoc.obj
 0001:0003ccad       ?OnNewDocument@CGraphexDoc@@UAEHXZ 0043dcad f   graphexDoc.obj
 0001:0003d88a       ?Serialize@CGraphexDoc@@UAEXAAVCArchive@@@Z 0043e88a f   graphexDoc.obj
 0001:0003d8b0       ?DeleteContents@CGraphexDoc@@UAEXXZ 0043e8b0 f   graphexDoc.obj
 0001:0003d8d4       ?ClearAct@CGraphexDoc@@QAEHXZ 0043e8d4 f   graphexDoc.obj
 0001:0003d97b       ?AssertValid@CGraphexDoc@@UBEXXZ 0043e97b f   graphexDoc.obj
 0001:0003d99f       ?Dump@CGraphexDoc@@UBEXAAVCDumpContext@@@Z 0043e99f f   graphexDoc.obj
 0001:0003d9c9       ?OnEditUndo@CGraphexDoc@@IAEXXZ 0043e9c9 f   graphexDoc.obj
 0001:0003da69       ?OnUpdateEditUndo@CGraphexDoc@@IAEXPAVCCmdUI@@@Z 0043ea69 f   graphexDoc.obj
 0001:0003daa8       ?SaveModified@CGraphexDoc@@MAEHXZ 0043eaa8 f   graphexDoc.obj
 0001:0003dad0       ??_ECGraphexDoc@@UAEPAXI@Z 0043ead0 f i graphexDoc.obj
 0001:0003dad0       ??_GCGraphexDoc@@UAEPAXI@Z 0043ead0 f i graphexDoc.obj
 0001:0003dc86       ?CreateObject@CGraphexView@@SGPAVCObject@@XZ 0043ec86 f   graphexView.obj
 0001:0003dd16       ?GetRuntimeClass@CGraphexView@@UBEPAUCRuntimeClass@@XZ 0043ed16 f   graphexView.obj
 0001:0003dd2d       ?GetMessageMap@CGraphexView@@MBEPBUAFX_MSGMAP@@XZ 0043ed2d f   graphexView.obj
 0001:0003dd44       ??0CGraphexView@@IAE@XZ    0043ed44 f   graphexView.obj
 0001:0003df20       ??1CGraphexView@@UAE@XZ    0043ef20 f   graphexView.obj
 0001:0003e0ae       ?PreCreateWindow@CGraphexView@@UAEHAAUtagCREATESTRUCTA@@@Z 0043f0ae f   graphexView.obj
 0001:0003e0fd       ?OnPrepareDC@CGraphexView@@MAEXPAVCDC@@PAUCPrintInfo@@@Z 0043f0fd f   graphexView.obj
 0001:0003e19e       ?OnDraw@CGraphexView@@UAEXPAVCDC@@@Z 0043f19e f   graphexView.obj
 0001:0003eaa9       ?AssertValid@CGraphexView@@UBEXXZ 0043faa9 f   graphexView.obj
 0001:0003eacd       ?Dump@CGraphexView@@UBEXAAVCDumpContext@@@Z 0043facd f   graphexView.obj
 0001:0003eaf7       ?GetDocument@CGraphexView@@QAEPAVCGraphexDoc@@XZ 0043faf7 f   graphexView.obj
 0001:0003eb4d       ?OnMouseMove@CGraphexView@@IAEXIVCPoint@@@Z 0043fb4d f   graphexView.obj
 0001:0003eb61       ?OnLButtonUp@CGraphexView@@IAEXIVCPoint@@@Z 0043fb61 f   graphexView.obj
 0001:0003eb75       ?OnIfRedarwAll@CGraphexView@@IAEXXZ 0043fb75 f   graphexView.obj
 0001:0003ebf3       ?OnUpdateIfRedarwAll@CGraphexView@@IAEXPAVCCmdUI@@@Z 0043fbf3 f   graphexView.obj
 0001:0003ec5b       ?OnKeyDown@CGraphexView@@IAEXIII@Z 0043fc5b f   graphexView.obj
 0001:0003eccb       ?OnIfStop@CGraphexView@@IAEXXZ 0043fccb f   graphexView.obj
 0001:0003ed26       ?OnIfPause@CGraphexView@@IAEXXZ 0043fd26 f   graphexView.obj
 0001:0003edc0       ?OnUpdateIfPause@CGraphexView@@IAEXPAVCCmdUI@@@Z 0043fdc0 f   graphexView.obj
 0001:0003ee28       ?OnIfDoOneTime@CGraphexView@@IAEXXZ 0043fe28 f   graphexView.obj
 0001:0003ee7a       ?OnInputSite@CGraphexView@@IAEXXZ 0043fe7a f   graphexView.obj
 0001:0003f35b       ?OnSize@CGraphexView@@IAEXIHH@Z 0044035b f   graphexView.obj
 0001:0003f4e8       ?OnViewModifycolorscale@CGraphexView@@IAEXXZ 004404e8 f   graphexView.obj
 0001:0003f4fa       ?OnCropPropertyDB@CGraphexView@@IAEXXZ 004404fa f   graphexView.obj
 0001:0003f50c       ?OnRButtonDown@CGraphexView@@IAEXIVCPoint@@@Z 0044050c f   graphexView.obj
 0001:0003f54b       ?OnInputRegion@CGraphexView@@IAEXXZ 0044054b f   graphexView.obj
 0001:0003f637       ?OnMapping@CGraphexView@@IAEXXZ 00440637 f   graphexView.obj
 0001:0003f649       ?OnSelectState@CGraphexView@@IAEXXZ 00440649 f   graphexView.obj
 0001:0003f6ea       ?OnSelectCounty@CGraphexView@@IAEXXZ 004406ea f   graphexView.obj
 0001:0003f83f       ?OnMonteCarlo@CGraphexView@@IAEXXZ 0044083f f   graphexView.obj
 0001:0003f8c5       ?OnDrawFlux@CGraphexView@@IAEXXZ 004408c5 f   graphexView.obj
 0001:0003f8d7       ?OnRegion@CGraphexView@@IAEXXZ 004408d7 f   graphexView.obj
 0001:0003f8e9       ?OnDrawMap@CGraphexView@@IAEXXZ 004408e9 f   graphexView.obj
 0001:0003f8fb       ?OnMCresult@CGraphexView@@IAEXXZ 004408fb f   graphexView.obj
 0001:0003fd1f       ?find_sector@CGraphexView@@QAEXHM@Z 00440d1f f   graphexView.obj
 0001:0003fe3c       ?DrawFrequency@CGraphexView@@QAEXPAVCGraphexDoc@@@Z 00440e3c f   graphexView.obj
 0001:00040260       ?OnExit@CGraphexView@@IAEXXZ 00441260 f   graphexView.obj
 0001:00040283       ?OnWizardSelectCounty@CGraphexView@@IAEXXZ 00441283 f   graphexView.obj
 0001:000403a0       ?OnMapCrops@CGraphexView@@IAEXXZ 004413a0 f   graphexView.obj
 0001:00040408       ?OnMapCorn@CGraphexView@@IAEXXZ 00441408 f   graphexView.obj
 0001:00040470       ?OnWWheat@CGraphexView@@IAEXXZ 00441470 f   graphexView.obj
 0001:000404d8       ?OnSWheat@CGraphexView@@IAEXXZ 004414d8 f   graphexView.obj
 0001:00040540       ?OnSunflower@CGraphexView@@IAEXXZ 00441540 f   graphexView.obj
 0001:000405a8       ?OnSugarcane@CGraphexView@@IAEXXZ 004415a8 f   graphexView.obj
 0001:00040610       ?OnSoybean@CGraphexView@@IAEXXZ 00441610 f   graphexView.obj
 0001:00040678       ?OnSorghum@CGraphexView@@IAEXXZ 00441678 f   graphexView.obj
 0001:000406e0       ?OnBarley@CGraphexView@@IAEXXZ 004416e0 f   graphexView.obj
 0001:00040748       ?OnBeet@CGraphexView@@IAEXXZ 00441748 f   graphexView.obj
 0001:000407b0       ?OnCotton@CGraphexView@@IAEXXZ 004417b0 f   graphexView.obj
 0001:00040818       ?OnLegumeHay@CGraphexView@@IAEXXZ 00441818 f   graphexView.obj
 0001:00040880       ?OnNonlegumehay@CGraphexView@@IAEXXZ 00441880 f   graphexView.obj
 0001:000408e8       ?OnOats@CGraphexView@@IAEXXZ 004418e8 f   graphexView.obj
 0001:00040950       ?OnPeanut@CGraphexView@@IAEXXZ 00441950 f   graphexView.obj
 0001:000409b8       ?OnPineapple@CGraphexView@@IAEXXZ 004419b8 f   graphexView.obj
 0001:00040a20       ?OnPotato@CGraphexView@@IAEXXZ 00441a20 f   graphexView.obj
 0001:00040a88       ?OnRice@CGraphexView@@IAEXXZ 00441a88 f   graphexView.obj
 0001:00040af0       ?OnTobacco@CGraphexView@@IAEXXZ 00441af0 f   graphexView.obj
 0001:00040b58       ?OnVegetable@CGraphexView@@IAEXXZ 00441b58 f   graphexView.obj
 0001:00040bc0       ?OnWizardSelectCrop@CGraphexView@@IAEXXZ 00441bc0 f   graphexView.obj
 0001:00040bd2       ?OnResultReview@CGraphexView@@IAEXXZ 00441bd2 f   graphexView.obj
 0001:00040c5c       ?OnResultRecord@CGraphexView@@IAEXXZ 00441c5c f   graphexView.obj
 0001:00040c6e       ?OnUncertainty@CGraphexView@@IAEXXZ 00441c6e f   graphexView.obj
 0001:00040cf4       ?OnLButtonDown@CGraphexView@@IAEXIVCPoint@@@Z 00441cf4 f   graphexView.obj
 0001:00040d4d       ?OnRunUncertainty@CGraphexView@@IAEXXZ 00441d4d f   graphexView.obj
 0001:00040de5       ?OnMsf@CGraphexView@@IAEXXZ 00441de5 f   graphexView.obj
 0001:00040e7d       ?ShowMapValue@CGraphexView@@QAEXPAVCGraphexDoc@@VCPoint@@@Z 00441e7d f   graphexView.obj
 0001:00040e91       ?ReadDatafromFile_NG@@YAXPAD@Z 00441e91 f   graphexView.obj
 0001:00040e96       ?OnRegionInput@CGraphexView@@IAEXXZ 00441e96 f   graphexView.obj
 0001:00040f1c       ?OnRegionRun@CGraphexView@@IAEXXZ 00441f1c f   graphexView.obj
 0001:00040f40       ?OnESreview@CGraphexView@@IAEXXZ 00441f40 f   graphexView.obj
 0001:00040fca       ?JulDay@@YAHHH@Z           00441fca f   graphexView.obj
 0001:00041099       ?OnRegionMap@CGraphexView@@IAEXXZ 00442099 f   graphexView.obj
 0001:0004112f       ?OnCreateCrop@CGraphexView@@IAEXXZ 0044212f f   graphexView.obj
 0001:000411b9       ?OnExtractData@CGraphexView@@IAEXXZ 004421b9 f   graphexView.obj
 0001:0004123f       ?OnWizardMonteCarlo@CGraphexView@@IAEXXZ 0044223f f   graphexView.obj
 0001:000412e9       ?OnSiteResult@CGraphexView@@IAEXXZ 004422e9 f   graphexView.obj
 0001:0004130d       ?OnGlobeMap@CGraphexView@@IAEXXZ 0044230d f   graphexView.obj
 0001:00041393       ?OnGlobeData@CGraphexView@@IAEXXZ 00442393 f   graphexView.obj
 0001:00041419       ?OnMapCounty@CGraphexView@@IAEXXZ 00442419 f   graphexView.obj
 0001:00041a61       ?OnInitialUpdate@CGraphexView@@UAEXXZ 00442a61 f   graphexView.obj
 0001:00041a85       ?Onconvert@CGraphexView@@IAEXXZ 00442a85 f   graphexView.obj
 0001:00041a97       ?OnMapView@CGraphexView@@IAEXXZ 00442a97 f   graphexView.obj
 0001:00041cf2       ?OnBatch@CGraphexView@@IAEXXZ 00442cf2 f   graphexView.obj
 0001:00042614       ?OnSiteParameter@CGraphexView@@IAEXXZ 00443614 f   graphexView.obj
 0001:00042b1c       ?OnMapLayer@CGraphexView@@IAEXXZ 00443b1c f   graphexView.obj
 0001:00043c56       ?OnConvertData@CGraphexView@@IAEXXZ 00444c56 f   graphexView.obj
 0001:0004487a       ?OnConvert1@CGraphexView@@IAEXXZ 0044587a f   graphexView.obj
 0001:00045c57       ?OnConvert2@CGraphexView@@IAEXXZ 00446c57 f   graphexView.obj
 0001:0004613b       ?OnConvert3@CGraphexView@@IAEXXZ 0044713b f   graphexView.obj
 0001:0004658d       ?OnConvert4@CGraphexView@@IAEXXZ 0044758d f   graphexView.obj
 0001:00046947       ?OnConvert5@CGraphexView@@IAEXXZ 00447947 f   graphexView.obj
 0001:0004df8e       ?OnConvert6@CGraphexView@@IAEXXZ 0044ef8e f   graphexView.obj
 0001:0004e014       ?OnSoilDensity@CGraphexView@@IAEXXZ 0044f014 f   graphexView.obj
 0001:0004e3fd       ?OnGlobe5@CGraphexView@@IAEXXZ 0044f3fd f   graphexView.obj
 0001:0004f79f       ?OnConvert7@CGraphexView@@IAEXXZ 0045079f f   graphexView.obj
 0001:00052dcd       ?On5min30min@CGraphexView@@IAEXXZ 00453dcd f   graphexView.obj
 0001:00053358       ?On5minSOIL30minSOIL@CGraphexView@@IAEXXZ 00454358 f   graphexView.obj
 0001:00053ad1       ?OnUSAdata@CGraphexView@@IAEXXZ 00454ad1 f   graphexView.obj
 0001:00053de1       ?OnDndc1@CGraphexView@@IAEXXZ 00454de1 f   graphexView.obj
 0001:000548f3       ?OnDndcMap@CGraphexView@@IAEXXZ 004558f3 f   graphexView.obj
 0001:00054979       ?OnDay1snow@CGraphexView@@IAEXXZ 00455979 f   graphexView.obj
 0001:00054cfc       ?OnCombineFiles@CGraphexView@@IAEXXZ 00455cfc f   graphexView.obj
 0001:00054d82       ?OnExtractNation@CGraphexView@@IAEXXZ 00455d82 f   graphexView.obj
 0001:00054e08       ?OnRegionData@CGraphexView@@IAEXXZ 00455e08 f   graphexView.obj
 0001:00054e2c       ?OnRunMonteCarlo@CGraphexView@@IAEXXZ 00455e2c f   graphexView.obj
 0001:00055272       ?OnConvertClimateData@CGraphexView@@IAEXXZ 00456272 f   graphexView.obj
 0001:00055429       ?OnSnowPack@CGraphexView@@IAEXXZ 00456429 f   graphexView.obj
 0001:000558c6       ?OnRunSite@CGraphexView@@IAEXHH@Z 004568c6 f   graphexView.obj
 0001:00055b8a       ?OnRunRegion@CGraphexView@@IAEXXZ 00456b8a f   graphexView.obj
 0001:00055d22       ?OnSiteModeTest@CGraphexView@@IAEXXZ 00456d22 f   graphexView.obj
 0001:00055daf       ?OnGlobeDataProcess@CGraphexView@@IAEXXZ 00456daf f   graphexView.obj
 0001:00055dd3       ?OnYieldPredict@CGraphexView@@IAEXXZ 00456dd3 f   graphexView.obj
 0001:0005609f       ?OnYieldShow@CGraphexView@@IAEXXZ 0045709f f   graphexView.obj
 0001:00056110       ?OnLiaoning@CGraphexView@@IAEXXZ 00457110 f   graphexView.obj
 0001:000561fc       ?OnYieldReSet@CGraphexView@@IAEXXZ 004571fc f   graphexView.obj
 0001:00056282       ?OnSaveSoilFile@CGraphexView@@IAEXXZ 00457282 f   graphexView.obj
 0001:00056340       ??_GCGraphexView@@UAEPAXI@Z 00457340 f i graphexView.obj
 0001:00056340       ??_ECGraphexView@@UAEPAXI@Z 00457340 f i graphexView.obj
 0001:00056380       ??0CFileStatus@@QAE@XZ     00457380 f i graphexView.obj
 0001:000563c0       ??1RegionInput@@UAE@XZ     004573c0 f i graphexView.obj
 0001:000564c0       ??1MonteCarloRegionSelect@@UAE@XZ 004574c0 f i graphexView.obj
 0001:000565c0       ??1MonteCarlo@@UAE@XZ      004575c0 f i graphexView.obj
 0001:00056660       ??1WizardResult@@UAE@XZ    00457660 f i graphexView.obj
 0001:000566f0       ??1WizardUncertainty@@UAE@XZ 004576f0 f i graphexView.obj
 0001:000567c0       ??1NewCrop@@UAE@XZ         004577c0 f i graphexView.obj
 0001:00056870       ??1SelectShapeMap@@UAE@XZ  00457870 f i graphexView.obj
 0001:000568d0       ?SetMapPath@CSelectRegionDlg@@QAEXVCString@@@Z 004578d0 f i graphexView.obj
 0001:00056940       ??1ScreenMonitor@@UAE@XZ   00457940 f i graphexView.obj
 0001:00056970       ??1MonteCarloParameters@@UAE@XZ 00457970 f i graphexView.obj
 0001:000569a0       ??1MapLayer@@UAE@XZ        004579a0 f i graphexView.obj
 0001:00056a00       ??1CombineFiles@@UAE@XZ    00457a00 f i graphexView.obj
 0001:00056a70       ??1SaveSoilYear@@UAE@XZ    00457a70 f i graphexView.obj
 0001:00056ad0       ??0Help_AutoFert@@QAE@PAVCWnd@@@Z 00457ad0 f   Help_AutoFert.obj
 0001:00056b0b       ?DoDataExchange@Help_AutoFert@@MAEXPAVCDataExchange@@@Z 00457b0b f   Help_AutoFert.obj
 0001:00056b35       ?GetMessageMap@Help_AutoFert@@MBEPBUAFX_MSGMAP@@XZ 00457b35 f   Help_AutoFert.obj
 0001:00056b50       ??_GHelp_AutoFert@@UAEPAXI@Z 00457b50 f i Help_AutoFert.obj
 0001:00056b50       ??_EHelp_AutoFert@@UAEPAXI@Z 00457b50 f i Help_AutoFert.obj
 0001:00056b90       ??1Help_AutoFert@@UAE@XZ   00457b90 f i Help_AutoFert.obj
 0001:00056c1b       ??0CListFile@@QAE@PAVCWnd@@@Z 00457c1b f   ListFile.obj
 0001:00056c8e       ?DoDataExchange@CListFile@@MAEXPAVCDataExchange@@@Z 00457c8e f   ListFile.obj
 0001:00056ccd       ?GetMessageMap@CListFile@@MBEPBUAFX_MSGMAP@@XZ 00457ccd f   ListFile.obj
 0001:00056ce4       ?OnSelClimateFileB@CListFile@@IAEXXZ 00457ce4 f   ListFile.obj
 0001:00056efc       ?OnOK@CListFile@@MAEXXZ    00457efc f   ListFile.obj
 0001:00057000       ??_GCListFile@@UAEPAXI@Z   00458000 f i ListFile.obj
 0001:00057000       ??_ECListFile@@UAEPAXI@Z   00458000 f i ListFile.obj
 0001:00057040       ??1CListFile@@UAE@XZ       00458040 f i ListFile.obj
 0001:000570a0       ?CreateObject@CMainFrame@@SGPAVCObject@@XZ 004580a0 f   MainFrm.obj
 0001:0005712d       ?GetRuntimeClass@CMainFrame@@UBEPAUCRuntimeClass@@XZ 0045812d f   MainFrm.obj
 0001:00057144       ?GetMessageMap@CMainFrame@@MBEPBUAFX_MSGMAP@@XZ 00458144 f   MainFrm.obj
 0001:0005715b       ??0CMainFrame@@IAE@XZ      0045815b f   MainFrm.obj
 0001:000571ea       ??1CMainFrame@@UAE@XZ      004581ea f   MainFrm.obj
 0001:00057276       ?OnCreate@CMainFrame@@IAEHPAUtagCREATESTRUCTA@@@Z 00458276 f   MainFrm.obj
 0001:000573c4       ?SetDatabaseBar@CMainFrame@@QAEHXZ 004583c4 f   MainFrm.obj
 0001:000573d8       ?PreCreateWindow@CMainFrame@@UAEHAAUtagCREATESTRUCTA@@@Z 004583d8 f   MainFrm.obj
 0001:0005740f       ?AssertValid@CMainFrame@@UBEXXZ 0045840f f   MainFrm.obj
 0001:00057433       ?Dump@CMainFrame@@UBEXAAVCDumpContext@@@Z 00458433 f   MainFrm.obj
 0001:0005745d       ?OnUpdateMousePos@CMainFrame@@QAEXPAVCCmdUI@@@Z 0045845d f   MainFrm.obj
 0001:00057492       ?SetDoc@CMainFrame@@QAEXVCString@@@Z 00458492 f   MainFrm.obj
 0001:00057580       ?OnAppExit@CMainFrame@@IAEXXZ 00458580 f   MainFrm.obj
 0001:000575b0       ??_ECMainFrame@@UAEPAXI@Z  004585b0 f i MainFrm.obj
 0001:000575b0       ??_GCMainFrame@@UAEPAXI@Z  004585b0 f i MainFrm.obj
 0001:000575f0       ??0ManureApplication@@QAE@PAVCWnd@@@Z 004585f0 f   ManureApplication.obj
 0001:0005762b       ?DoDataExchange@ManureApplication@@MAEXPAVCDataExchange@@@Z 0045862b f   ManureApplication.obj
 0001:00057655       ?GetMessageMap@ManureApplication@@MBEPBUAFX_MSGMAP@@XZ 00458655 f   ManureApplication.obj
 0001:00057670       ??_GManureApplication@@UAEPAXI@Z 00458670 f i ManureApplication.obj
 0001:00057670       ??_EManureApplication@@UAEPAXI@Z 00458670 f i ManureApplication.obj
 0001:000576b0       ??1ManureApplication@@UAE@XZ 004586b0 f i ManureApplication.obj
 0001:000576e0       ??0ManureCompost@@QAE@PAVCWnd@@@Z 004586e0 f   ManureCompost.obj
 0001:0005776b       ?DoDataExchange@ManureCompost@@MAEXPAVCDataExchange@@@Z 0045876b f   ManureCompost.obj
 0001:0005783d       ?GetMessageMap@ManureCompost@@MBEPBUAFX_MSGMAP@@XZ 0045883d f   ManureCompost.obj
 0001:00057854       ?OnOK@ManureCompost@@MAEXXZ 00458854 f   ManureCompost.obj
 0001:00057ac9       ?OnInitDialog@ManureCompost@@MAEHXZ 00458ac9 f   ManureCompost.obj
 0001:00057ce9       ?Onunit@ManureCompost@@IAEXXZ 00458ce9 f   ManureCompost.obj
 0001:00057e40       ?Onunit2@ManureCompost@@IAEXXZ 00458e40 f   ManureCompost.obj
 0001:00057fa0       ??_GManureCompost@@UAEPAXI@Z 00458fa0 f i ManureCompost.obj
 0001:00057fa0       ??_EManureCompost@@UAEPAXI@Z 00458fa0 f i ManureCompost.obj
 0001:00057fe0       ??1ManureCompost@@UAE@XZ   00458fe0 f i ManureCompost.obj
 0001:00058010       ?CreateObject@ManureCycle@@SGPAVCObject@@XZ 00459010 f   ManureCycle.obj
 0001:0005809d       ?GetRuntimeClass@ManureCycle@@UBEPAUCRuntimeClass@@XZ 0045909d f   ManureCycle.obj
 0001:000580b4       ??0ManureCycle@@QAE@XZ     004590b4 f   ManureCycle.obj
 0001:00058145       ??1ManureCycle@@UAE@XZ     00459145 f   ManureCycle.obj
 0001:000581bf       ?DoDataExchange@ManureCycle@@MAEXPAVCDataExchange@@@Z 004591bf f   ManureCycle.obj
 0001:00058201       ?GetMessageMap@ManureCycle@@MBEPBUAFX_MSGMAP@@XZ 00459201 f   ManureCycle.obj
 0001:00058218       ?OnHouse@ManureCycle@@IAEXXZ 00459218 f   ManureCycle.obj
 0001:00058512       ?OnGrazing@ManureCycle@@IAEXXZ 00459512 f   ManureCycle.obj
 0001:0005868f       ?OnLagoon@ManureCycle@@IAEXXZ 0045968f f   ManureCycle.obj
 0001:0005880c       ?OnCompost@ManureCycle@@IAEXXZ 0045980c f   ManureCycle.obj
 0001:00058989       ?OnDigester@ManureCycle@@IAEXXZ 00459989 f   ManureCycle.obj
 0001:00058afd       ?OnField@ManureCycle@@IAEXXZ 00459afd f   ManureCycle.obj
 0001:00058c6b       ?OnInitDialog@ManureCycle@@MAEHXZ 00459c6b f   ManureCycle.obj
 0001:00058db6       ?OnCtlColor@ManureCycle@@IAEPAUHBRUSH__@@PAVCDC@@PAVCWnd@@I@Z 00459db6 f   ManureCycle.obj
 0001:00058e55       ?OnStorage@ManureCycle@@IAEXXZ 00459e55 f   ManureCycle.obj
 0001:00058ec9       ?OnSilo@ManureCycle@@IAEXXZ 00459ec9 f   ManureCycle.obj
 0001:00058f4f       ?Onunit@ManureCycle@@IAEXXZ 00459f4f f   ManureCycle.obj
 0001:0005901f       ?Onunit2@ManureCycle@@IAEXXZ 0045a01f f   ManureCycle.obj
 0001:000590f0       ??_GManureCycle@@UAEPAXI@Z 0045a0f0 f i ManureCycle.obj
 0001:000590f0       ??_EManureCycle@@UAEPAXI@Z 0045a0f0 f i ManureCycle.obj
 0001:00059130       ??1ManureHousing@@UAE@XZ   0045a130 f i ManureCycle.obj
 0001:000591b0       ??1ManurePen@@UAE@XZ       0045a1b0 f i ManureCycle.obj
 0001:00059220       ??1ManureGrazing@@UAE@XZ   0045a220 f i ManureCycle.obj
 0001:00059290       ??1ManureLagoon@@UAE@XZ    0045a290 f i ManureCycle.obj
 0001:000592c0       ??1ManureDigester@@UAE@XZ  0045a2c0 f i ManureCycle.obj
 0001:000592f0       ??1ManureField@@UAE@XZ     0045a2f0 f i ManureCycle.obj
 0001:00059320       ??1ManureSilo@@UAE@XZ      0045a320 f i ManureCycle.obj
 0001:00059350       ??0ManureDigester@@QAE@PAVCWnd@@@Z 0045a350 f   ManureDigester.obj
 0001:000593b3       ?DoDataExchange@ManureDigester@@MAEXPAVCDataExchange@@@Z 0045a3b3 f   ManureDigester.obj
 0001:00059431       ?GetMessageMap@ManureDigester@@MBEPBUAFX_MSGMAP@@XZ 0045a431 f   ManureDigester.obj
 0001:00059448       ?OnOK@ManureDigester@@MAEXXZ 0045a448 f   ManureDigester.obj
 0001:0005967e       ?OnInitDialog@ManureDigester@@MAEHXZ 0045a67e f   ManureDigester.obj
 0001:00059920       ??_EManureDigester@@UAEPAXI@Z 0045a920 f i ManureDigester.obj
 0001:00059920       ??_GManureDigester@@UAEPAXI@Z 0045a920 f i ManureDigester.obj
 0001:00059960       ??0ManureField@@QAE@PAVCWnd@@@Z 0045a960 f   ManureField.obj
 0001:000599af       ?DoDataExchange@ManureField@@MAEXPAVCDataExchange@@@Z 0045a9af f   ManureField.obj
 0001:00059a03       ?GetMessageMap@ManureField@@MBEPBUAFX_MSGMAP@@XZ 0045aa03 f   ManureField.obj
 0001:00059a1a       ?OnOK@ManureField@@MAEXXZ  0045aa1a f   ManureField.obj
 0001:00059b62       ?OnInitDialog@ManureField@@MAEHXZ 0045ab62 f   ManureField.obj
 0001:00059d1e       ?Onunit@ManureField@@IAEXXZ 0045ad1e f   ManureField.obj
 0001:00059dfb       ?Onunit2@ManureField@@IAEXXZ 0045adfb f   ManureField.obj
 0001:00059ee0       ??_EManureField@@UAEPAXI@Z 0045aee0 f i ManureField.obj
 0001:00059ee0       ??_GManureField@@UAEPAXI@Z 0045aee0 f i ManureField.obj
 0001:00059f20       ??0ManureGrazing@@QAE@PAVCWnd@@@Z 0045af20 f   ManureGrazing.obj
 0001:0005a027       ?DoDataExchange@ManureGrazing@@MAEXPAVCDataExchange@@@Z 0045b027 f   ManureGrazing.obj
 0001:0005a16a       ?GetMessageMap@ManureGrazing@@MBEPBUAFX_MSGMAP@@XZ 0045b16a f   ManureGrazing.obj
 0001:0005a181       ?OnNext@ManureGrazing@@IAEXXZ 0045b181 f   ManureGrazing.obj
 0001:0005a318       ?OnLast@ManureGrazing@@IAEXXZ 0045b318 f   ManureGrazing.obj
 0001:0005a4a2       ?OnSelStockFile@ManureGrazing@@IAEXXZ 0045b4a2 f   ManureGrazing.obj
 0001:0005a6af       ?OnOK@ManureGrazing@@MAEXXZ 0045b6af f   ManureGrazing.obj
 0001:0005a936       ?OnInitDialog@ManureGrazing@@MAEHXZ 0045b936 f   ManureGrazing.obj
 0001:0005ab90       ??_EManureGrazing@@UAEPAXI@Z 0045bb90 f i ManureGrazing.obj
 0001:0005ab90       ??_GManureGrazing@@UAEPAXI@Z 0045bb90 f i ManureGrazing.obj
 0001:0005abd0       ??0ManureHousing@@QAE@PAVCWnd@@@Z 0045bbd0 f   ManureHousing.obj
 0001:0005adfa       ?DoDataExchange@ManureHousing@@MAEXPAVCDataExchange@@@Z 0045bdfa f   ManureHousing.obj
 0001:0005b146       ?GetMessageMap@ManureHousing@@MBEPBUAFX_MSGMAP@@XZ 0045c146 f   ManureHousing.obj
 0001:0005b15d       ?OnSelStockFile@ManureHousing@@IAEXXZ 0045c15d f   ManureHousing.obj
 0001:0005b379       ?OnOK@ManureHousing@@MAEXXZ 0045c379 f   ManureHousing.obj
 0001:0005b473       ?OnInitDialog@ManureHousing@@MAEHXZ 0045c473 f   ManureHousing.obj
 0001:0005b5ab       ?SetIniPara@ManureHousing@@QAEXXZ 0045c5ab f   ManureHousing.obj
 0001:0005bebf       ?OnStock2@ManureHousing@@IAEXXZ 0045cebf f   ManureHousing.obj
 0001:0005bf80       ?OnStock1@ManureHousing@@IAEXXZ 0045cf80 f   ManureHousing.obj
 0001:0005c041       ?OnFeeds@ManureHousing@@IAEXXZ 0045d041 f   ManureHousing.obj
 0001:0005c1cf       ?OnUpdateTp@ManureHousing@@IAEXXZ 0045d1cf f   ManureHousing.obj
 0001:0005c1e1       ?Onunit2@ManureHousing@@IAEXXZ 0045d1e1 f   ManureHousing.obj
 0001:0005c4f1       ?Onunit@ManureHousing@@IAEXXZ 0045d4f1 f   ManureHousing.obj
 0001:0005c801       ?SaveFeedlot@ManureHousing@@QAEXXZ 0045d801 f   ManureHousing.obj
 0001:0005cd0a       ?OnSelectIndoorClimate@ManureHousing@@IAEXXZ 0045dd0a f   ManureHousing.obj
 0001:0005cf34       ?OnDblclkStockFileList@ManureHousing@@IAEXXZ 0045df34 f   ManureHousing.obj
 0001:0005cfe3       ?OnDblclkIndoorClimateFile@ManureHousing@@IAEXXZ 0045dfe3 f   ManureHousing.obj
 0001:0005d086       ?OnMove2@ManureHousing@@IAEXXZ 0045e086 f   ManureHousing.obj
 0001:0005d10d       ?OnMove1@ManureHousing@@IAEXXZ 0045e10d f   ManureHousing.obj
 0001:0005d187       ?OnFeedYr2@ManureHousing@@IAEXXZ 0045e187 f   ManureHousing.obj
 0001:0005d20e       ?OnFeedYr1@ManureHousing@@IAEXXZ 0045e20e f   ManureHousing.obj
 0001:0005d290       ??_EManureHousing@@UAEPAXI@Z 0045e290 f i ManureHousing.obj
 0001:0005d290       ??_GManureHousing@@UAEPAXI@Z 0045e290 f i ManureHousing.obj
 0001:0005d2d0       ??0ManureLagoon@@QAE@PAVCWnd@@@Z 0045e2d0 f   ManureLagoon.obj
 0001:0005d365       ?DoDataExchange@ManureLagoon@@MAEXPAVCDataExchange@@@Z 0045e365 f   ManureLagoon.obj
 0001:0005d44c       ?GetMessageMap@ManureLagoon@@MBEPBUAFX_MSGMAP@@XZ 0045e44c f   ManureLagoon.obj
 0001:0005d463       ?OnOK@ManureLagoon@@MAEXXZ 0045e463 f   ManureLagoon.obj
 0001:0005d6db       ?OnInitDialog@ManureLagoon@@MAEHXZ 0045e6db f   ManureLagoon.obj
 0001:0005d902       ?Onunit@ManureLagoon@@IAEXXZ 0045e902 f   ManureLagoon.obj
 0001:0005da59       ?Onunit2@ManureLagoon@@IAEXXZ 0045ea59 f   ManureLagoon.obj
 0001:0005dbb0       ??_EManureLagoon@@UAEPAXI@Z 0045ebb0 f i ManureLagoon.obj
 0001:0005dbb0       ??_GManureLagoon@@UAEPAXI@Z 0045ebb0 f i ManureLagoon.obj
 0001:0005dbf0       ??0ManurePen@@QAE@PAVCWnd@@@Z 0045ebf0 f   ManurePen.obj
 0001:0005dd93       ?DoDataExchange@ManurePen@@MAEXPAVCDataExchange@@@Z 0045ed93 f   ManurePen.obj
 0001:0005dff2       ?GetMessageMap@ManurePen@@MBEPBUAFX_MSGMAP@@XZ 0045eff2 f   ManurePen.obj
 0001:0005e009       ?OnOK@ManurePen@@MAEXXZ    0045f009 f   ManurePen.obj
 0001:0005e5ad       ?OnSelStockFile@ManurePen@@IAEXXZ 0045f5ad f   ManurePen.obj
 0001:0005e7ba       ?OnInitDialog@ManurePen@@MAEHXZ 0045f7ba f   ManurePen.obj
 0001:0005efb6       ?OnStock1@ManurePen@@IAEXXZ 0045ffb6 f   ManurePen.obj
 0001:0005f05d       ?OnStock2@ManurePen@@IAEXXZ 0046005d f   ManurePen.obj
 0001:0005f104       ?Onunit@ManurePen@@IAEXXZ  00460104 f   ManurePen.obj
 0001:0005f3fc       ?Onunit2@ManurePen@@IAEXXZ 004603fc f   ManurePen.obj
 0001:0005f700       ??_GManurePen@@UAEPAXI@Z   00460700 f i ManurePen.obj
 0001:0005f700       ??_EManurePen@@UAEPAXI@Z   00460700 f i ManurePen.obj
 0001:0005f740       ??0ManureSilo@@QAE@PAVCWnd@@@Z 00460740 f   ManureSilo.obj
 0001:0005f7d5       ?DoDataExchange@ManureSilo@@MAEXPAVCDataExchange@@@Z 004607d5 f   ManureSilo.obj
 0001:0005f8bc       ?GetMessageMap@ManureSilo@@MBEPBUAFX_MSGMAP@@XZ 004608bc f   ManureSilo.obj
 0001:0005f8d3       ?OnOK@ManureSilo@@MAEXXZ   004608d3 f   ManureSilo.obj
 0001:0005fa30       ??_EManureSilo@@UAEPAXI@Z  00460a30 f i ManureSilo.obj
 0001:0005fa30       ??_GManureSilo@@UAEPAXI@Z  00460a30 f i ManureSilo.obj
 0001:0005fa70       ??0MapLayer@@QAE@PAVCWnd@@@Z 00460a70 f   MapLayer.obj
 0001:0005fae3       ?DoDataExchange@MapLayer@@MAEXPAVCDataExchange@@@Z 00460ae3 f   MapLayer.obj
 0001:0005fb22       ?GetMessageMap@MapLayer@@MBEPBUAFX_MSGMAP@@XZ 00460b22 f   MapLayer.obj
 0001:0005fb39       ?OnSelectFile@MapLayer@@IAEXXZ 00460b39 f   MapLayer.obj
 0001:0005fd67       ?OnOK@MapLayer@@MAEXXZ     00460d67 f   MapLayer.obj
 0001:0005fe70       ??_EMapLayer@@UAEPAXI@Z    00460e70 f i MapLayer.obj
 0001:0005fe70       ??_GMapLayer@@UAEPAXI@Z    00460e70 f i MapLayer.obj
 0001:0005feb0       ??0MapSelect@@QAE@PAVCWnd@@@Z 00460eb0 f   MapSelect.obj
 0001:0005ff56       ?DoDataExchange@MapSelect@@MAEXPAVCDataExchange@@@Z 00460f56 f   MapSelect.obj
 0001:0005ffaa       ?GetMessageMap@MapSelect@@MBEPBUAFX_MSGMAP@@XZ 00460faa f   MapSelect.obj
 0001:0005ffc1       ?OnOK@MapSelect@@MAEXXZ    00460fc1 f   MapSelect.obj
 0001:000600e0       ??_EMapSelect@@UAEPAXI@Z   004610e0 f i MapSelect.obj
 0001:000600e0       ??_GMapSelect@@UAEPAXI@Z   004610e0 f i MapSelect.obj
 0001:00060120       ??1MapSelect@@UAE@XZ       00461120 f i MapSelect.obj
 0001:00060190       ??0MonteCarlo@@QAE@PAVCWnd@@@Z 00461190 f   MonteCarlo.obj
 0001:00060299       ?DoDataExchange@MonteCarlo@@MAEXPAVCDataExchange@@@Z 00461299 f   MonteCarlo.obj
 0001:00060339       ?GetMessageMap@MonteCarlo@@MBEPBUAFX_MSGMAP@@XZ 00461339 f   MonteCarlo.obj
 0001:00060350       ?Ondata@MonteCarlo@@IAEXXZ 00461350 f   MonteCarlo.obj
 0001:00060bf0       ?OnOK@MonteCarlo@@MAEXXZ   00461bf0 f   MonteCarlo.obj
 0001:00060e39       ?RunMonteCarlo@CGraphexView@@QAEXH@Z 00461e39 f   MonteCarlo.obj
 0001:00061850       ??_EMonteCarlo@@UAEPAXI@Z  00462850 f i MonteCarlo.obj
 0001:00061850       ??_GMonteCarlo@@UAEPAXI@Z  00462850 f i MonteCarlo.obj
 0001:00061890       ??0MonteCarloNote@@QAE@PAVCWnd@@@Z 00462890 f   MonteCarloNote.obj
 0001:000618cb       ?DoDataExchange@MonteCarloNote@@MAEXPAVCDataExchange@@@Z 004628cb f   MonteCarloNote.obj
 0001:000618f5       ?GetMessageMap@MonteCarloNote@@MBEPBUAFX_MSGMAP@@XZ 004628f5 f   MonteCarloNote.obj
 0001:00061910       ??_EMonteCarloNote@@UAEPAXI@Z 00462910 f i MonteCarloNote.obj
 0001:00061910       ??_GMonteCarloNote@@UAEPAXI@Z 00462910 f i MonteCarloNote.obj
 0001:00061950       ??1MonteCarloNote@@UAE@XZ  00462950 f i MonteCarloNote.obj
 0001:00061980       ??0MonteCarloParameters@@QAE@PAVCWnd@@@Z 00462980 f   MonteCarloParameters.obj
 0001:00061ef5       ?DoDataExchange@MonteCarloParameters@@MAEXPAVCDataExchange@@@Z 00462ef5 f   MonteCarloParameters.obj
 0001:000628bc       ?GetMessageMap@MonteCarloParameters@@MBEPBUAFX_MSGMAP@@XZ 004638bc f   MonteCarloParameters.obj
 0001:000628d3       ?OnInitDialog@MonteCarloParameters@@MAEHXZ 004638d3 f   MonteCarloParameters.obj
 0001:00062e92       ?OnConfirm@MonteCarloParameters@@IAEXXZ 00463e92 f   MonteCarloParameters.obj
 0001:00063c1e       ?OnOK@MonteCarloParameters@@MAEXXZ 00464c1e f   MonteCarloParameters.obj
 0001:00064c40       ??_EMonteCarloParameters@@UAEPAXI@Z 00465c40 f i MonteCarloParameters.obj
 0001:00064c40       ??_GMonteCarloParameters@@UAEPAXI@Z 00465c40 f i MonteCarloParameters.obj
 0001:00064c80       ??0MonteCarloRegionSelect@@QAE@PAVCWnd@@@Z 00465c80 f   MonteCarloRegionSelect.obj
 0001:00064f0f       ?DoDataExchange@MonteCarloRegionSelect@@MAEXPAVCDataExchange@@@Z 00465f0f f   MonteCarloRegionSelect.obj
 0001:000651fc       ?GetMessageMap@MonteCarloRegionSelect@@MBEPBUAFX_MSGMAP@@XZ 004661fc f   MonteCarloRegionSelect.obj
 0001:00065213       ?OnSelectIndexFile@MonteCarloRegionSelect@@IAEXXZ 00466213 f   MonteCarloRegionSelect.obj
 0001:000657d8       ?OnSelchangeCountyNames@MonteCarloRegionSelect@@IAEXXZ 004667d8 f   MonteCarloRegionSelect.obj
 0001:00065dcd       ?OnOK@MonteCarloRegionSelect@@MAEXXZ 00466dcd f   MonteCarloRegionSelect.obj
 0001:000662e9       ?OnSelectIndexFile2@MonteCarloRegionSelect@@IAEXXZ 004672e9 f   MonteCarloRegionSelect.obj
 0001:000664f7       ?OnSelchangeWizardCrops@MonteCarloRegionSelect@@IAEXXZ 004674f7 f   MonteCarloRegionSelect.obj
 0001:00066d93       ?OnDblclkIndexFile@MonteCarloRegionSelect@@IAEXXZ 00467d93 f   MonteCarloRegionSelect.obj
 0001:00066e42       ?OnDblclkWizardCrops@MonteCarloRegionSelect@@IAEXXZ 00467e42 f   MonteCarloRegionSelect.obj
 0001:00066e54       ?OnDblclkClimateFileLocation@MonteCarloRegionSelect@@IAEXXZ 00467e54 f   MonteCarloRegionSelect.obj
 0001:00066f00       ??_EMonteCarloRegionSelect@@UAEPAXI@Z 00467f00 f i MonteCarloRegionSelect.obj
 0001:00066f00       ??_GMonteCarloRegionSelect@@UAEPAXI@Z 00467f00 f i MonteCarloRegionSelect.obj
 0001:00066f40       ?GetCount@_Collection@@QAEJXZ 00467f40 f   msado15.obj
 0001:00066f80       ?Refresh@_Collection@@QAEXXZ 00467f80 f   msado15.obj
 0001:00066fb2       ?GetCount@_DynaCollection@@QAEJXZ 00467fb2 f   msado15.obj
 0001:00066ff2       ?Refresh@_DynaCollection@@QAEXXZ 00467ff2 f   msado15.obj
 0001:00067024       ?Append@_DynaCollection@@QAEXPAUIDispatch@@@Z 00468024 f   msado15.obj
 0001:00067062       ?Delete@_DynaCollection@@QAEXABUtagVARIANT@@@Z 00468062 f   msado15.obj
 0001:000670a0       ?GetProperties@_ADO@@QAEPAUIDispatch@@XZ 004680a0 f   msado15.obj
 0001:000670e3       ?GetCount@Properties@@QAEJXZ 004680e3 f   msado15.obj
 0001:00067123       ?Refresh@Properties@@QAEXXZ 00468123 f   msado15.obj
 0001:00067155       ?GetItem@Properties@@QAEPAUIDispatch@@ABUtagVARIANT@@@Z 00468155 f   msado15.obj
 0001:0006719e       ?GetValue@Property@@QAE?AUtagVARIANT@@XZ 0046819e f   msado15.obj
 0001:00067200       ?SetValue@Property@@QAEXABUtagVARIANT@@@Z 00468200 f   msado15.obj
 0001:0006723b       ?GetName@Property@@QAE?AVCString@@XZ 0046823b f   msado15.obj
 0001:000672dc       ?GetType@Property@@QAEJXZ  004682dc f   msado15.obj
 0001:0006731f       ?GetAttributes@Property@@QAEJXZ 0046831f f   msado15.obj
 0001:00067362       ?SetAttributes@Property@@QAEXJ@Z 00468362 f   msado15.obj
 0001:000673a0       ?GetNumber@Error@@QAEJXZ   004683a0 f   msado15.obj
 0001:000673e0       ?GetSource@Error@@QAE?AVCString@@XZ 004683e0 f   msado15.obj
 0001:0006747e       ?GetDescription@Error@@QAE?AVCString@@XZ 0046847e f   msado15.obj
 0001:0006751c       ?GetHelpFile@Error@@QAE?AVCString@@XZ 0046851c f   msado15.obj
 0001:000675ba       ?GetHelpContext@Error@@QAEJXZ 004685ba f   msado15.obj
 0001:000675fa       ?GetSQLState@Error@@QAE?AVCString@@XZ 004685fa f   msado15.obj
 0001:00067698       ?GetNativeError@Error@@QAEJXZ 00468698 f   msado15.obj
 0001:000676d8       ?GetCount@Errors@@QAEJXZ   004686d8 f   msado15.obj
 0001:00067718       ?Refresh@Errors@@QAEXXZ    00468718 f   msado15.obj
 0001:0006774a       ?GetItem@Errors@@QAEPAUIDispatch@@ABUtagVARIANT@@@Z 0046874a f   msado15.obj
 0001:00067793       ?Clear@Errors@@QAEXXZ      00468793 f   msado15.obj
 0001:000677c8       ?GetProperties@Command15@@QAEPAUIDispatch@@XZ 004687c8 f   msado15.obj
 0001:0006780b       ?GetActiveConnection@Command15@@QAEPAUIDispatch@@XZ 0046880b f   msado15.obj
 0001:0006784b       ?SetRefActiveConnection@Command15@@QAEXPAUIDispatch@@@Z 0046884b f   msado15.obj
 0001:00067886       ?SetActiveConnection@Command15@@QAEXABUtagVARIANT@@@Z 00468886 f   msado15.obj
 0001:000678c1       ?GetCommandText@Command15@@QAE?AVCString@@XZ 004688c1 f   msado15.obj
 0001:0006795f       ?SetCommandText@Command15@@QAEXPBD@Z 0046895f f   msado15.obj
 0001:0006799a       ?GetCommandTimeout@Command15@@QAEJXZ 0046899a f   msado15.obj
 0001:000679da       ?SetCommandTimeout@Command15@@QAEXJ@Z 004689da f   msado15.obj
 0001:00067a15       ?GetPrepared@Command15@@QAEHXZ 00468a15 f   msado15.obj
 0001:00067a55       ?SetPrepared@Command15@@QAEXH@Z 00468a55 f   msado15.obj
 0001:00067a90       ?Execute@Command15@@QAEPAUIDispatch@@PAUtagVARIANT@@0J@Z 00468a90 f   msado15.obj
 0001:00067ae1       ?CreateParameter@Command15@@QAEPAUIDispatch@@PBDJJJABUtagVARIANT@@@Z 00468ae1 f   msado15.obj
 0001:00067b3a       ?GetParameters@Command15@@QAEPAUIDispatch@@XZ 00468b3a f   msado15.obj
 0001:00067b7a       ?SetCommandType@Command15@@QAEXJ@Z 00468b7a f   msado15.obj
 0001:00067bb5       ?GetCommandType@Command15@@QAEJXZ 00468bb5 f   msado15.obj
 0001:00067bf5       ?GetName@Command15@@QAE?AVCString@@XZ 00468bf5 f   msado15.obj
 0001:00067c93       ?SetName@Command15@@QAEXPBD@Z 00468c93 f   msado15.obj
 0001:00067cce       ?GetProperties@_Connection@@QAEPAUIDispatch@@XZ 00468cce f   msado15.obj
 0001:00067d11       ?GetConnectionString@_Connection@@QAE?AVCString@@XZ 00468d11 f   msado15.obj
 0001:00067daf       ?SetConnectionString@_Connection@@QAEXPBD@Z 00468daf f   msado15.obj
 0001:00067dea       ?GetCommandTimeout@_Connection@@QAEJXZ 00468dea f   msado15.obj
 0001:00067e2a       ?SetCommandTimeout@_Connection@@QAEXJ@Z 00468e2a f   msado15.obj
 0001:00067e65       ?GetConnectionTimeout@_Connection@@QAEJXZ 00468e65 f   msado15.obj
 0001:00067ea5       ?SetConnectionTimeout@_Connection@@QAEXJ@Z 00468ea5 f   msado15.obj
 0001:00067ee0       ?GetVersion@_Connection@@QAE?AVCString@@XZ 00468ee0 f   msado15.obj
 0001:00067f7e       ?Close@_Connection@@QAEXXZ 00468f7e f   msado15.obj
 0001:00067fb0       ?Execute@_Connection@@QAEPAUIDispatch@@PBDPAUtagVARIANT@@J@Z 00468fb0 f   msado15.obj
 0001:00068001       ?BeginTrans@_Connection@@QAEJXZ 00469001 f   msado15.obj
 0001:00068041       ?CommitTrans@_Connection@@QAEXXZ 00469041 f   msado15.obj
 0001:00068073       ?RollbackTrans@_Connection@@QAEXXZ 00469073 f   msado15.obj
 0001:000680a5       ?Open@_Connection@@QAEXPBD00J@Z 004690a5 f   msado15.obj
 0001:000680ec       ?GetErrors@_Connection@@QAEPAUIDispatch@@XZ 004690ec f   msado15.obj
 0001:0006812c       ?GetDefaultDatabase@_Connection@@QAE?AVCString@@XZ 0046912c f   msado15.obj
 0001:000681ca       ?SetDefaultDatabase@_Connection@@QAEXPBD@Z 004691ca f   msado15.obj
 0001:00068205       ?GetIsolationLevel@_Connection@@QAEJXZ 00469205 f   msado15.obj
 0001:00068245       ?SetIsolationLevel@_Connection@@QAEXJ@Z 00469245 f   msado15.obj
 0001:00068280       ?GetAttributes@_Connection@@QAEJXZ 00469280 f   msado15.obj
 0001:000682c0       ?SetAttributes@_Connection@@QAEXJ@Z 004692c0 f   msado15.obj
 0001:000682fb       ?GetCursorLocation@_Connection@@QAEJXZ 004692fb f   msado15.obj
 0001:0006833b       ?SetCursorLocation@_Connection@@QAEXJ@Z 0046933b f   msado15.obj
 0001:00068376       ?GetMode@_Connection@@QAEJXZ 00469376 f   msado15.obj
 0001:000683b6       ?SetMode@_Connection@@QAEXJ@Z 004693b6 f   msado15.obj
 0001:000683f1       ?GetProvider@_Connection@@QAE?AVCString@@XZ 004693f1 f   msado15.obj
 0001:0006848f       ?SetProvider@_Connection@@QAEXPBD@Z 0046948f f   msado15.obj
 0001:000684ca       ?GetState@_Connection@@QAEJXZ 004694ca f   msado15.obj
 0001:0006850a       ?OpenSchema@_Connection@@QAEPAUIDispatch@@JABUtagVARIANT@@0@Z 0046950a f   msado15.obj
 0001:0006855b       ?Cancel@_Connection@@QAEXXZ 0046955b f   msado15.obj
 0001:0006858d       ?GetProperties@Connection15@@QAEPAUIDispatch@@XZ 0046958d f   msado15.obj
 0001:000685d0       ?GetConnectionString@Connection15@@QAE?AVCString@@XZ 004695d0 f   msado15.obj
 0001:0006866e       ?SetConnectionString@Connection15@@QAEXPBD@Z 0046966e f   msado15.obj
 0001:000686a9       ?GetCommandTimeout@Connection15@@QAEJXZ 004696a9 f   msado15.obj
 0001:000686e9       ?SetCommandTimeout@Connection15@@QAEXJ@Z 004696e9 f   msado15.obj
 0001:00068724       ?GetConnectionTimeout@Connection15@@QAEJXZ 00469724 f   msado15.obj
 0001:00068764       ?SetConnectionTimeout@Connection15@@QAEXJ@Z 00469764 f   msado15.obj
 0001:0006879f       ?GetVersion@Connection15@@QAE?AVCString@@XZ 0046979f f   msado15.obj
 0001:0006883d       ?Close@Connection15@@QAEXXZ 0046983d f   msado15.obj
 0001:0006886f       ?Execute@Connection15@@QAEPAUIDispatch@@PBDPAUtagVARIANT@@J@Z 0046986f f   msado15.obj
 0001:000688c0       ?BeginTrans@Connection15@@QAEJXZ 004698c0 f   msado15.obj
 0001:00068900       ?CommitTrans@Connection15@@QAEXXZ 00469900 f   msado15.obj
 0001:00068932       ?RollbackTrans@Connection15@@QAEXXZ 00469932 f   msado15.obj
 0001:00068964       ?Open@Connection15@@QAEXPBD00J@Z 00469964 f   msado15.obj
 0001:000689ab       ?GetErrors@Connection15@@QAEPAUIDispatch@@XZ 004699ab f   msado15.obj
 0001:000689eb       ?GetDefaultDatabase@Connection15@@QAE?AVCString@@XZ 004699eb f   msado15.obj
 0001:00068a89       ?SetDefaultDatabase@Connection15@@QAEXPBD@Z 00469a89 f   msado15.obj
 0001:00068ac4       ?GetIsolationLevel@Connection15@@QAEJXZ 00469ac4 f   msado15.obj
 0001:00068b04       ?SetIsolationLevel@Connection15@@QAEXJ@Z 00469b04 f   msado15.obj
 0001:00068b3f       ?GetAttributes@Connection15@@QAEJXZ 00469b3f f   msado15.obj
 0001:00068b7f       ?SetAttributes@Connection15@@QAEXJ@Z 00469b7f f   msado15.obj
 0001:00068bba       ?GetCursorLocation@Connection15@@QAEJXZ 00469bba f   msado15.obj
 0001:00068bfa       ?SetCursorLocation@Connection15@@QAEXJ@Z 00469bfa f   msado15.obj
 0001:00068c35       ?GetMode@Connection15@@QAEJXZ 00469c35 f   msado15.obj
 0001:00068c75       ?SetMode@Connection15@@QAEXJ@Z 00469c75 f   msado15.obj
 0001:00068cb0       ?GetProvider@Connection15@@QAE?AVCString@@XZ 00469cb0 f   msado15.obj
 0001:00068d4e       ?SetProvider@Connection15@@QAEXPBD@Z 00469d4e f   msado15.obj
 0001:00068d89       ?GetState@Connection15@@QAEJXZ 00469d89 f   msado15.obj
 0001:00068dc9       ?OpenSchema@Connection15@@QAEPAUIDispatch@@JABUtagVARIANT@@0@Z 00469dc9 f   msado15.obj
 0001:00068e1a       ?GetProperties@_Recordset@@QAEPAUIDispatch@@XZ 00469e1a f   msado15.obj
 0001:00068e5d       ?GetAbsolutePosition@_Recordset@@QAEJXZ 00469e5d f   msado15.obj
 0001:00068ea0       ?SetAbsolutePosition@_Recordset@@QAEXJ@Z 00469ea0 f   msado15.obj
 0001:00068ede       ?SetRefActiveConnection@_Recordset@@QAEXPAUIDispatch@@@Z 00469ede f   msado15.obj
 0001:00068f1c       ?SetActiveConnection@_Recordset@@QAEXABUtagVARIANT@@@Z 00469f1c f   msado15.obj
 0001:00068f5a       ?GetActiveConnection@_Recordset@@QAE?AUtagVARIANT@@XZ 00469f5a f   msado15.obj
 0001:00068fbf       ?GetBof@_Recordset@@QAEHXZ 00469fbf f   msado15.obj
 0001:00069002       ?GetBookmark@_Recordset@@QAE?AUtagVARIANT@@XZ 0046a002 f   msado15.obj
 0001:00069067       ?SetBookmark@_Recordset@@QAEXABUtagVARIANT@@@Z 0046a067 f   msado15.obj
 0001:000690a5       ?GetCacheSize@_Recordset@@QAEJXZ 0046a0a5 f   msado15.obj
 0001:000690e8       ?SetCacheSize@_Recordset@@QAEXJ@Z 0046a0e8 f   msado15.obj
 0001:00069126       ?GetCursorType@_Recordset@@QAEJXZ 0046a126 f   msado15.obj
 0001:00069169       ?SetCursorType@_Recordset@@QAEXJ@Z 0046a169 f   msado15.obj
 0001:000691a7       ?GetEof@_Recordset@@QAEHXZ 0046a1a7 f   msado15.obj
 0001:000691ea       ?GetFields@_Recordset@@QAEPAUIDispatch@@XZ 0046a1ea f   msado15.obj
 0001:0006922a       ?GetLockType@_Recordset@@QAEJXZ 0046a22a f   msado15.obj
 0001:0006926d       ?SetLockType@_Recordset@@QAEXJ@Z 0046a26d f   msado15.obj
 0001:000692ab       ?GetMaxRecords@_Recordset@@QAEJXZ 0046a2ab f   msado15.obj
 0001:000692ee       ?SetMaxRecords@_Recordset@@QAEXJ@Z 0046a2ee f   msado15.obj
 0001:0006932c       ?GetRecordCount@_Recordset@@QAEJXZ 0046a32c f   msado15.obj
 0001:0006936f       ?SetRefSource@_Recordset@@QAEXPAUIDispatch@@@Z 0046a36f f   msado15.obj
 0001:000693ad       ?SetSource@_Recordset@@QAEXPBD@Z 0046a3ad f   msado15.obj
 0001:000693eb       ?GetSource@_Recordset@@QAE?AUtagVARIANT@@XZ 0046a3eb f   msado15.obj
 0001:00069450       ?AddNew@_Recordset@@QAEXABUtagVARIANT@@0@Z 0046a450 f   msado15.obj
 0001:00069492       ?CancelUpdate@_Recordset@@QAEXXZ 0046a492 f   msado15.obj
 0001:000694c7       ?Close@_Recordset@@QAEXXZ  0046a4c7 f   msado15.obj
 0001:000694fc       ?Delete@_Recordset@@QAEXJ@Z 0046a4fc f   msado15.obj
 0001:0006953a       ?GetRows@_Recordset@@QAE?AUtagVARIANT@@JABU2@0@Z 0046a53a f   msado15.obj
 0001:000695ae       ?Move@_Recordset@@QAEXJABUtagVARIANT@@@Z 0046a5ae f   msado15.obj
 0001:000695f0       ?MoveNext@_Recordset@@QAEXXZ 0046a5f0 f   msado15.obj
 0001:00069625       ?MovePrevious@_Recordset@@QAEXXZ 0046a625 f   msado15.obj
 0001:0006965a       ?MoveFirst@_Recordset@@QAEXXZ 0046a65a f   msado15.obj
 0001:0006968f       ?MoveLast@_Recordset@@QAEXXZ 0046a68f f   msado15.obj
 0001:000696c4       ?Open@_Recordset@@QAEXABUtagVARIANT@@0JJJ@Z 0046a6c4 f   msado15.obj
 0001:00069712       ?Requery@_Recordset@@QAEXJ@Z 0046a712 f   msado15.obj
 0001:00069750       ?Update@_Recordset@@QAEXABUtagVARIANT@@0@Z 0046a750 f   msado15.obj
 0001:00069792       ?GetAbsolutePage@_Recordset@@QAEJXZ 0046a792 f   msado15.obj
 0001:000697d5       ?SetAbsolutePage@_Recordset@@QAEXJ@Z 0046a7d5 f   msado15.obj
 0001:00069813       ?GetEditMode@_Recordset@@QAEJXZ 0046a813 f   msado15.obj
 0001:00069856       ?GetFilter@_Recordset@@QAE?AUtagVARIANT@@XZ 0046a856 f   msado15.obj
 0001:000698bb       ?SetFilter@_Recordset@@QAEXABUtagVARIANT@@@Z 0046a8bb f   msado15.obj
 0001:000698f9       ?GetPageCount@_Recordset@@QAEJXZ 0046a8f9 f   msado15.obj
 0001:0006993c       ?GetPageSize@_Recordset@@QAEJXZ 0046a93c f   msado15.obj
 0001:0006997f       ?SetPageSize@_Recordset@@QAEXJ@Z 0046a97f f   msado15.obj
 0001:000699bd       ?GetSort@_Recordset@@QAE?AVCString@@XZ 0046a9bd f   msado15.obj
 0001:00069a5e       ?SetSort@_Recordset@@QAEXPBD@Z 0046aa5e f   msado15.obj
 0001:00069a9c       ?GetStatus@_Recordset@@QAEJXZ 0046aa9c f   msado15.obj
 0001:00069adf       ?GetState@_Recordset@@QAEJXZ 0046aadf f   msado15.obj
 0001:00069b22       ?UpdateBatch@_Recordset@@QAEXJ@Z 0046ab22 f   msado15.obj
 0001:00069b60       ?CancelBatch@_Recordset@@QAEXJ@Z 0046ab60 f   msado15.obj
 0001:00069b9e       ?GetCursorLocation@_Recordset@@QAEJXZ 0046ab9e f   msado15.obj
 0001:00069be1       ?SetCursorLocation@_Recordset@@QAEXJ@Z 0046abe1 f   msado15.obj
 0001:00069c1f       ?NextRecordset@_Recordset@@QAEPAUIDispatch@@PAUtagVARIANT@@@Z 0046ac1f f   msado15.obj
 0001:00069c6b       ?Supports@_Recordset@@QAEHJ@Z 0046ac6b f   msado15.obj
 0001:00069cb7       ?GetMarshalOptions@_Recordset@@QAEJXZ 0046acb7 f   msado15.obj
 0001:00069cfa       ?SetMarshalOptions@_Recordset@@QAEXJ@Z 0046acfa f   msado15.obj
 0001:00069d38       ?Find@_Recordset@@QAEXPBDJJABUtagVARIANT@@@Z 0046ad38 f   msado15.obj
 0001:00069d82       ?Cancel@_Recordset@@QAEXXZ 0046ad82 f   msado15.obj
 0001:00069db7       ?GetDataSource@_Recordset@@QAEPAUIUnknown@@XZ 0046adb7 f   msado15.obj
 0001:00069dfa       ?SetRefDataSource@_Recordset@@QAEXPAUIUnknown@@@Z 0046adfa f   msado15.obj
 0001:00069e38       ?GetActiveCommand@_Recordset@@QAEPAUIDispatch@@XZ 0046ae38 f   msado15.obj
 0001:00069e7b       ?SetStayInSync@_Recordset@@QAEXH@Z 0046ae7b f   msado15.obj
 0001:00069eb9       ?GetStayInSync@_Recordset@@QAEHXZ 0046aeb9 f   msado15.obj
 0001:00069efc       ?GetString@_Recordset@@QAE?AVCString@@JJPBD00@Z 0046aefc f   msado15.obj
 0001:00069fb5       ?GetDataMember@_Recordset@@QAE?AVCString@@XZ 0046afb5 f   msado15.obj
 0001:0006a056       ?SetDataMember@_Recordset@@QAEXPBD@Z 0046b056 f   msado15.obj
 0001:0006a094       ?CompareBookmarks@_Recordset@@QAEJABUtagVARIANT@@0@Z 0046b094 f   msado15.obj
 0001:0006a0e4       ?Clone@_Recordset@@QAEPAUIDispatch@@J@Z 0046b0e4 f   msado15.obj
 0001:0006a130       ?Resync@_Recordset@@QAEXJJ@Z 0046b130 f   msado15.obj
 0001:0006a172       ?Seek@_Recordset@@QAEXABUtagVARIANT@@J@Z 0046b172 f   msado15.obj
 0001:0006a1b4       ?SetIndex@_Recordset@@QAEXPBD@Z 0046b1b4 f   msado15.obj
 0001:0006a1f2       ?GetIndex@_Recordset@@QAE?AVCString@@XZ 0046b1f2 f   msado15.obj
 0001:0006a293       ?Save@_Recordset@@QAEXABUtagVARIANT@@J@Z 0046b293 f   msado15.obj
 0001:0006a2d5       ?GetProperties@Recordset21@@QAEPAUIDispatch@@XZ 0046b2d5 f   msado15.obj
 0001:0006a318       ?GetAbsolutePosition@Recordset21@@QAEJXZ 0046b318 f   msado15.obj
 0001:0006a35b       ?SetAbsolutePosition@Recordset21@@QAEXJ@Z 0046b35b f   msado15.obj
 0001:0006a399       ?SetRefActiveConnection@Recordset21@@QAEXPAUIDispatch@@@Z 0046b399 f   msado15.obj
 0001:0006a3d7       ?SetActiveConnection@Recordset21@@QAEXABUtagVARIANT@@@Z 0046b3d7 f   msado15.obj
 0001:0006a415       ?GetActiveConnection@Recordset21@@QAE?AUtagVARIANT@@XZ 0046b415 f   msado15.obj
 0001:0006a47a       ?GetBof@Recordset21@@QAEHXZ 0046b47a f   msado15.obj
 0001:0006a4bd       ?GetBookmark@Recordset21@@QAE?AUtagVARIANT@@XZ 0046b4bd f   msado15.obj
 0001:0006a522       ?SetBookmark@Recordset21@@QAEXABUtagVARIANT@@@Z 0046b522 f   msado15.obj
 0001:0006a560       ?GetCacheSize@Recordset21@@QAEJXZ 0046b560 f   msado15.obj
 0001:0006a5a3       ?SetCacheSize@Recordset21@@QAEXJ@Z 0046b5a3 f   msado15.obj
 0001:0006a5e1       ?GetCursorType@Recordset21@@QAEJXZ 0046b5e1 f   msado15.obj
 0001:0006a624       ?SetCursorType@Recordset21@@QAEXJ@Z 0046b624 f   msado15.obj
 0001:0006a662       ?GetEof@Recordset21@@QAEHXZ 0046b662 f   msado15.obj
 0001:0006a6a5       ?GetFields@Recordset21@@QAEPAUIDispatch@@XZ 0046b6a5 f   msado15.obj
 0001:0006a6e5       ?GetLockType@Recordset21@@QAEJXZ 0046b6e5 f   msado15.obj
 0001:0006a728       ?SetLockType@Recordset21@@QAEXJ@Z 0046b728 f   msado15.obj
 0001:0006a766       ?GetMaxRecords@Recordset21@@QAEJXZ 0046b766 f   msado15.obj
 0001:0006a7a9       ?SetMaxRecords@Recordset21@@QAEXJ@Z 0046b7a9 f   msado15.obj
 0001:0006a7e7       ?GetRecordCount@Recordset21@@QAEJXZ 0046b7e7 f   msado15.obj
 0001:0006a82a       ?SetRefSource@Recordset21@@QAEXPAUIDispatch@@@Z 0046b82a f   msado15.obj
 0001:0006a868       ?SetSource@Recordset21@@QAEXPBD@Z 0046b868 f   msado15.obj
 0001:0006a8a6       ?GetSource@Recordset21@@QAE?AUtagVARIANT@@XZ 0046b8a6 f   msado15.obj
 0001:0006a90b       ?AddNew@Recordset21@@QAEXABUtagVARIANT@@0@Z 0046b90b f   msado15.obj
 0001:0006a94d       ?CancelUpdate@Recordset21@@QAEXXZ 0046b94d f   msado15.obj
 0001:0006a982       ?Close@Recordset21@@QAEXXZ 0046b982 f   msado15.obj
 0001:0006a9b7       ?Delete@Recordset21@@QAEXJ@Z 0046b9b7 f   msado15.obj
 0001:0006a9f5       ?GetRows@Recordset21@@QAE?AUtagVARIANT@@JABU2@0@Z 0046b9f5 f   msado15.obj
 0001:0006aa69       ?Move@Recordset21@@QAEXJABUtagVARIANT@@@Z 0046ba69 f   msado15.obj
 0001:0006aaab       ?MoveNext@Recordset21@@QAEXXZ 0046baab f   msado15.obj
 0001:0006aae0       ?MovePrevious@Recordset21@@QAEXXZ 0046bae0 f   msado15.obj
 0001:0006ab15       ?MoveFirst@Recordset21@@QAEXXZ 0046bb15 f   msado15.obj
 0001:0006ab4a       ?MoveLast@Recordset21@@QAEXXZ 0046bb4a f   msado15.obj
 0001:0006ab7f       ?Open@Recordset21@@QAEXABUtagVARIANT@@0JJJ@Z 0046bb7f f   msado15.obj
 0001:0006abcd       ?Requery@Recordset21@@QAEXJ@Z 0046bbcd f   msado15.obj
 0001:0006ac0b       ?Update@Recordset21@@QAEXABUtagVARIANT@@0@Z 0046bc0b f   msado15.obj
 0001:0006ac4d       ?GetAbsolutePage@Recordset21@@QAEJXZ 0046bc4d f   msado15.obj
 0001:0006ac90       ?SetAbsolutePage@Recordset21@@QAEXJ@Z 0046bc90 f   msado15.obj
 0001:0006acce       ?GetEditMode@Recordset21@@QAEJXZ 0046bcce f   msado15.obj
 0001:0006ad11       ?GetFilter@Recordset21@@QAE?AUtagVARIANT@@XZ 0046bd11 f   msado15.obj
 0001:0006ad76       ?SetFilter@Recordset21@@QAEXABUtagVARIANT@@@Z 0046bd76 f   msado15.obj
 0001:0006adb4       ?GetPageCount@Recordset21@@QAEJXZ 0046bdb4 f   msado15.obj
 0001:0006adf7       ?GetPageSize@Recordset21@@QAEJXZ 0046bdf7 f   msado15.obj
 0001:0006ae3a       ?SetPageSize@Recordset21@@QAEXJ@Z 0046be3a f   msado15.obj
 0001:0006ae78       ?GetSort@Recordset21@@QAE?AVCString@@XZ 0046be78 f   msado15.obj
 0001:0006af19       ?SetSort@Recordset21@@QAEXPBD@Z 0046bf19 f   msado15.obj
 0001:0006af57       ?GetStatus@Recordset21@@QAEJXZ 0046bf57 f   msado15.obj
 0001:0006af9a       ?GetState@Recordset21@@QAEJXZ 0046bf9a f   msado15.obj
 0001:0006afdd       ?UpdateBatch@Recordset21@@QAEXJ@Z 0046bfdd f   msado15.obj
 0001:0006b01b       ?CancelBatch@Recordset21@@QAEXJ@Z 0046c01b f   msado15.obj
 0001:0006b059       ?GetCursorLocation@Recordset21@@QAEJXZ 0046c059 f   msado15.obj
 0001:0006b09c       ?SetCursorLocation@Recordset21@@QAEXJ@Z 0046c09c f   msado15.obj
 0001:0006b0da       ?NextRecordset@Recordset21@@QAEPAUIDispatch@@PAUtagVARIANT@@@Z 0046c0da f   msado15.obj
 0001:0006b126       ?Supports@Recordset21@@QAEHJ@Z 0046c126 f   msado15.obj
 0001:0006b172       ?GetMarshalOptions@Recordset21@@QAEJXZ 0046c172 f   msado15.obj
 0001:0006b1b5       ?SetMarshalOptions@Recordset21@@QAEXJ@Z 0046c1b5 f   msado15.obj
 0001:0006b1f3       ?Find@Recordset21@@QAEXPBDJJABUtagVARIANT@@@Z 0046c1f3 f   msado15.obj
 0001:0006b23d       ?Cancel@Recordset21@@QAEXXZ 0046c23d f   msado15.obj
 0001:0006b272       ?GetDataSource@Recordset21@@QAEPAUIUnknown@@XZ 0046c272 f   msado15.obj
 0001:0006b2b5       ?SetRefDataSource@Recordset21@@QAEXPAUIUnknown@@@Z 0046c2b5 f   msado15.obj
 0001:0006b2f3       ?GetActiveCommand@Recordset21@@QAEPAUIDispatch@@XZ 0046c2f3 f   msado15.obj
 0001:0006b336       ?SetStayInSync@Recordset21@@QAEXH@Z 0046c336 f   msado15.obj
 0001:0006b374       ?GetStayInSync@Recordset21@@QAEHXZ 0046c374 f   msado15.obj
 0001:0006b3b7       ?GetString@Recordset21@@QAE?AVCString@@JJPBD00@Z 0046c3b7 f   msado15.obj
 0001:0006b470       ?GetDataMember@Recordset21@@QAE?AVCString@@XZ 0046c470 f   msado15.obj
 0001:0006b511       ?SetDataMember@Recordset21@@QAEXPBD@Z 0046c511 f   msado15.obj
 0001:0006b54f       ?CompareBookmarks@Recordset21@@QAEJABUtagVARIANT@@0@Z 0046c54f f   msado15.obj
 0001:0006b59f       ?Clone@Recordset21@@QAEPAUIDispatch@@J@Z 0046c59f f   msado15.obj
 0001:0006b5eb       ?Resync@Recordset21@@QAEXJJ@Z 0046c5eb f   msado15.obj
 0001:0006b62d       ?Seek@Recordset21@@QAEXABUtagVARIANT@@J@Z 0046c62d f   msado15.obj
 0001:0006b66f       ?SetIndex@Recordset21@@QAEXPBD@Z 0046c66f f   msado15.obj
 0001:0006b6ad       ?GetIndex@Recordset21@@QAE?AVCString@@XZ 0046c6ad f   msado15.obj
 0001:0006b74e       ?GetProperties@Recordset20@@QAEPAUIDispatch@@XZ 0046c74e f   msado15.obj
 0001:0006b791       ?GetAbsolutePosition@Recordset20@@QAEJXZ 0046c791 f   msado15.obj
 0001:0006b7d4       ?SetAbsolutePosition@Recordset20@@QAEXJ@Z 0046c7d4 f   msado15.obj
 0001:0006b812       ?SetRefActiveConnection@Recordset20@@QAEXPAUIDispatch@@@Z 0046c812 f   msado15.obj
 0001:0006b850       ?SetActiveConnection@Recordset20@@QAEXABUtagVARIANT@@@Z 0046c850 f   msado15.obj
 0001:0006b88e       ?GetActiveConnection@Recordset20@@QAE?AUtagVARIANT@@XZ 0046c88e f   msado15.obj
 0001:0006b8f3       ?GetBof@Recordset20@@QAEHXZ 0046c8f3 f   msado15.obj
 0001:0006b936       ?GetBookmark@Recordset20@@QAE?AUtagVARIANT@@XZ 0046c936 f   msado15.obj
 0001:0006b99b       ?SetBookmark@Recordset20@@QAEXABUtagVARIANT@@@Z 0046c99b f   msado15.obj
 0001:0006b9d9       ?GetCacheSize@Recordset20@@QAEJXZ 0046c9d9 f   msado15.obj
 0001:0006ba1c       ?SetCacheSize@Recordset20@@QAEXJ@Z 0046ca1c f   msado15.obj
 0001:0006ba5a       ?GetCursorType@Recordset20@@QAEJXZ 0046ca5a f   msado15.obj
 0001:0006ba9d       ?SetCursorType@Recordset20@@QAEXJ@Z 0046ca9d f   msado15.obj
 0001:0006badb       ?GetEof@Recordset20@@QAEHXZ 0046cadb f   msado15.obj
 0001:0006bb1e       ?GetFields@Recordset20@@QAEPAUIDispatch@@XZ 0046cb1e f   msado15.obj
 0001:0006bb5e       ?GetLockType@Recordset20@@QAEJXZ 0046cb5e f   msado15.obj
 0001:0006bba1       ?SetLockType@Recordset20@@QAEXJ@Z 0046cba1 f   msado15.obj
 0001:0006bbdf       ?GetMaxRecords@Recordset20@@QAEJXZ 0046cbdf f   msado15.obj
 0001:0006bc22       ?SetMaxRecords@Recordset20@@QAEXJ@Z 0046cc22 f   msado15.obj
 0001:0006bc60       ?GetRecordCount@Recordset20@@QAEJXZ 0046cc60 f   msado15.obj
 0001:0006bca3       ?SetRefSource@Recordset20@@QAEXPAUIDispatch@@@Z 0046cca3 f   msado15.obj
 0001:0006bce1       ?SetSource@Recordset20@@QAEXPBD@Z 0046cce1 f   msado15.obj
 0001:0006bd1f       ?GetSource@Recordset20@@QAE?AUtagVARIANT@@XZ 0046cd1f f   msado15.obj
 0001:0006bd84       ?AddNew@Recordset20@@QAEXABUtagVARIANT@@0@Z 0046cd84 f   msado15.obj
 0001:0006bdc6       ?CancelUpdate@Recordset20@@QAEXXZ 0046cdc6 f   msado15.obj
 0001:0006bdfb       ?Close@Recordset20@@QAEXXZ 0046cdfb f   msado15.obj
 0001:0006be30       ?Delete@Recordset20@@QAEXJ@Z 0046ce30 f   msado15.obj
 0001:0006be6e       ?GetRows@Recordset20@@QAE?AUtagVARIANT@@JABU2@0@Z 0046ce6e f   msado15.obj
 0001:0006bee2       ?Move@Recordset20@@QAEXJABUtagVARIANT@@@Z 0046cee2 f   msado15.obj
 0001:0006bf24       ?MoveNext@Recordset20@@QAEXXZ 0046cf24 f   msado15.obj
 0001:0006bf59       ?MovePrevious@Recordset20@@QAEXXZ 0046cf59 f   msado15.obj
 0001:0006bf8e       ?MoveFirst@Recordset20@@QAEXXZ 0046cf8e f   msado15.obj
 0001:0006bfc3       ?MoveLast@Recordset20@@QAEXXZ 0046cfc3 f   msado15.obj
 0001:0006bff8       ?Open@Recordset20@@QAEXABUtagVARIANT@@0JJJ@Z 0046cff8 f   msado15.obj
 0001:0006c046       ?Requery@Recordset20@@QAEXJ@Z 0046d046 f   msado15.obj
 0001:0006c084       ?Update@Recordset20@@QAEXABUtagVARIANT@@0@Z 0046d084 f   msado15.obj
 0001:0006c0c6       ?GetAbsolutePage@Recordset20@@QAEJXZ 0046d0c6 f   msado15.obj
 0001:0006c109       ?SetAbsolutePage@Recordset20@@QAEXJ@Z 0046d109 f   msado15.obj
 0001:0006c147       ?GetEditMode@Recordset20@@QAEJXZ 0046d147 f   msado15.obj
 0001:0006c18a       ?GetFilter@Recordset20@@QAE?AUtagVARIANT@@XZ 0046d18a f   msado15.obj
 0001:0006c1ef       ?SetFilter@Recordset20@@QAEXABUtagVARIANT@@@Z 0046d1ef f   msado15.obj
 0001:0006c22d       ?GetPageCount@Recordset20@@QAEJXZ 0046d22d f   msado15.obj
 0001:0006c270       ?GetPageSize@Recordset20@@QAEJXZ 0046d270 f   msado15.obj
 0001:0006c2b3       ?SetPageSize@Recordset20@@QAEXJ@Z 0046d2b3 f   msado15.obj
 0001:0006c2f1       ?GetSort@Recordset20@@QAE?AVCString@@XZ 0046d2f1 f   msado15.obj
 0001:0006c392       ?SetSort@Recordset20@@QAEXPBD@Z 0046d392 f   msado15.obj
 0001:0006c3d0       ?GetStatus@Recordset20@@QAEJXZ 0046d3d0 f   msado15.obj
 0001:0006c413       ?GetState@Recordset20@@QAEJXZ 0046d413 f   msado15.obj
 0001:0006c456       ?UpdateBatch@Recordset20@@QAEXJ@Z 0046d456 f   msado15.obj
 0001:0006c494       ?CancelBatch@Recordset20@@QAEXJ@Z 0046d494 f   msado15.obj
 0001:0006c4d2       ?GetCursorLocation@Recordset20@@QAEJXZ 0046d4d2 f   msado15.obj
 0001:0006c515       ?SetCursorLocation@Recordset20@@QAEXJ@Z 0046d515 f   msado15.obj
 0001:0006c553       ?NextRecordset@Recordset20@@QAEPAUIDispatch@@PAUtagVARIANT@@@Z 0046d553 f   msado15.obj
 0001:0006c59f       ?Supports@Recordset20@@QAEHJ@Z 0046d59f f   msado15.obj
 0001:0006c5eb       ?GetMarshalOptions@Recordset20@@QAEJXZ 0046d5eb f   msado15.obj
 0001:0006c62e       ?SetMarshalOptions@Recordset20@@QAEXJ@Z 0046d62e f   msado15.obj
 0001:0006c66c       ?Find@Recordset20@@QAEXPBDJJABUtagVARIANT@@@Z 0046d66c f   msado15.obj
 0001:0006c6b6       ?Cancel@Recordset20@@QAEXXZ 0046d6b6 f   msado15.obj
 0001:0006c6eb       ?GetDataSource@Recordset20@@QAEPAUIUnknown@@XZ 0046d6eb f   msado15.obj
 0001:0006c72e       ?SetRefDataSource@Recordset20@@QAEXPAUIUnknown@@@Z 0046d72e f   msado15.obj
 0001:0006c76c       ?GetActiveCommand@Recordset20@@QAEPAUIDispatch@@XZ 0046d76c f   msado15.obj
 0001:0006c7af       ?SetStayInSync@Recordset20@@QAEXH@Z 0046d7af f   msado15.obj
 0001:0006c7ed       ?GetStayInSync@Recordset20@@QAEHXZ 0046d7ed f   msado15.obj
 0001:0006c830       ?GetString@Recordset20@@QAE?AVCString@@JJPBD00@Z 0046d830 f   msado15.obj
 0001:0006c8e9       ?GetDataMember@Recordset20@@QAE?AVCString@@XZ 0046d8e9 f   msado15.obj
 0001:0006c98a       ?SetDataMember@Recordset20@@QAEXPBD@Z 0046d98a f   msado15.obj
 0001:0006c9c8       ?CompareBookmarks@Recordset20@@QAEJABUtagVARIANT@@0@Z 0046d9c8 f   msado15.obj
 0001:0006ca18       ?Clone@Recordset20@@QAEPAUIDispatch@@J@Z 0046da18 f   msado15.obj
 0001:0006ca64       ?Resync@Recordset20@@QAEXJJ@Z 0046da64 f   msado15.obj
 0001:0006caa6       ?GetProperties@Recordset15@@QAEPAUIDispatch@@XZ 0046daa6 f   msado15.obj
 0001:0006cae9       ?GetAbsolutePosition@Recordset15@@QAEJXZ 0046dae9 f   msado15.obj
 0001:0006cb2c       ?SetAbsolutePosition@Recordset15@@QAEXJ@Z 0046db2c f   msado15.obj
 0001:0006cb6a       ?SetRefActiveConnection@Recordset15@@QAEXPAUIDispatch@@@Z 0046db6a f   msado15.obj
 0001:0006cba8       ?SetActiveConnection@Recordset15@@QAEXABUtagVARIANT@@@Z 0046dba8 f   msado15.obj
 0001:0006cbe6       ?GetActiveConnection@Recordset15@@QAE?AUtagVARIANT@@XZ 0046dbe6 f   msado15.obj
 0001:0006cc4b       ?GetBof@Recordset15@@QAEHXZ 0046dc4b f   msado15.obj
 0001:0006cc8e       ?GetBookmark@Recordset15@@QAE?AUtagVARIANT@@XZ 0046dc8e f   msado15.obj
 0001:0006ccf3       ?SetBookmark@Recordset15@@QAEXABUtagVARIANT@@@Z 0046dcf3 f   msado15.obj
 0001:0006cd31       ?GetCacheSize@Recordset15@@QAEJXZ 0046dd31 f   msado15.obj
 0001:0006cd74       ?SetCacheSize@Recordset15@@QAEXJ@Z 0046dd74 f   msado15.obj
 0001:0006cdb2       ?GetCursorType@Recordset15@@QAEJXZ 0046ddb2 f   msado15.obj
 0001:0006cdf5       ?SetCursorType@Recordset15@@QAEXJ@Z 0046ddf5 f   msado15.obj
 0001:0006ce33       ?GetEof@Recordset15@@QAEHXZ 0046de33 f   msado15.obj
 0001:0006ce76       ?GetFields@Recordset15@@QAEPAUIDispatch@@XZ 0046de76 f   msado15.obj
 0001:0006ceb6       ?GetLockType@Recordset15@@QAEJXZ 0046deb6 f   msado15.obj
 0001:0006cef9       ?SetLockType@Recordset15@@QAEXJ@Z 0046def9 f   msado15.obj
 0001:0006cf37       ?GetMaxRecords@Recordset15@@QAEJXZ 0046df37 f   msado15.obj
 0001:0006cf7a       ?SetMaxRecords@Recordset15@@QAEXJ@Z 0046df7a f   msado15.obj
 0001:0006cfb8       ?GetRecordCount@Recordset15@@QAEJXZ 0046dfb8 f   msado15.obj
 0001:0006cffb       ?SetRefSource@Recordset15@@QAEXPAUIDispatch@@@Z 0046dffb f   msado15.obj
 0001:0006d039       ?SetSource@Recordset15@@QAEXPBD@Z 0046e039 f   msado15.obj
 0001:0006d077       ?GetSource@Recordset15@@QAE?AUtagVARIANT@@XZ 0046e077 f   msado15.obj
 0001:0006d0dc       ?AddNew@Recordset15@@QAEXABUtagVARIANT@@0@Z 0046e0dc f   msado15.obj
 0001:0006d11e       ?CancelUpdate@Recordset15@@QAEXXZ 0046e11e f   msado15.obj
 0001:0006d153       ?Close@Recordset15@@QAEXXZ 0046e153 f   msado15.obj
 0001:0006d188       ?Delete@Recordset15@@QAEXJ@Z 0046e188 f   msado15.obj
 0001:0006d1c6       ?GetRows@Recordset15@@QAE?AUtagVARIANT@@JABU2@0@Z 0046e1c6 f   msado15.obj
 0001:0006d23a       ?Move@Recordset15@@QAEXJABUtagVARIANT@@@Z 0046e23a f   msado15.obj
 0001:0006d27c       ?MoveNext@Recordset15@@QAEXXZ 0046e27c f   msado15.obj
 0001:0006d2b1       ?MovePrevious@Recordset15@@QAEXXZ 0046e2b1 f   msado15.obj
 0001:0006d2e6       ?MoveFirst@Recordset15@@QAEXXZ 0046e2e6 f   msado15.obj
 0001:0006d31b       ?MoveLast@Recordset15@@QAEXXZ 0046e31b f   msado15.obj
 0001:0006d350       ?Open@Recordset15@@QAEXABUtagVARIANT@@0JJJ@Z 0046e350 f   msado15.obj
 0001:0006d39e       ?Requery@Recordset15@@QAEXJ@Z 0046e39e f   msado15.obj
 0001:0006d3dc       ?Update@Recordset15@@QAEXABUtagVARIANT@@0@Z 0046e3dc f   msado15.obj
 0001:0006d41e       ?GetAbsolutePage@Recordset15@@QAEJXZ 0046e41e f   msado15.obj
 0001:0006d461       ?SetAbsolutePage@Recordset15@@QAEXJ@Z 0046e461 f   msado15.obj
 0001:0006d49f       ?GetEditMode@Recordset15@@QAEJXZ 0046e49f f   msado15.obj
 0001:0006d4e2       ?GetFilter@Recordset15@@QAE?AUtagVARIANT@@XZ 0046e4e2 f   msado15.obj
 0001:0006d547       ?SetFilter@Recordset15@@QAEXABUtagVARIANT@@@Z 0046e547 f   msado15.obj
 0001:0006d585       ?GetPageCount@Recordset15@@QAEJXZ 0046e585 f   msado15.obj
 0001:0006d5c8       ?GetPageSize@Recordset15@@QAEJXZ 0046e5c8 f   msado15.obj
 0001:0006d60b       ?SetPageSize@Recordset15@@QAEXJ@Z 0046e60b f   msado15.obj
 0001:0006d649       ?GetSort@Recordset15@@QAE?AVCString@@XZ 0046e649 f   msado15.obj
 0001:0006d6ea       ?SetSort@Recordset15@@QAEXPBD@Z 0046e6ea f   msado15.obj
 0001:0006d728       ?GetStatus@Recordset15@@QAEJXZ 0046e728 f   msado15.obj
 0001:0006d76b       ?GetState@Recordset15@@QAEJXZ 0046e76b f   msado15.obj
 0001:0006d7ae       ?UpdateBatch@Recordset15@@QAEXJ@Z 0046e7ae f   msado15.obj
 0001:0006d7ec       ?CancelBatch@Recordset15@@QAEXJ@Z 0046e7ec f   msado15.obj
 0001:0006d82a       ?GetCursorLocation@Recordset15@@QAEJXZ 0046e82a f   msado15.obj
 0001:0006d86d       ?SetCursorLocation@Recordset15@@QAEXJ@Z 0046e86d f   msado15.obj
 0001:0006d8ab       ?NextRecordset@Recordset15@@QAEPAUIDispatch@@PAUtagVARIANT@@@Z 0046e8ab f   msado15.obj
 0001:0006d8f7       ?Supports@Recordset15@@QAEHJ@Z 0046e8f7 f   msado15.obj
 0001:0006d943       ?GetMarshalOptions@Recordset15@@QAEJXZ 0046e943 f   msado15.obj
 0001:0006d986       ?SetMarshalOptions@Recordset15@@QAEXJ@Z 0046e986 f   msado15.obj
 0001:0006d9c4       ?Find@Recordset15@@QAEXPBDJJABUtagVARIANT@@@Z 0046e9c4 f   msado15.obj
 0001:0006da0e       ?GetCount@Fields@@QAEJXZ   0046ea0e f   msado15.obj
 0001:0006da4e       ?Refresh@Fields@@QAEXXZ    0046ea4e f   msado15.obj
 0001:0006da80       ?GetItem@Fields@@QAEPAUIDispatch@@ABUtagVARIANT@@@Z 0046ea80 f   msado15.obj
 0001:0006dac9       ?Delete@Fields@@QAEXABUtagVARIANT@@@Z 0046eac9 f   msado15.obj
 0001:0006db04       ?Append@Fields@@QAEXPBDJJJABUtagVARIANT@@@Z 0046eb04 f   msado15.obj
 0001:0006db4f       ?Update@Fields@@QAEXXZ     0046eb4f f   msado15.obj
 0001:0006db81       ?Resync@Fields@@QAEXJ@Z    0046eb81 f   msado15.obj
 0001:0006dbbc       ?CancelUpdate@Fields@@QAEXXZ 0046ebbc f   msado15.obj
 0001:0006dbee       ?GetCount@Fields20@@QAEJXZ 0046ebee f   msado15.obj
 0001:0006dc2e       ?Refresh@Fields20@@QAEXXZ  0046ec2e f   msado15.obj
 0001:0006dc60       ?GetItem@Fields20@@QAEPAUIDispatch@@ABUtagVARIANT@@@Z 0046ec60 f   msado15.obj
 0001:0006dca9       ?Delete@Fields20@@QAEXABUtagVARIANT@@@Z 0046eca9 f   msado15.obj
 0001:0006dce4       ?GetCount@Fields15@@QAEJXZ 0046ece4 f   msado15.obj
 0001:0006dd24       ?Refresh@Fields15@@QAEXXZ  0046ed24 f   msado15.obj
 0001:0006dd56       ?GetItem@Fields15@@QAEPAUIDispatch@@ABUtagVARIANT@@@Z 0046ed56 f   msado15.obj
 0001:0006dd9f       ?GetProperties@Field@@QAEPAUIDispatch@@XZ 0046ed9f f   msado15.obj
 0001:0006dde2       ?GetActualSize@Field@@QAEJXZ 0046ede2 f   msado15.obj
 0001:0006de25       ?GetAttributes@Field@@QAEJXZ 0046ee25 f   msado15.obj
 0001:0006de68       ?GetDefinedSize@Field@@QAEJXZ 0046ee68 f   msado15.obj
 0001:0006deab       ?GetName@Field@@QAE?AVCString@@XZ 0046eeab f   msado15.obj
 0001:0006df4c       ?GetType@Field@@QAEJXZ     0046ef4c f   msado15.obj
 0001:0006df8f       ?GetValue@Field@@QAE?AUtagVARIANT@@XZ 0046ef8f f   msado15.obj
 0001:0006dff1       ?SetValue@Field@@QAEXABUtagVARIANT@@@Z 0046eff1 f   msado15.obj
 0001:0006e02c       ?AppendChunk@Field@@QAEXABUtagVARIANT@@@Z 0046f02c f   msado15.obj
 0001:0006e06a       ?GetChunk@Field@@QAE?AUtagVARIANT@@J@Z 0046f06a f   msado15.obj
 0001:0006e0d6       ?GetOriginalValue@Field@@QAE?AUtagVARIANT@@XZ 0046f0d6 f   msado15.obj
 0001:0006e13b       ?GetUnderlyingValue@Field@@QAE?AUtagVARIANT@@XZ 0046f13b f   msado15.obj
 0001:0006e1a0       ?GetDataFormat@Field@@QAEPAUIUnknown@@XZ 0046f1a0 f   msado15.obj
 0001:0006e1e3       ?SetRefDataFormat@Field@@QAEXPAUIUnknown@@@Z 0046f1e3 f   msado15.obj
 0001:0006e221       ?SetType@Field@@QAEXJ@Z    0046f221 f   msado15.obj
 0001:0006e25f       ?SetDefinedSize@Field@@QAEXJ@Z 0046f25f f   msado15.obj
 0001:0006e29d       ?SetAttributes@Field@@QAEXJ@Z 0046f29d f   msado15.obj
 0001:0006e2db       ?GetStatus@Field@@QAEJXZ   0046f2db f   msado15.obj
 0001:0006e31e       ?GetProperties@Field20@@QAEPAUIDispatch@@XZ 0046f31e f   msado15.obj
 0001:0006e361       ?GetActualSize@Field20@@QAEJXZ 0046f361 f   msado15.obj
 0001:0006e3a4       ?GetAttributes@Field20@@QAEJXZ 0046f3a4 f   msado15.obj
 0001:0006e3e7       ?GetDefinedSize@Field20@@QAEJXZ 0046f3e7 f   msado15.obj
 0001:0006e42a       ?GetName@Field20@@QAE?AVCString@@XZ 0046f42a f   msado15.obj
 0001:0006e4cb       ?GetType@Field20@@QAEJXZ   0046f4cb f   msado15.obj
 0001:0006e50e       ?GetValue@Field20@@QAE?AUtagVARIANT@@XZ 0046f50e f   msado15.obj
 0001:0006e570       ?SetValue@Field20@@QAEXABUtagVARIANT@@@Z 0046f570 f   msado15.obj
 0001:0006e5ab       ?AppendChunk@Field20@@QAEXABUtagVARIANT@@@Z 0046f5ab f   msado15.obj
 0001:0006e5e9       ?GetChunk@Field20@@QAE?AUtagVARIANT@@J@Z 0046f5e9 f   msado15.obj
 0001:0006e655       ?GetOriginalValue@Field20@@QAE?AUtagVARIANT@@XZ 0046f655 f   msado15.obj
 0001:0006e6ba       ?GetUnderlyingValue@Field20@@QAE?AUtagVARIANT@@XZ 0046f6ba f   msado15.obj
 0001:0006e71f       ?GetDataFormat@Field20@@QAEPAUIUnknown@@XZ 0046f71f f   msado15.obj
 0001:0006e762       ?SetRefDataFormat@Field20@@QAEXPAUIUnknown@@@Z 0046f762 f   msado15.obj
 0001:0006e7a0       ?SetType@Field20@@QAEXJ@Z  0046f7a0 f   msado15.obj
 0001:0006e7de       ?SetDefinedSize@Field20@@QAEXJ@Z 0046f7de f   msado15.obj
 0001:0006e81c       ?SetAttributes@Field20@@QAEXJ@Z 0046f81c f   msado15.obj
 0001:0006e85a       ?GetProperties@_Parameter@@QAEPAUIDispatch@@XZ 0046f85a f   msado15.obj
 0001:0006e89d       ?GetName@_Parameter@@QAE?AVCString@@XZ 0046f89d f   msado15.obj
 0001:0006e93b       ?SetName@_Parameter@@QAEXPBD@Z 0046f93b f   msado15.obj
 0001:0006e976       ?GetValue@_Parameter@@QAE?AUtagVARIANT@@XZ 0046f976 f   msado15.obj
 0001:0006e9d8       ?SetValue@_Parameter@@QAEXABUtagVARIANT@@@Z 0046f9d8 f   msado15.obj
 0001:0006ea13       ?GetType@_Parameter@@QAEJXZ 0046fa13 f   msado15.obj
 0001:0006ea53       ?SetType@_Parameter@@QAEXJ@Z 0046fa53 f   msado15.obj
 0001:0006ea8e       ?SetDirection@_Parameter@@QAEXJ@Z 0046fa8e f   msado15.obj
 0001:0006eac9       ?GetDirection@_Parameter@@QAEJXZ 0046fac9 f   msado15.obj
 0001:0006eb09       ?SetSize@_Parameter@@QAEXJ@Z 0046fb09 f   msado15.obj
 0001:0006eb44       ?GetSize@_Parameter@@QAEJXZ 0046fb44 f   msado15.obj
 0001:0006eb84       ?AppendChunk@_Parameter@@QAEXABUtagVARIANT@@@Z 0046fb84 f   msado15.obj
 0001:0006ebbf       ?GetAttributes@_Parameter@@QAEJXZ 0046fbbf f   msado15.obj
 0001:0006ebff       ?SetAttributes@_Parameter@@QAEXJ@Z 0046fbff f   msado15.obj
 0001:0006ec3a       ?GetCount@Parameters@@QAEJXZ 0046fc3a f   msado15.obj
 0001:0006ec7a       ?Refresh@Parameters@@QAEXXZ 0046fc7a f   msado15.obj
 0001:0006ecac       ?Append@Parameters@@QAEXPAUIDispatch@@@Z 0046fcac f   msado15.obj
 0001:0006ecea       ?Delete@Parameters@@QAEXABUtagVARIANT@@@Z 0046fcea f   msado15.obj
 0001:0006ed28       ?GetItem@Parameters@@QAEPAUIDispatch@@ABUtagVARIANT@@@Z 0046fd28 f   msado15.obj
 0001:0006ed71       ?GetProperties@Command25@@QAEPAUIDispatch@@XZ 0046fd71 f   msado15.obj
 0001:0006edb4       ?GetActiveConnection@Command25@@QAEPAUIDispatch@@XZ 0046fdb4 f   msado15.obj
 0001:0006edf4       ?SetRefActiveConnection@Command25@@QAEXPAUIDispatch@@@Z 0046fdf4 f   msado15.obj
 0001:0006ee2f       ?SetActiveConnection@Command25@@QAEXABUtagVARIANT@@@Z 0046fe2f f   msado15.obj
 0001:0006ee6a       ?GetCommandText@Command25@@QAE?AVCString@@XZ 0046fe6a f   msado15.obj
 0001:0006ef08       ?SetCommandText@Command25@@QAEXPBD@Z 0046ff08 f   msado15.obj
 0001:0006ef43       ?GetCommandTimeout@Command25@@QAEJXZ 0046ff43 f   msado15.obj
 0001:0006ef83       ?SetCommandTimeout@Command25@@QAEXJ@Z 0046ff83 f   msado15.obj
 0001:0006efbe       ?GetPrepared@Command25@@QAEHXZ 0046ffbe f   msado15.obj
 0001:0006effe       ?SetPrepared@Command25@@QAEXH@Z 0046fffe f   msado15.obj
 0001:0006f039       ?Execute@Command25@@QAEPAUIDispatch@@PAUtagVARIANT@@0J@Z 00470039 f   msado15.obj
 0001:0006f08a       ?CreateParameter@Command25@@QAEPAUIDispatch@@PBDJJJABUtagVARIANT@@@Z 0047008a f   msado15.obj
 0001:0006f0e3       ?GetParameters@Command25@@QAEPAUIDispatch@@XZ 004700e3 f   msado15.obj
 0001:0006f123       ?SetCommandType@Command25@@QAEXJ@Z 00470123 f   msado15.obj
 0001:0006f15e       ?GetCommandType@Command25@@QAEJXZ 0047015e f   msado15.obj
 0001:0006f19e       ?GetName@Command25@@QAE?AVCString@@XZ 0047019e f   msado15.obj
 0001:0006f23c       ?SetName@Command25@@QAEXPBD@Z 0047023c f   msado15.obj
 0001:0006f277       ?GetState@Command25@@QAEJXZ 00470277 f   msado15.obj
 0001:0006f2b7       ?Cancel@Command25@@QAEXXZ  004702b7 f   msado15.obj
 0001:0006f2e9       ?GetProperties@_Command@@QAEPAUIDispatch@@XZ 004702e9 f   msado15.obj
 0001:0006f32c       ?GetActiveConnection@_Command@@QAEPAUIDispatch@@XZ 0047032c f   msado15.obj
 0001:0006f36c       ?SetRefActiveConnection@_Command@@QAEXPAUIDispatch@@@Z 0047036c f   msado15.obj
 0001:0006f3a7       ?SetActiveConnection@_Command@@QAEXABUtagVARIANT@@@Z 004703a7 f   msado15.obj
 0001:0006f3e2       ?GetCommandText@_Command@@QAE?AVCString@@XZ 004703e2 f   msado15.obj
 0001:0006f480       ?SetCommandText@_Command@@QAEXPBD@Z 00470480 f   msado15.obj
 0001:0006f4bb       ?GetCommandTimeout@_Command@@QAEJXZ 004704bb f   msado15.obj
 0001:0006f4fb       ?SetCommandTimeout@_Command@@QAEXJ@Z 004704fb f   msado15.obj
 0001:0006f536       ?GetPrepared@_Command@@QAEHXZ 00470536 f   msado15.obj
 0001:0006f576       ?SetPrepared@_Command@@QAEXH@Z 00470576 f   msado15.obj
 0001:0006f5b1       ?Execute@_Command@@QAEPAUIDispatch@@PAUtagVARIANT@@0J@Z 004705b1 f   msado15.obj
 0001:0006f602       ?CreateParameter@_Command@@QAEPAUIDispatch@@PBDJJJABUtagVARIANT@@@Z 00470602 f   msado15.obj
 0001:0006f65b       ?GetParameters@_Command@@QAEPAUIDispatch@@XZ 0047065b f   msado15.obj
 0001:0006f69b       ?SetCommandType@_Command@@QAEXJ@Z 0047069b f   msado15.obj
 0001:0006f6d6       ?GetCommandType@_Command@@QAEJXZ 004706d6 f   msado15.obj
 0001:0006f716       ?GetName@_Command@@QAE?AVCString@@XZ 00470716 f   msado15.obj
 0001:0006f7b4       ?SetName@_Command@@QAEXPBD@Z 004707b4 f   msado15.obj
 0001:0006f7ef       ?GetState@_Command@@QAEJXZ 004707ef f   msado15.obj
 0001:0006f82f       ?Cancel@_Command@@QAEXXZ   0047082f f   msado15.obj
 0001:0006f861       ?SetRefCommandStream@_Command@@QAEXPAUIUnknown@@@Z 00470861 f   msado15.obj
 0001:0006f89c       ?GetCommandStream@_Command@@QAE?AUtagVARIANT@@XZ 0047089c f   msado15.obj
 0001:0006f8fe       ?SetDialect@_Command@@QAEXPBD@Z 004708fe f   msado15.obj
 0001:0006f939       ?GetDialect@_Command@@QAE?AVCString@@XZ 00470939 f   msado15.obj
 0001:0006f9d7       ?SetNamedParameters@_Command@@QAEXH@Z 004709d7 f   msado15.obj
 0001:0006fa12       ?GetNamedParameters@_Command@@QAEHXZ 00470a12 f   msado15.obj
 0001:0006fa52       ?GetProperties@_Record@@QAEPAUIDispatch@@XZ 00470a52 f   msado15.obj
 0001:0006fa95       ?GetActiveConnection@_Record@@QAE?AUtagVARIANT@@XZ 00470a95 f   msado15.obj
 0001:0006faf7       ?SetActiveConnection@_Record@@QAEXPBD@Z 00470af7 f   msado15.obj
 0001:0006fb32       ?SetRefActiveConnection@_Record@@QAEXPAUIDispatch@@@Z 00470b32 f   msado15.obj
 0001:0006fb6d       ?GetState@_Record@@QAEJXZ  00470b6d f   msado15.obj
 0001:0006fbad       ?GetSource@_Record@@QAE?AUtagVARIANT@@XZ 00470bad f   msado15.obj
 0001:0006fc0f       ?SetSource@_Record@@QAEXPBD@Z 00470c0f f   msado15.obj
 0001:0006fc4a       ?SetRefSource@_Record@@QAEXPAUIDispatch@@@Z 00470c4a f   msado15.obj
 0001:0006fc85       ?GetMode@_Record@@QAEJXZ   00470c85 f   msado15.obj
 0001:0006fcc5       ?SetMode@_Record@@QAEXJ@Z  00470cc5 f   msado15.obj
 0001:0006fd00       ?GetParentURL@_Record@@QAE?AVCString@@XZ 00470d00 f   msado15.obj
 0001:0006fd9e       ?MoveRecord@_Record@@QAE?AVCString@@PBD000JH@Z 00470d9e f   msado15.obj
 0001:0006fe57       ?CopyRecord@_Record@@QAE?AVCString@@PBD000JH@Z 00470e57 f   msado15.obj
 0001:0006ff10       ?DeleteRecord@_Record@@QAEXPBDH@Z 00470f10 f   msado15.obj
 0001:0006ff4f       ?Open@_Record@@QAEXABUtagVARIANT@@0JJJPBD1@Z 00470f4f f   msado15.obj
 0001:0006ffa2       ?Close@_Record@@QAEXXZ     00470fa2 f   msado15.obj
 0001:0006ffd4       ?GetFields@_Record@@QAEPAUIDispatch@@XZ 00470fd4 f   msado15.obj
 0001:00070014       ?GetRecordType@_Record@@QAEJXZ 00471014 f   msado15.obj
 0001:00070054       ?GetChildren@_Record@@QAEPAUIDispatch@@XZ 00471054 f   msado15.obj
 0001:00070094       ?Cancel@_Record@@QAEXXZ    00471094 f   msado15.obj
 0001:000700c6       ?GetSize@_Stream@@QAEJXZ   004710c6 f   msado15.obj
 0001:00070106       ?GetEos@_Stream@@QAEHXZ    00471106 f   msado15.obj
 0001:00070146       ?GetPosition@_Stream@@QAEJXZ 00471146 f   msado15.obj
 0001:00070186       ?SetPosition@_Stream@@QAEXJ@Z 00471186 f   msado15.obj
 0001:000701c1       ?GetType@_Stream@@QAEJXZ   004711c1 f   msado15.obj
 0001:00070201       ?SetType@_Stream@@QAEXJ@Z  00471201 f   msado15.obj
 0001:0007023c       ?GetLineSeparator@_Stream@@QAEJXZ 0047123c f   msado15.obj
 0001:0007027c       ?SetLineSeparator@_Stream@@QAEXJ@Z 0047127c f   msado15.obj
 0001:000702b7       ?GetState@_Stream@@QAEJXZ  004712b7 f   msado15.obj
 0001:000702f7       ?GetMode@_Stream@@QAEJXZ   004712f7 f   msado15.obj
 0001:00070337       ?SetMode@_Stream@@QAEXJ@Z  00471337 f   msado15.obj
 0001:00070372       ?GetCharset@_Stream@@QAE?AVCString@@XZ 00471372 f   msado15.obj
 0001:00070410       ?SetCharset@_Stream@@QAEXPBD@Z 00471410 f   msado15.obj
 0001:0007044b       ?Read@_Stream@@QAE?AUtagVARIANT@@J@Z 0047144b f   msado15.obj
 0001:000704b4       ?Open@_Stream@@QAEXABUtagVARIANT@@JJPBD1@Z 004714b4 f   msado15.obj
 0001:000704ff       ?Close@_Stream@@QAEXXZ     004714ff f   msado15.obj
 0001:00070531       ?SkipLine@_Stream@@QAEXXZ  00471531 f   msado15.obj
 0001:00070563       ?Write@_Stream@@QAEXABUtagVARIANT@@@Z 00471563 f   msado15.obj
 0001:0007059e       ?SetEOS@_Stream@@QAEXXZ    0047159e f   msado15.obj
 0001:000705d0       ?CopyTo@_Stream@@QAEXPAUIDispatch@@J@Z 004715d0 f   msado15.obj
 0001:0007060f       ?Flush@_Stream@@QAEXXZ     0047160f f   msado15.obj
 0001:00070641       ?SaveToFile@_Stream@@QAEXPBDJ@Z 00471641 f   msado15.obj
 0001:00070680       ?LoadFromFile@_Stream@@QAEXPBD@Z 00471680 f   msado15.obj
 0001:000706bb       ?ReadText@_Stream@@QAE?AVCString@@J@Z 004716bb f   msado15.obj
 0001:00070761       ?WriteText@_Stream@@QAEXPBDJ@Z 00471761 f   msado15.obj
 0001:000707a0       ?Cancel@_Stream@@QAEXXZ    004717a0 f   msado15.obj
 0001:000707d2       ?GetProperties@Field15@@QAEPAUIDispatch@@XZ 004717d2 f   msado15.obj
 0001:00070815       ?GetActualSize@Field15@@QAEJXZ 00471815 f   msado15.obj
 0001:00070858       ?GetAttributes@Field15@@QAEJXZ 00471858 f   msado15.obj
 0001:0007089b       ?GetDefinedSize@Field15@@QAEJXZ 0047189b f   msado15.obj
 0001:000708de       ?GetName@Field15@@QAE?AVCString@@XZ 004718de f   msado15.obj
 0001:0007097f       ?GetType@Field15@@QAEJXZ   0047197f f   msado15.obj
 0001:000709c2       ?GetValue@Field15@@QAE?AUtagVARIANT@@XZ 004719c2 f   msado15.obj
 0001:00070a24       ?SetValue@Field15@@QAEXABUtagVARIANT@@@Z 00471a24 f   msado15.obj
 0001:00070a5f       ?AppendChunk@Field15@@QAEXABUtagVARIANT@@@Z 00471a5f f   msado15.obj
 0001:00070a9d       ?GetChunk@Field15@@QAE?AUtagVARIANT@@J@Z 00471a9d f   msado15.obj
 0001:00070b09       ?GetOriginalValue@Field15@@QAE?AUtagVARIANT@@XZ 00471b09 f   msado15.obj
 0001:00070b6e       ?GetUnderlyingValue@Field15@@QAE?AUtagVARIANT@@XZ 00471b6e f   msado15.obj
 0001:00070be0       ??0NewCrop@@QAE@PAVCWnd@@@Z 00471be0 f   NewCrop.obj
 0001:00070e23       ?DoDataExchange@NewCrop@@MAEXPAVCDataExchange@@@Z 00471e23 f   NewCrop.obj
 0001:000710fb       ?GetMessageMap@NewCrop@@MBEPBUAFX_MSGMAP@@XZ 004720fb f   NewCrop.obj
 0001:00071112       ?OnSelchangeSelectCrop@NewCrop@@IAEXXZ 00472112 f   NewCrop.obj
 0001:000714d4       ?OnRadio1@NewCrop@@IAEXXZ  004724d4 f   NewCrop.obj
 0001:000717a5       ?OnRadio2@NewCrop@@IAEXXZ  004727a5 f   NewCrop.obj
 0001:00071934       ?OnInitDialog@NewCrop@@MAEHXZ 00472934 f   NewCrop.obj
 0001:00071965       ?SetPlantList@NewCrop@@QAEHXZ 00472965 f   NewCrop.obj
 0001:00071aba       ?EraseSpace@@YAPADPAD@Z    00472aba f   NewCrop.obj
 0001:00071b44       ?OnOK@NewCrop@@MAEXXZ      00472b44 f   NewCrop.obj
 0001:00072568       ?OnKillfocusOptimumYield@NewCrop@@IAEXXZ 00473568 f   NewCrop.obj
 0001:000725c3       ?OnKillfocusGrainFraction@NewCrop@@IAEXXZ 004735c3 f   NewCrop.obj
 0001:0007263f       ?OnKillfocusShootFRaction@NewCrop@@IAEXXZ 0047363f f   NewCrop.obj
 0001:00072698       ?OnKillfocusShootCN@NewCrop@@IAEXXZ 00473698 f   NewCrop.obj
 0001:000726bc       ?OnKillfocusNfixation@NewCrop@@IAEXXZ 004736bc f   NewCrop.obj
 0001:0007272a       ?OnCheck@NewCrop@@IAEXXZ   0047372a f   NewCrop.obj
 0001:000729bb       ?OnKillfocusGrainCN@NewCrop@@IAEXXZ 004739bb f   NewCrop.obj
 0001:000729df       ?OnKillfocusRootCN@NewCrop@@IAEXXZ 004739df f   NewCrop.obj
 0001:00072a03       ?OnChangeCropName@NewCrop@@IAEXXZ 00473a03 f   NewCrop.obj
 0001:00072a20       ??_GNewCrop@@UAEPAXI@Z     00473a20 f i NewCrop.obj
 0001:00072a20       ??_ENewCrop@@UAEPAXI@Z     00473a20 f i NewCrop.obj
 0001:00072a60       ??0CombineFiles@@QAE@PAVCWnd@@@Z 00473a60 f   ombineFiles.obj
 0001:00072b09       ?DoDataExchange@CombineFiles@@MAEXPAVCDataExchange@@@Z 00473b09 f   ombineFiles.obj
 0001:00072b77       ?GetMessageMap@CombineFiles@@MBEPBUAFX_MSGMAP@@XZ 00473b77 f   ombineFiles.obj
 0001:00072b8e       ?OnSelClimateFile@CombineFiles@@IAEXXZ 00473b8e f   ombineFiles.obj
 0001:00072e02       ?OnMoveDown@CombineFiles@@IAEXXZ 00473e02 f   ombineFiles.obj
 0001:00072ee9       ?OnMoveUp@CombineFiles@@IAEXXZ 00473ee9 f   ombineFiles.obj
 0001:00072fd0       ?OnOK@CombineFiles@@MAEXXZ 00473fd0 f   ombineFiles.obj
 0001:00073320       ??_GCombineFiles@@UAEPAXI@Z 00474320 f i ombineFiles.obj
 0001:00073320       ??_ECombineFiles@@UAEPAXI@Z 00474320 f i ombineFiles.obj
 0001:00073360       ?Shangrila@dndc74@@QAEXPAUMODEL_LINK_INFO@@PAVCGraphexDoc@@HH@Z 00474360 f   region_Shangrila.obj
 0001:00075706       ??0RegionInput@@QAE@PAVCWnd@@@Z 00476706 f   RegionInput.obj
 0001:000758a0       ?DoDataExchange@RegionInput@@MAEXPAVCDataExchange@@@Z 004768a0 f   RegionInput.obj
 0001:00075a12       ?GetMessageMap@RegionInput@@MBEPBUAFX_MSGMAP@@XZ 00476a12 f   RegionInput.obj
 0001:00075a29       ?OnSelGisFile@RegionInput@@IAEXXZ 00476a29 f   RegionInput.obj
 0001:00075ed1       ?OnFarmFile@RegionInput@@IAEXXZ 00476ed1 f   RegionInput.obj
 0001:00076334       ?OnFarmFile2@RegionInput@@IAEXXZ 00477334 f   RegionInput.obj
 0001:0007638f       ?Onyr1@RegionInput@@IAEXXZ 0047738f f   RegionInput.obj
 0001:000763d1       ?Onyr2@RegionInput@@IAEXXZ 004773d1 f   RegionInput.obj
 0001:00076409       ?Onyr3@RegionInput@@IAEXXZ 00477409 f   RegionInput.obj
 0001:00076441       ?Onyr4@RegionInput@@IAEXXZ 00477441 f   RegionInput.obj
 0001:00076479       ?Onyr5@RegionInput@@IAEXXZ 00477479 f   RegionInput.obj
 0001:000764b1       ?Onyr6@RegionInput@@IAEXXZ 004774b1 f   RegionInput.obj
 0001:000764e9       ?Onyr7@RegionInput@@IAEXXZ 004774e9 f   RegionInput.obj
 0001:00076521       ?Onyr8@RegionInput@@IAEXXZ 00477521 f   RegionInput.obj
 0001:00076559       ?Onyr9@RegionInput@@IAEXXZ 00477559 f   RegionInput.obj
 0001:00076591       ?Onyr10@RegionInput@@IAEXXZ 00477591 f   RegionInput.obj
 0001:000765c9       ?Onyr11@RegionInput@@IAEXXZ 004775c9 f   RegionInput.obj
 0001:00076601       ?Onyr12@RegionInput@@IAEXXZ 00477601 f   RegionInput.obj
 0001:00076639       ?Onyr13@RegionInput@@IAEXXZ 00477639 f   RegionInput.obj
 0001:00076671       ?Onyr14@RegionInput@@IAEXXZ 00477671 f   RegionInput.obj
 0001:000766a9       ?Onyr15@RegionInput@@IAEXXZ 004776a9 f   RegionInput.obj
 0001:000766e1       ?Onyr16@RegionInput@@IAEXXZ 004776e1 f   RegionInput.obj
 0001:00076719       ?Onyr17@RegionInput@@IAEXXZ 00477719 f   RegionInput.obj
 0001:00076751       ?Onyr18@RegionInput@@IAEXXZ 00477751 f   RegionInput.obj
 0001:00076789       ?Onyr19@RegionInput@@IAEXXZ 00477789 f   RegionInput.obj
 0001:000767c1       ?Onyr20@RegionInput@@IAEXXZ 004777c1 f   RegionInput.obj
 0001:000767f9       ?Onyr21@RegionInput@@IAEXXZ 004777f9 f   RegionInput.obj
 0001:00076831       ?Onyr22@RegionInput@@IAEXXZ 00477831 f   RegionInput.obj
 0001:00076869       ?Onyr23@RegionInput@@IAEXXZ 00477869 f   RegionInput.obj
 0001:000768a1       ?Onyr24@RegionInput@@IAEXXZ 004778a1 f   RegionInput.obj
 0001:000768d9       ?Onyr25@RegionInput@@IAEXXZ 004778d9 f   RegionInput.obj
 0001:00076911       ?Onyr26@RegionInput@@IAEXXZ 00477911 f   RegionInput.obj
 0001:00076949       ?Onyr27@RegionInput@@IAEXXZ 00477949 f   RegionInput.obj
 0001:00076981       ?Onyr28@RegionInput@@IAEXXZ 00477981 f   RegionInput.obj
 0001:000769b9       ?Onyr29@RegionInput@@IAEXXZ 004779b9 f   RegionInput.obj
 0001:000769f1       ?Onyr30@RegionInput@@IAEXXZ 004779f1 f   RegionInput.obj
 0001:00076a29       ?Onyr31@RegionInput@@IAEXXZ 00477a29 f   RegionInput.obj
 0001:00076a61       ?Onyr32@RegionInput@@IAEXXZ 00477a61 f   RegionInput.obj
 0001:00076a99       ?Onyr33@RegionInput@@IAEXXZ 00477a99 f   RegionInput.obj
 0001:00076ad1       ?Onyr34@RegionInput@@IAEXXZ 00477ad1 f   RegionInput.obj
 0001:00076b09       ?Onyr35@RegionInput@@IAEXXZ 00477b09 f   RegionInput.obj
 0001:00076b41       ?Onyr36@RegionInput@@IAEXXZ 00477b41 f   RegionInput.obj
 0001:00076b79       ?Onyr37@RegionInput@@IAEXXZ 00477b79 f   RegionInput.obj
 0001:00076bb1       ?Onyr38@RegionInput@@IAEXXZ 00477bb1 f   RegionInput.obj
 0001:00076be9       ?Onyr39@RegionInput@@IAEXXZ 00477be9 f   RegionInput.obj
 0001:00076c21       ?Onyr40@RegionInput@@IAEXXZ 00477c21 f   RegionInput.obj
 0001:00076c59       ?Onyr41@RegionInput@@IAEXXZ 00477c59 f   RegionInput.obj
 0001:00076c91       ?Onyr42@RegionInput@@IAEXXZ 00477c91 f   RegionInput.obj
 0001:00076cc9       ?Onyr43@RegionInput@@IAEXXZ 00477cc9 f   RegionInput.obj
 0001:00076d01       ?Onyr44@RegionInput@@IAEXXZ 00477d01 f   RegionInput.obj
 0001:00076d39       ?Onyr45@RegionInput@@IAEXXZ 00477d39 f   RegionInput.obj
 0001:00076d71       ?Onyr46@RegionInput@@IAEXXZ 00477d71 f   RegionInput.obj
 0001:00076da9       ?Onyr47@RegionInput@@IAEXXZ 00477da9 f   RegionInput.obj
 0001:00076de1       ?Onyr48@RegionInput@@IAEXXZ 00477de1 f   RegionInput.obj
 0001:00076e19       ?Onyr49@RegionInput@@IAEXXZ 00477e19 f   RegionInput.obj
 0001:00076e51       ?Onyr50@RegionInput@@IAEXXZ 00477e51 f   RegionInput.obj
 0001:00076e89       ?Onyr51@RegionInput@@IAEXXZ 00477e89 f   RegionInput.obj
 0001:00076ec1       ?Onyr52@RegionInput@@IAEXXZ 00477ec1 f   RegionInput.obj
 0001:00076ef9       ?Onyr53@RegionInput@@IAEXXZ 00477ef9 f   RegionInput.obj
 0001:00076f31       ?Onyr54@RegionInput@@IAEXXZ 00477f31 f   RegionInput.obj
 0001:00076f69       ?Onyr55@RegionInput@@IAEXXZ 00477f69 f   RegionInput.obj
 0001:00076fa1       ?Onyr56@RegionInput@@IAEXXZ 00477fa1 f   RegionInput.obj
 0001:00076fd9       ?Onyr57@RegionInput@@IAEXXZ 00477fd9 f   RegionInput.obj
 0001:00077011       ?Onyr58@RegionInput@@IAEXXZ 00478011 f   RegionInput.obj
 0001:00077049       ?Onyr59@RegionInput@@IAEXXZ 00478049 f   RegionInput.obj
 0001:00077081       ?Onyr60@RegionInput@@IAEXXZ 00478081 f   RegionInput.obj
 0001:000770b9       ?Onyr61@RegionInput@@IAEXXZ 004780b9 f   RegionInput.obj
 0001:000770f1       ?Onyr62@RegionInput@@IAEXXZ 004780f1 f   RegionInput.obj
 0001:00077129       ?Onyr63@RegionInput@@IAEXXZ 00478129 f   RegionInput.obj
 0001:00077161       ?Onyr64@RegionInput@@IAEXXZ 00478161 f   RegionInput.obj
 0001:00077199       ?Onyr65@RegionInput@@IAEXXZ 00478199 f   RegionInput.obj
 0001:000771d1       ?Onyr66@RegionInput@@IAEXXZ 004781d1 f   RegionInput.obj
 0001:00077209       ?Onyr67@RegionInput@@IAEXXZ 00478209 f   RegionInput.obj
 0001:00077241       ?Onyr68@RegionInput@@IAEXXZ 00478241 f   RegionInput.obj
 0001:00077279       ?Onyr69@RegionInput@@IAEXXZ 00478279 f   RegionInput.obj
 0001:000772b1       ?Onyr70@RegionInput@@IAEXXZ 004782b1 f   RegionInput.obj
 0001:000772e9       ?Onyr71@RegionInput@@IAEXXZ 004782e9 f   RegionInput.obj
 0001:00077321       ?Onyr72@RegionInput@@IAEXXZ 00478321 f   RegionInput.obj
 0001:00077359       ?Onyr73@RegionInput@@IAEXXZ 00478359 f   RegionInput.obj
 0001:00077391       ?Onyr74@RegionInput@@IAEXXZ 00478391 f   RegionInput.obj
 0001:000773c9       ?Onyr75@RegionInput@@IAEXXZ 004783c9 f   RegionInput.obj
 0001:00077401       ?Onyr76@RegionInput@@IAEXXZ 00478401 f   RegionInput.obj
 0001:00077439       ?Onyr77@RegionInput@@IAEXXZ 00478439 f   RegionInput.obj
 0001:00077471       ?Onyr78@RegionInput@@IAEXXZ 00478471 f   RegionInput.obj
 0001:000774a9       ?Onyr79@RegionInput@@IAEXXZ 004784a9 f   RegionInput.obj
 0001:000774e1       ?Onyr80@RegionInput@@IAEXXZ 004784e1 f   RegionInput.obj
 0001:00077519       ?Onyr81@RegionInput@@IAEXXZ 00478519 f   RegionInput.obj
 0001:00077551       ?Onyr82@RegionInput@@IAEXXZ 00478551 f   RegionInput.obj
 0001:00077589       ?Onyr83@RegionInput@@IAEXXZ 00478589 f   RegionInput.obj
 0001:000775c1       ?Onyr84@RegionInput@@IAEXXZ 004785c1 f   RegionInput.obj
 0001:000775f9       ?Onyr85@RegionInput@@IAEXXZ 004785f9 f   RegionInput.obj
 0001:00077631       ?Onyr86@RegionInput@@IAEXXZ 00478631 f   RegionInput.obj
 0001:00077669       ?Onyr87@RegionInput@@IAEXXZ 00478669 f   RegionInput.obj
 0001:000776a1       ?Onyr88@RegionInput@@IAEXXZ 004786a1 f   RegionInput.obj
 0001:000776d9       ?Onyr89@RegionInput@@IAEXXZ 004786d9 f   RegionInput.obj
 0001:00077711       ?Onyr90@RegionInput@@IAEXXZ 00478711 f   RegionInput.obj
 0001:00077749       ?Onyr91@RegionInput@@IAEXXZ 00478749 f   RegionInput.obj
 0001:00077781       ?Onyr92@RegionInput@@IAEXXZ 00478781 f   RegionInput.obj
 0001:000777b9       ?Onyr93@RegionInput@@IAEXXZ 004787b9 f   RegionInput.obj
 0001:000777f1       ?Onyr94@RegionInput@@IAEXXZ 004787f1 f   RegionInput.obj
 0001:00077829       ?Onyr95@RegionInput@@IAEXXZ 00478829 f   RegionInput.obj
 0001:00077861       ?Onyr96@RegionInput@@IAEXXZ 00478861 f   RegionInput.obj
 0001:00077899       ?Onyr97@RegionInput@@IAEXXZ 00478899 f   RegionInput.obj
 0001:000778d1       ?Onyr98@RegionInput@@IAEXXZ 004788d1 f   RegionInput.obj
 0001:00077909       ?Onyr99@RegionInput@@IAEXXZ 00478909 f   RegionInput.obj
 0001:00077941       ?Onyr100@RegionInput@@IAEXXZ 00478941 f   RegionInput.obj
 0001:00077979       ?OnDblclkGisFileList@RegionInput@@IAEXXZ 00478979 f   RegionInput.obj
 0001:00077a28       ?www@@YAXH@Z               00478a28 f   RegionInput.obj
 0001:00077b00       ?OnKillfocusSimuYears@RegionInput@@IAEXXZ 00478b00 f   RegionInput.obj
 0001:00079294       ?OnSetfocusRegionName@RegionInput@@IAEXXZ 0047a294 f   RegionInput.obj
 0001:00079455       ?OnAccept@RegionInput@@IAEXXZ 0047a455 f   RegionInput.obj
 0001:00079492       ?OnSaveregion@RegionInput@@IAEXXZ 0047a492 f   RegionInput.obj
 0001:00079cf0       ?OnOpenregion@RegionInput@@IAEXXZ 0047acf0 f   RegionInput.obj
 0001:0007a834       ?OnInitDialog@RegionInput@@MAEHXZ 0047b834 f   RegionInput.obj
 0001:0007a9f6       ?OnKillfocusMajorTarget@RegionInput@@IAEXXZ 0047b9f6 f   RegionInput.obj
 0001:0007aa1a       ?OnKillfocusRegionName@RegionInput@@IAEXXZ 0047ba1a f   RegionInput.obj
 0001:0007ac21       ?OnFarming@RegionInput@@IAEXXZ 0047bc21 f   RegionInput.obj
 0001:0007ac47       ?OnChangeStartGridID@RegionInput@@IAEXXZ 0047bc47 f   RegionInput.obj
 0001:0007ac95       ?OnOK@RegionInput@@MAEXXZ  0047bc95 f   RegionInput.obj
 0001:0007ad6f       ?OnButton1@RegionInput@@IAEXXZ 0047bd6f f   RegionInput.obj
 0001:0007b38b       ?OnDataConversion@RegionInput@@IAEXXZ 0047c38b f   RegionInput.obj
 0001:0007cf4d       ?OnDrought2@RegionInput@@IAEXXZ 0047df4d f   RegionInput.obj
 0001:0007d070       ??_GRegionInput@@UAEPAXI@Z 0047e070 f i RegionInput.obj
 0001:0007d070       ??_ERegionInput@@UAEPAXI@Z 0047e070 f i RegionInput.obj
 0001:0007d0b0       ??1RegionYear@@UAE@XZ      0047e0b0 f i RegionInput.obj
 0001:0007d170       ??0RegionMap@@QAE@PAVCWnd@@@Z 0047e170 f   RegionMap.obj
 0001:0007d1f3       ?DoDataExchange@RegionMap@@MAEXPAVCDataExchange@@@Z 0047e1f3 f   RegionMap.obj
 0001:0007d24c       ?GetMessageMap@RegionMap@@MBEPBUAFX_MSGMAP@@XZ 0047e24c f   RegionMap.obj
 0001:0007d263       ?OnDrawMap@RegionMap@@IAEXXZ 0047e263 f   RegionMap.obj
 0001:0007dca6       ?ReadGIS@RegionMap@@QAEXHHHPAD0@Z 0047eca6 f   RegionMap.obj
 0001:0007f9aa       ?DrawPolygon@RegionMap@@QAEXPAD00000HHH@Z 004809aa f   RegionMap.obj
 0001:0008261e       ?OnSelectOutputFile@RegionMap@@IAEXXZ 0048361e f   RegionMap.obj
 0001:00082adf       ?ReadOutput@RegionMap@@QAEXHH@Z 00483adf f   RegionMap.obj
 0001:00083290       ??_ERegionMap@@UAEPAXI@Z   00484290 f i RegionMap.obj
 0001:00083290       ??_GRegionMap@@UAEPAXI@Z   00484290 f i RegionMap.obj
 0001:000832d0       ??1RegionMap@@UAE@XZ       004842d0 f i RegionMap.obj
 0001:00083330       ??0RegionSelectCrops@@QAE@PAVCWnd@@@Z 00484330 f   RegionSelectCrops.obj
 0001:0008358c       ?DoDataExchange@RegionSelectCrops@@MAEXPAVCDataExchange@@@Z 0048458c f   RegionSelectCrops.obj
 0001:000839af       ?GetMessageMap@RegionSelectCrops@@MBEPBUAFX_MSGMAP@@XZ 004849af f   RegionSelectCrops.obj
 0001:000839c6       ?OnOK@RegionSelectCrops@@MAEXXZ 004849c6 f   RegionSelectCrops.obj
 0001:000839f4       ?OnCheck0@RegionSelectCrops@@IAEXXZ 004849f4 f   RegionSelectCrops.obj
 0001:00084320       ??_GRegionSelectCrops@@UAEPAXI@Z 00485320 f i RegionSelectCrops.obj
 0001:00084320       ??_ERegionSelectCrops@@UAEPAXI@Z 00485320 f i RegionSelectCrops.obj
 0001:00084360       ??1RegionSelectCrops@@UAE@XZ 00485360 f i RegionSelectCrops.obj
 0001:00084390       ??0RegionYear@@QAE@PAVCWnd@@@Z 00485390 f   RegionYear.obj
 0001:00084547       ?DoDataExchange@RegionYear@@MAEXPAVCDataExchange@@@Z 00485547 f   RegionYear.obj
 0001:000847a6       ?GetMessageMap@RegionYear@@MBEPBUAFX_MSGMAP@@XZ 004857a6 f   RegionYear.obj
 0001:000847bd       ?OnInitDialog@RegionYear@@MAEHXZ 004857bd f   RegionYear.obj
 0001:00084fab       ?OnOK@RegionYear@@MAEXXZ   00485fab f   RegionYear.obj
 0001:0008537c       ?OnDataCopy@RegionYear@@IAEXXZ 0048637c f   RegionYear.obj
 0001:00085710       ?OnAf@RegionYear@@IAEXXZ   00486710 f   RegionYear.obj
 0001:00085790       ??_ERegionYear@@UAEPAXI@Z  00486790 f i RegionYear.obj
 0001:00085790       ??_GRegionYear@@UAEPAXI@Z  00486790 f i RegionYear.obj
 0001:000857d0       ??0RunoffCN@@QAE@PAVCWnd@@@Z 004867d0 f   RunoffCN.obj
 0001:0008580b       ?DoDataExchange@RunoffCN@@MAEXPAVCDataExchange@@@Z 0048680b f   RunoffCN.obj
 0001:00085835       ?GetMessageMap@RunoffCN@@MBEPBUAFX_MSGMAP@@XZ 00486835 f   RunoffCN.obj
 0001:00085850       ??_ERunoffCN@@UAEPAXI@Z    00486850 f i RunoffCN.obj
 0001:00085850       ??_GRunoffCN@@UAEPAXI@Z    00486850 f i RunoffCN.obj
 0001:00085890       ??1RunoffCN@@UAE@XZ        00486890 f i RunoffCN.obj
 0001:000858c0       ??0SaveSoilYear@@QAE@PAVCWnd@@@Z 004868c0 f   SaveSoilYear.obj
 0001:00085940       ?DoDataExchange@SaveSoilYear@@MAEXPAVCDataExchange@@@Z 00486940 f   SaveSoilYear.obj
 0001:00085996       ?GetMessageMap@SaveSoilYear@@MBEPBUAFX_MSGMAP@@XZ 00486996 f   SaveSoilYear.obj
 0001:000859ad       ?OnSaveSoil@SaveSoilYear@@IAEXXZ 004869ad f   SaveSoilYear.obj
 0001:00085c19       ?OnSoilStatusFile@SaveSoilYear@@IAEXXZ 00486c19 f   SaveSoilYear.obj
 0001:00085f10       ??_ESaveSoilYear@@UAEPAXI@Z 00486f10 f i SaveSoilYear.obj
 0001:00085f10       ??_GSaveSoilYear@@UAEPAXI@Z 00486f10 f i SaveSoilYear.obj
 0001:00085f50       ??0ScreenMonitor@@QAE@PAVCWnd@@@Z 00486f50 f   ScreenMonitor.obj
 0001:00085f8b       ?DoDataExchange@ScreenMonitor@@MAEXPAVCDataExchange@@@Z 00486f8b f   ScreenMonitor.obj
 0001:00085fb5       ?GetMessageMap@ScreenMonitor@@MBEPBUAFX_MSGMAP@@XZ 00486fb5 f   ScreenMonitor.obj
 0001:00085fd0       ??_EScreenMonitor@@UAEPAXI@Z 00486fd0 f i ScreenMonitor.obj
 0001:00085fd0       ??_GScreenMonitor@@UAEPAXI@Z 00486fd0 f i ScreenMonitor.obj
 0001:00086010       ??0CSCSDlg@@QAE@PAVCWnd@@@Z 00487010 f   SCSDlg.obj
 0001:000860cc       ?DoDataExchange@CSCSDlg@@MAEXPAVCDataExchange@@@Z 004870cc f   SCSDlg.obj
 0001:00086228       ?GetMessageMap@CSCSDlg@@MBEPBUAFX_MSGMAP@@XZ 00487228 f   SCSDlg.obj
 0001:0008623f       ?OnCancel@CSCSDlg@@MAEXXZ  0048723f f   SCSDlg.obj
 0001:00086265       ?OnSCSOk@CSCSDlg@@IAEXXZ   00487265 f   SCSDlg.obj
 0001:000863d6       ?OnRButtonDown@CSCSDlg@@IAEXIVCPoint@@@Z 004873d6 f   SCSDlg.obj
 0001:00086408       ?OnInitDialog@CSCSDlg@@MAEHXZ 00487408 f   SCSDlg.obj
 0001:0008656e       ?OnFindCN@CSCSDlg@@IAEXXZ  0048756e f   SCSDlg.obj
 0001:00086580       ?OnReadCN@CSCSDlg@@IAEXXZ  00487580 f   SCSDlg.obj
 0001:000865f1       ?OnLandRough@CSCSDlg@@IAEXXZ 004875f1 f   SCSDlg.obj
 0001:00086662       ?OnChannelRough2@CSCSDlg@@IAEXXZ 00487662 f   SCSDlg.obj
 0001:000866e0       ??_ECSCSDlg@@UAEPAXI@Z     004876e0 f i SCSDlg.obj
 0001:000866e0       ??_GCSCSDlg@@UAEPAXI@Z     004876e0 f i SCSDlg.obj
 0001:00086720       ??1CSCSDlg@@UAE@XZ         00487720 f i SCSDlg.obj
 0001:00086750       ??0SelectIrriFile@@QAE@PAVCWnd@@@Z 00487750 f   SelectIrriFile.obj
 0001:000867c3       ?DoDataExchange@SelectIrriFile@@MAEXPAVCDataExchange@@@Z 004877c3 f   SelectIrriFile.obj
 0001:00086802       ?GetMessageMap@SelectIrriFile@@MBEPBUAFX_MSGMAP@@XZ 00487802 f   SelectIrriFile.obj
 0001:00086819       ?OnSelectAFile@SelectIrriFile@@IAEXXZ 00487819 f   SelectIrriFile.obj
 0001:00086af0       ??_GSelectIrriFile@@UAEPAXI@Z 00487af0 f i SelectIrriFile.obj
 0001:00086af0       ??_ESelectIrriFile@@UAEPAXI@Z 00487af0 f i SelectIrriFile.obj
 0001:00087a33       ?GetMessageMap@CLabelStatic@@MBEPBUAFX_MSGMAP@@XZ 00488a33 f   SelectRegionDlg.obj
 0001:00087a4a       ?SetText@CLabelStatic@@QAEXVCString@@@Z 00488a4a f   SelectRegionDlg.obj
 0001:00087b21       ?GetRect@CLabelStatic@@QAE?AVCRect@@XZ 00488b21 f   SelectRegionDlg.obj
 0001:00087bd3       ?OnPaint@CLabelStatic@@IAEXXZ 00488bd3 f   SelectRegionDlg.obj
 0001:00087ce5       ??0CSelectRegionDlg@@QAE@PAVCWnd@@@Z 00488ce5 f   SelectRegionDlg.obj
 0001:00087ee0       ??1CSelectRegionDlg@@UAE@XZ 00488ee0 f   SelectRegionDlg.obj
 0001:0008810e       ?DoDataExchange@CSelectRegionDlg@@MAEXPAVCDataExchange@@@Z 0048910e f   SelectRegionDlg.obj
 0001:00088194       ?GetMessageMap@CSelectRegionDlg@@MBEPBUAFX_MSGMAP@@XZ 00489194 f   SelectRegionDlg.obj
 0001:000881ab       ?OnInitDialog@CSelectRegionDlg@@MAEHXZ 004891ab f   SelectRegionDlg.obj
 0001:000883ef       ?SetLayerSelected@CSelectRegionDlg@@QAEXVCString@@0000@Z 004893ef f   SelectRegionDlg.obj
 0001:000884cc       ?AddLayer@CSelectRegionDlg@@QAEXVCString@@HK_NK@Z 004894cc f   SelectRegionDlg.obj
 0001:000885b5       ?GetEventSinkMap@CSelectRegionDlg@@MBEPBUAFX_EVENTSINKMAP@@XZ 004895b5 f   SelectRegionDlg.obj
 0001:000885cc       ?OnMouseMoveMap@CSelectRegionDlg@@IAEXFFJJ@Z 004895cc f   SelectRegionDlg.obj
 0001:00088a4b       ?DrawSelection@CSelectRegionDlg@@IAEXXZ 00489a4b f   SelectRegionDlg.obj
 0001:00088af6       ?OnMouseDownMap@CSelectRegionDlg@@IAEXFFJJ@Z 00489af6 f   SelectRegionDlg.obj
 0001:00088bb2       ?OnMouseUpMap@CSelectRegionDlg@@IAEXFFJJ@Z 00489bb2 f   SelectRegionDlg.obj
 0001:00089303       ?OnZoomin@CSelectRegionDlg@@IAEXXZ 0048a303 f   SelectRegionDlg.obj
 0001:00089322       ?OnZoomout@CSelectRegionDlg@@IAEXXZ 0048a322 f   SelectRegionDlg.obj
 0001:000893ed       ?OnPan@CSelectRegionDlg@@IAEXXZ 0048a3ed f   SelectRegionDlg.obj
 0001:0008940c       ?OnFullmap@CSelectRegionDlg@@IAEXXZ 0048a40c f   SelectRegionDlg.obj
 0001:0008949e       ?OnSetCursor@CSelectRegionDlg@@IAEHPAVCWnd@@II@Z 0048a49e f   SelectRegionDlg.obj
 0001:000895ac       ?OnAfterTrackingLayerDrawMap@CSelectRegionDlg@@IAEXJ@Z 0048a5ac f   SelectRegionDlg.obj
 0001:000895d2       ?SetValueMapLayer@CSelectRegionDlg@@QAEXVCString@@0@Z 0048a5d2 f   SelectRegionDlg.obj
 0001:00089655       ?ValueMapLayer@CSelectRegionDlg@@IAEXXZ 0048a655 f   SelectRegionDlg.obj
 0001:000899d9       ?OnPaint@CSelectRegionDlg@@IAEXXZ 0048a9d9 f   SelectRegionDlg.obj
 0001:00089a17       ?County_data@CSelectRegionDlg@@QAEXVCString@@H@Z 0048aa17 f   SelectRegionDlg.obj
 0001:0008a3e3       ?OnInitDialog1@CSelectRegionDlg@@QAEHXZ 0048b3e3 f   SelectRegionDlg.obj
 0001:0008a771       ?OnSelchangeWizardCrops@CSelectRegionDlg@@IAEXXZ 0048b771 f   SelectRegionDlg.obj
 0001:0008a7ca       ?OnOK@CSelectRegionDlg@@MAEXXZ 0048b7ca f   SelectRegionDlg.obj
 0001:0008a7ee       ?SaveRegionDatatoFile@CSelectRegionDlg@@QAEXXZ 0048b7ee f   SelectRegionDlg.obj
 0001:0008be12       ?OptimumYield@CSelectRegionDlg@@QAEMH@Z 0048ce12 f   SelectRegionDlg.obj
 0001:0008c0bf       ?clay_texture@CSelectRegionDlg@@QAEHM@Z 0048d0bf f   SelectRegionDlg.obj
 0001:0008c1ef       ?OnLandCover@CSelectRegionDlg@@IAEXXZ 0048d1ef f   SelectRegionDlg.obj
 0001:0008c57a       ?OnAfterLayerDrawMap@CSelectRegionDlg@@IAEXFHJ@Z 0048d57a f   SelectRegionDlg.obj
 0001:0008c58e       ?OnBeforeTrackingLayerDrawMap@CSelectRegionDlg@@IAEXJ@Z 0048d58e f   SelectRegionDlg.obj
 0001:0008c5a2       ?OnBeforeLayerDrawMap@CSelectRegionDlg@@IAEXFJ@Z 0048d5a2 f   SelectRegionDlg.obj
 0001:0008c5b6       ?OnSelectFarm@CSelectRegionDlg@@IAEXXZ 0048d5b6 f   SelectRegionDlg.obj
 0001:0008c5d5       ?ConvertClimateFile@@YA?AVCString@@PAD0@Z 0048d5d5 f   SelectRegionDlg.obj
 0001:0008c800       ??0CMoRecordset@@QAE@XZ    0048d800 f i SelectRegionDlg.obj
 0001:0008c830       ??_ECSelectRegionDlg@@UAEPAXI@Z 0048d830 f i SelectRegionDlg.obj
 0001:0008c830       ??_GCSelectRegionDlg@@UAEPAXI@Z 0048d830 f i SelectRegionDlg.obj
 0001:0008c870       ??0CLabelStatic@@QAE@XZ    0048d870 f i SelectRegionDlg.obj
 0001:0008c8e0       ??1CLabelStatic@@UAE@XZ    0048d8e0 f i SelectRegionDlg.obj
 0001:0008c940       ??0CMoMap@@QAE@XZ          0048d940 f i SelectRegionDlg.obj
 0001:0008c970       ?Create@CMoMap@@UAEHPBD0KABUtagRECT@@PAVCWnd@@IPAUCCreateContext@@@Z 0048d970 f i SelectRegionDlg.obj
 0001:0008c9c0       ?GetClsid@CMoMap@@QAEABU_GUID@@XZ 0048d9c0 f i SelectRegionDlg.obj
 0001:0008c9e0       ??1CMoMap@@UAE@XZ          0048d9e0 f i SelectRegionDlg.obj
 0001:0008ca10       ??0?$CTypedPtrArray@VCPtrArray@@PAULAYERINFO@@@@QAE@XZ 0048da10 f i SelectRegionDlg.obj
 0001:0008ca40       ??1?$CTypedPtrArray@VCPtrArray@@PAULAYERINFO@@@@UAE@XZ 0048da40 f i SelectRegionDlg.obj
 0001:0008ca70       ??1CMoRecordset@@QAE@XZ    0048da70 f i SelectRegionDlg.obj
 0001:0008caa0       ??_GCLabelStatic@@UAEPAXI@Z 0048daa0 f i SelectRegionDlg.obj
 0001:0008caa0       ??_ECLabelStatic@@UAEPAXI@Z 0048daa0 f i SelectRegionDlg.obj
 0001:0008cae0       ??_ECMoMap@@UAEPAXI@Z      0048dae0 f i SelectRegionDlg.obj
 0001:0008cae0       ??_GCMoMap@@UAEPAXI@Z      0048dae0 f i SelectRegionDlg.obj
 0001:0008cb20       ??_E?$CTypedPtrArray@VCPtrArray@@PAULAYERINFO@@@@UAEPAXI@Z 0048db20 f i SelectRegionDlg.obj
 0001:0008cb20       ??_G?$CTypedPtrArray@VCPtrArray@@PAULAYERINFO@@@@UAEPAXI@Z 0048db20 f i SelectRegionDlg.obj
 0001:0008cb60       ??_GLAYERINFO@@QAEPAXI@Z   0048db60 f i SelectRegionDlg.obj
 0001:0008cba0       ??1LAYERINFO@@QAE@XZ       0048dba0 f i SelectRegionDlg.obj
 0001:0008cbd0       ??0CMoDataConnection@@QAE@XZ 0048dbd0 f i SelectRegionDlg.obj
 0001:0008cc00       ??0CMoMapLayer@@QAE@XZ     0048dc00 f i SelectRegionDlg.obj
 0001:0008cc30       ??1CMoDataConnection@@QAE@XZ 0048dc30 f i SelectRegionDlg.obj
 0001:0008cc60       ??1CMoMapLayer@@QAE@XZ     0048dc60 f i SelectRegionDlg.obj
 0001:0008cc90       ??1CMoGeoDataset@@QAE@XZ   0048dc90 f i SelectRegionDlg.obj
 0001:0008ccc0       ??1CMoSymbol@@QAE@XZ       0048dcc0 f i SelectRegionDlg.obj
 0001:0008ccf0       ??1CMoLayers@@QAE@XZ       0048dcf0 f i SelectRegionDlg.obj
 0001:0008cd20       ??0LAYERINFO@@QAE@XZ       0048dd20 f i SelectRegionDlg.obj
 0001:0008cd50       ??0CMoMapLayer@@QAE@PAUIDispatch@@@Z 0048dd50 f i SelectRegionDlg.obj
 0001:0008cd80       ??0CMoPoint@@QAE@XZ        0048dd80 f i SelectRegionDlg.obj
 0001:0008cdb0       ??1CMoPoint@@QAE@XZ        0048ddb0 f i SelectRegionDlg.obj
 0001:0008cde0       ??4CMoMapLayer@@QAEAAV0@ABV0@@Z 0048dde0 f i SelectRegionDlg.obj
 0001:0008ce10       ??4CMoPoint@@QAEAAV0@ABV0@@Z 0048de10 f i SelectRegionDlg.obj
 0001:0008ce40       ??4CMoRecordset@@QAEAAV0@ABV0@@Z 0048de40 f i SelectRegionDlg.obj
 0001:0008ce70       ??1CMoFields@@QAE@XZ       0048de70 f i SelectRegionDlg.obj
 0001:0008cea0       ??1CMoField@@QAE@XZ        0048dea0 f i SelectRegionDlg.obj
 0001:0008ced0       ??0CMoSymbol@@QAE@XZ       0048ded0 f i SelectRegionDlg.obj
 0001:0008cf00       ??1CMoRectangle@@QAE@XZ    0048df00 f i SelectRegionDlg.obj
 0001:0008cf30       ??1CMoTrackingLayer@@QAE@XZ 0048df30 f i SelectRegionDlg.obj
 0001:0008cf60       ??0CMoRectangle@@QAE@XZ    0048df60 f i SelectRegionDlg.obj
 0001:0008cf90       ??4CMoRectangle@@QAEAAV0@ABV0@@Z 0048df90 f i SelectRegionDlg.obj
 0001:0008cfc0       ??0CMoValueMapRenderer@@QAE@XZ 0048dfc0 f i SelectRegionDlg.obj
 0001:0008cff0       ??1CMoValueMapRenderer@@QAE@XZ 0048dff0 f i SelectRegionDlg.obj
 0001:0008d020       ??0CMoClassBreaksRenderer@@QAE@XZ 0048e020 f i SelectRegionDlg.obj
 0001:0008d050       ??1CMoClassBreaksRenderer@@QAE@XZ 0048e050 f i SelectRegionDlg.obj
 0001:0008d080       ?GetAt@?$CTypedPtrArray@VCPtrArray@@PAULAYERINFO@@@@QBEPAULAYERINFO@@H@Z 0048e080 f i SelectRegionDlg.obj
 0001:0008d0b0       ?Add@?$CTypedPtrArray@VCPtrArray@@PAULAYERINFO@@@@QAEHPAULAYERINFO@@@Z 0048e0b0 f i SelectRegionDlg.obj
 0001:0008d0e0       ??0SelectShapeMap@@QAE@PAVCWnd@@@Z 0048e0e0 f   SelectShapeMap.obj
 0001:0008d160       ?DoDataExchange@SelectShapeMap@@MAEXPAVCDataExchange@@@Z 0048e160 f   SelectShapeMap.obj
 0001:0008d1b6       ?GetMessageMap@SelectShapeMap@@MBEPBUAFX_MSGMAP@@XZ 0048e1b6 f   SelectShapeMap.obj
 0001:0008d1cd       ?OnSelectShapeFile@SelectShapeMap@@IAEXXZ 0048e1cd f   SelectShapeMap.obj
 0001:0008d452       ?OnOK@SelectShapeMap@@MAEXXZ 0048e452 f   SelectShapeMap.obj
 0001:0008d5b0       ??_ESelectShapeMap@@UAEPAXI@Z 0048e5b0 f i SelectShapeMap.obj
 0001:0008d5b0       ??_GSelectShapeMap@@UAEPAXI@Z 0048e5b0 f i SelectShapeMap.obj
 0001:0008d5f0       ?CreateObject@SitePage1@@SGPAVCObject@@XZ 0048e5f0 f   SitePage1.obj
 0001:0008d67d       ?GetRuntimeClass@SitePage1@@UBEPAUCRuntimeClass@@XZ 0048e67d f   SitePage1.obj
 0001:0008d694       ??0SitePage1@@QAE@XZ       0048e694 f   SitePage1.obj
 0001:0008d813       ??1SitePage1@@UAE@XZ       0048e813 f   SitePage1.obj
 0001:0008d8be       ?DoDataExchange@SitePage1@@MAEXPAVCDataExchange@@@Z 0048e8be f   SitePage1.obj
 0001:0008db14       ?GetMessageMap@SitePage1@@MBEPBUAFX_MSGMAP@@XZ 0048eb14 f   SitePage1.obj
 0001:0008db2b       ?OnSetActive@SitePage1@@UAEHXZ 0048eb2b f   SitePage1.obj
 0001:0008dd9c       ?OnShowWindow@SitePage1@@IAEXHI@Z 0048ed9c f   SitePage1.obj
 0001:0008ddda       ?OnSelClimateFile@SitePage1@@IAEXXZ 0048edda f   SitePage1.obj
 0001:0008de08       ?OnDblclkClimateFileList@SitePage1@@IAEXXZ 0048ee08 f   SitePage1.obj
 0001:0008deb7       ?OnNewsite@SitePage1@@IAEXXZ 0048eeb7 f   SitePage1.obj
 0001:0008defe       ?OnOpensite@SitePage1@@IAEXXZ 0048eefe f   SitePage1.obj
 0001:0008e19a       ?OnSavesite@SitePage1@@IAEXXZ 0048f19a f   SitePage1.obj
 0001:0008eacf       ?OnInitDialog@SitePage1@@MAEHXZ 0048facf f   SitePage1.obj
 0001:0008eb0f       ?OnAcceptClimate@SitePage1@@IAEXXZ 0048fb0f f   SitePage1.obj
 0001:0008eb33       ?OnRButtonDown@SitePage1@@IAEXIVCPoint@@@Z 0048fb33 f   SitePage1.obj
 0001:0008eb65       ?OnSiteRecover@SitePage1@@IAEXXZ 0048fb65 f   SitePage1.obj
 0001:0008eb8b       ?OnMoveDown@SitePage1@@IAEXXZ 0048fb8b f   SitePage1.obj
 0001:0008ebaf       ?OnMoveUp@SitePage1@@IAEXXZ 0048fbaf f   SitePage1.obj
 0001:0008ebd3       ?OnRecordDaily@SitePage1@@IAEXXZ 0048fbd3 f   SitePage1.obj
 0001:0008ebe5       ?OnUse1File@SitePage1@@IAEXXZ 0048fbe5 f   SitePage1.obj
 0001:0008ec3d       ?OnSelLAIfile@SitePage1@@IAEXXZ 0048fc3d f   SitePage1.obj
 0001:0008ee91       ?OnSelchangeMetYear@SitePage1@@IAEXXZ 0048fe91 f   SitePage1.obj
 0001:0008efa3       ?get_defaults@SitePage1@@QAEXXZ 0048ffa3 f   SitePage1.obj
 0001:0008f02e       ?OnDefaulClimate@SitePage1@@IAEXXZ 0049002e f   SitePage1.obj
 0001:0008f0c4       ?OnDefault@SitePage1@@IAEXXZ 004900c4 f   SitePage1.obj
 0001:0008f1b4       ?OnWaterYear@SitePage1@@IAEXXZ 004901b4 f   SitePage1.obj
 0001:0008f240       ?OnKillfocusYears@SitePage1@@IAEXXZ 00490240 f   SitePage1.obj
 0001:0008f390       ?AcceptPage1@SitePage1@@QAEXXZ 00490390 f   SitePage1.obj
 0001:0008f9f7       ?SelectClimFile@SitePage1@@QAEXXZ 004909f7 f   SitePage1.obj
 0001:0008fc70       ?ClimMoveDown@SitePage1@@QAEXXZ 00490c70 f   SitePage1.obj
 0001:0008fd6d       ?ClimMoveUp@SitePage1@@QAEXXZ 00490d6d f   SitePage1.obj
 0001:0008fe6a       ?OnCListFileName@SitePage1@@IAEXXZ 00490e6a f   SitePage1.obj
 0001:0009018f       ?EraseSpaceB@@YAPADPAD@Z   0049118f f   SitePage1.obj
 0001:00090219       ?OnCO2file@SitePage1@@IAEXXZ 00491219 f   SitePage1.obj
 0001:000902b0       ??_GSitePage1@@UAEPAXI@Z   004912b0 f i SitePage1.obj
 0001:000902b0       ??_ESitePage1@@UAEPAXI@Z   004912b0 f i SitePage1.obj
 0001:0009034b       ?CreateObject@SitePage10@@SGPAVCObject@@XZ 0049134b f   SitePage10.obj
 0001:000903d8       ?GetRuntimeClass@SitePage10@@UBEPAUCRuntimeClass@@XZ 004913d8 f   SitePage10.obj
 0001:000903ef       ??0SitePage10@@QAE@XZ      004913ef f   SitePage10.obj
 0001:000904f7       ??1SitePage10@@UAE@XZ      004914f7 f   SitePage10.obj
 0001:00090583       ?DoDataExchange@SitePage10@@MAEXPAVCDataExchange@@@Z 00491583 f   SitePage10.obj
 0001:000906c9       ?GetMessageMap@SitePage10@@MBEPBUAFX_MSGMAP@@XZ 004916c9 f   SitePage10.obj
 0001:000906e0       ?OnSetActive@SitePage10@@UAEHXZ 004916e0 f   SitePage10.obj
 0001:00090c05       ?GetEventSinkMap@SitePage10@@MBEPBUAFX_EVENTSINKMAP@@XZ 00491c05 f   SitePage10.obj
 0001:00090c1c       ?OnIrrOption0@SitePage10@@IAEXXZ 00491c1c f   SitePage10.obj
 0001:00090dfd       ?OnIrrOption1@SitePage10@@IAEXXZ 00491dfd f   SitePage10.obj
 0001:00090fba       ?OnKillfocusirrigationN@SitePage10@@IAEXXZ 00491fba f   SitePage10.obj
 0001:00090fcc       ?OnKillfocusirrigationID@SitePage10@@IAEXXZ 00491fcc f   SitePage10.obj
 0001:00090fde       ?OnIrrAccept@SitePage10@@IAEXXZ 00491fde f   SitePage10.obj
 0001:00091259       ?OnIrrLast@SitePage10@@IAEXXZ 00492259 f   SitePage10.obj
 0001:000913a7       ?OnIrrNext@SitePage10@@IAEXXZ 004923a7 f   SitePage10.obj
 0001:000914fd       ?OnChangeIrrIndex@SitePage10@@IAEXXZ 004924fd f   SitePage10.obj
 0001:0009150f       ?OnKillfocusirrigationMonth@SitePage10@@IAEXXZ 0049250f f   SitePage10.obj
 0001:00091535       ?OnKillfocusirrigationDay@SitePage10@@IAEXXZ 00492535 f   SitePage10.obj
 0001:0009155b       ?OnKillfocusirrigationAmount@SitePage10@@IAEXXZ 0049255b f   SitePage10.obj
 0001:00091581       ?OnKillfocusirrigationpH@SitePage10@@IAEXXZ 00492581 f   SitePage10.obj
 0001:000915a7       ?OnInitDialog@SitePage10@@MAEHXZ 004925a7 f   SitePage10.obj
 0001:0009164e       ?demo@SitePage10@@QAEXXZ   0049264e f   SitePage10.obj
 0001:00091860       ??_GSitePage10@@UAEPAXI@Z  00492860 f i SitePage10.obj
 0001:00091860       ??_ESitePage10@@UAEPAXI@Z  00492860 f i SitePage10.obj
 0001:000918fb       ?CreateObject@SitePage11@@SGPAVCObject@@XZ 004928fb f   SitePage11.obj
 0001:00091988       ?GetRuntimeClass@SitePage11@@UBEPAUCRuntimeClass@@XZ 00492988 f   SitePage11.obj
 0001:0009199f       ??0SitePage11@@QAE@XZ      0049299f f   SitePage11.obj
 0001:00091b31       ??1SitePage11@@UAE@XZ      00492b31 f   SitePage11.obj
 0001:00091bab       ?DoDataExchange@SitePage11@@MAEXPAVCDataExchange@@@Z 00492bab f   SitePage11.obj
 0001:00091e8a       ?GetMessageMap@SitePage11@@MBEPBUAFX_MSGMAP@@XZ 00492e8a f   SitePage11.obj
 0001:00091ea1       ?OnKillfocusGrazingN@SitePage11@@IAEXXZ 00492ea1 f   SitePage11.obj
 0001:00091eb3       ?OnKillfocusGrazingID@SitePage11@@IAEXXZ 00492eb3 f   SitePage11.obj
 0001:00091ec5       ?OnSetActive@SitePage11@@UAEHXZ 00492ec5 f   SitePage11.obj
 0001:000928a7       ?OnGAccept@SitePage11@@IAEXXZ 004938a7 f   SitePage11.obj
 0001:000930c9       ?OnGLast@SitePage11@@IAEXXZ 004940c9 f   SitePage11.obj
 0001:0009331f       ?OnGNext@SitePage11@@IAEXXZ 0049431f f   SitePage11.obj
 0001:0009357d       ?OnKillfocusGSMonth@SitePage11@@IAEXXZ 0049457d f   SitePage11.obj
 0001:000935a3       ?OnKillfocusGSDay@SitePage11@@IAEXXZ 004945a3 f   SitePage11.obj
 0001:000935c9       ?OnKillfocusGEMonth@SitePage11@@IAEXXZ 004945c9 f   SitePage11.obj
 0001:000935ef       ?OnKillfocusGEDay@SitePage11@@IAEXXZ 004945ef f   SitePage11.obj
 0001:00093615       ?GetEventSinkMap@SitePage11@@MBEPBUAFX_EVENTSINKMAP@@XZ 00494615 f   SitePage11.obj
 0001:0009362c       ?OnKillfocusSheepHead@SitePage11@@IAEXXZ 0049462c f   SitePage11.obj
 0001:00093652       ?OnKillfocusHorseHead@SitePage11@@IAEXXZ 00494652 f   SitePage11.obj
 0001:00093678       ?OnKillfocusCattleHead@SitePage11@@IAEXXZ 00494678 f   SitePage11.obj
 0001:0009369e       ?OnKillfocusGrazingHour@SitePage11@@IAEXXZ 0049469e f   SitePage11.obj
 0001:000936c4       ?OnInitDialog@SitePage11@@MAEHXZ 004946c4 f   SitePage11.obj
 0001:000937ea       ?demo@SitePage11@@QAEXXZ   004947ea f   SitePage11.obj
 0001:00093cfa       ?OnCutLast@SitePage11@@IAEXXZ 00494cfa f   SitePage11.obj
 0001:0009433b       ?OnCutNext@SitePage11@@IAEXXZ 0049533b f   SitePage11.obj
 0001:00094990       ??_GSitePage11@@UAEPAXI@Z  00495990 f i SitePage11.obj
 0001:00094990       ??_ESitePage11@@UAEPAXI@Z  00495990 f i SitePage11.obj
 0001:000949d0       ?CreateObject@SitePage2@@SGPAVCObject@@XZ 004959d0 f   SitePage2.obj
 0001:00094a5d       ?GetRuntimeClass@SitePage2@@UBEPAUCRuntimeClass@@XZ 00495a5d f   SitePage2.obj
 0001:00094a74       ??0SitePage2@@QAE@XZ       00495a74 f   SitePage2.obj
 0001:00094d65       ??1SitePage2@@UAE@XZ       00495d65 f   SitePage2.obj
 0001:00094e06       ?DoDataExchange@SitePage2@@MAEXPAVCDataExchange@@@Z 00495e06 f   SitePage2.obj
 0001:000952cf       ?GetMessageMap@SitePage2@@MBEPBUAFX_MSGMAP@@XZ 004962cf f   SitePage2.obj
 0001:000952e6       ?OnInitDialog@SitePage2@@MAEHXZ 004962e6 f   SitePage2.obj
 0001:00095412       ?OnSetActive@SitePage2@@UAEHXZ 00496412 f   SitePage2.obj
 0001:00095be9       ?GetSoilParas@SitePage2@@QAEXXZ 00496be9 f   SitePage2.obj
 0001:00095de9       ?OnSoilRecover@SitePage2@@IAEXXZ 00496de9 f   SitePage2.obj
 0001:00095e8b       ?EditParameter@SitePage2@@QAEHXZ 00496e8b f   SitePage2.obj
 0001:00095f2c       ?SetSoilOrganicPart@SitePage2@@QAEXH@Z 00496f2c f   SitePage2.obj
 0001:000960c7       ?OnKillfocusSoilDensity@SitePage2@@IAEXXZ 004970c7 f   SitePage2.obj
 0001:000960d9       ?OnKillfocusSoilClay@SitePage2@@IAEXXZ 004970d9 f   SitePage2.obj
 0001:000960eb       ?SetSoilDensity@SitePage2@@QAEHXZ 004970eb f   SitePage2.obj
 0001:000961b8       ?OnKillfocusSoilLitter@SitePage2@@IAEXXZ 004971b8 f   SitePage2.obj
 0001:00096263       ?OnKillfocusSoilHumads@SitePage2@@IAEXXZ 00497263 f   SitePage2.obj
 0001:0009630e       ?OnKillfocusSoilHumus@SitePage2@@IAEXXZ 0049730e f   SitePage2.obj
 0001:000963b9       ?OnAcceptSoil@SitePage2@@IAEXXZ 004973b9 f   SitePage2.obj
 0001:0009683b       ?OnKillfocusSoilpH@SitePage2@@IAEXXZ 0049783b f   SitePage2.obj
 0001:0009684d       ?ChangeOthers@SitePage2@@QAEXXZ 0049784d f   SitePage2.obj
 0001:00096bb8       ?OnSoilDefault@SitePage2@@IAEXXZ 00497bb8 f   SitePage2.obj
 0001:00096bca       ?OnKillfocusFieldCapacity@SitePage2@@IAEXXZ 00497bca f   SitePage2.obj
 0001:00096bdc       ?OnKillfocusSoilWiltingPoint@SitePage2@@IAEXXZ 00497bdc f   SitePage2.obj
 0001:00096bee       ?OnSoilRetardation@SitePage2@@IAEXXZ 00497bee f   SitePage2.obj
 0001:00096c00       ?OnSoilRetardation1@SitePage2@@IAEXXZ 00497c00 f   SitePage2.obj
 0001:00096c12       ?OnSOMdefine@SitePage2@@IAEXXZ 00497c12 f   SitePage2.obj
 0001:00096e0a       ?OnSOMprofile@SitePage2@@IAEXXZ 00497e0a f   SitePage2.obj
 0001:00096eaf       ?OnSoilbypassYes@SitePage2@@IAEXXZ 00497eaf f   SitePage2.obj
 0001:00096f5e       ?OnSoilbypass@SitePage2@@IAEXXZ 00497f5e f   SitePage2.obj
 0001:0009700d       ?OnKillfocusBulkCN@SitePage2@@IAEXXZ 0049800d f   SitePage2.obj
 0001:000972f9       ?OnWaterLoggingYes@SitePage2@@IAEXXZ 004982f9 f   SitePage2.obj
 0001:000973b9       ?OnWaterLoggingNo@SitePage2@@IAEXXZ 004983b9 f   SitePage2.obj
 0001:00097479       ?OnDCfactor@SitePage2@@IAEXXZ 00498479 f   SitePage2.obj
 0001:00097552       ?OnSCSCurve@SitePage2@@IAEXXZ 00498552 f   SitePage2.obj
 0001:00097564       ?OnRadio5@SitePage2@@IAEXXZ 00498564 f   SitePage2.obj
 0001:0009791d       ?OnProfileType@SitePage2@@IAEXXZ 0049891d f   SitePage2.obj
 0001:00097a43       ?OnSelchangeSoiltexture@SitePage2@@IAEXXZ 00498a43 f   SitePage2.obj
 0001:00097b67       ?OnKillfocusSoilOrganic@SitePage2@@IAEXXZ 00498b67 f   SitePage2.obj
 0001:00097dd5       ?OnSCSuse@SitePage2@@IAEXXZ 00498dd5 f   SitePage2.obj
 0001:00097e40       ??_ESitePage2@@UAEPAXI@Z   00498e40 f i SitePage2.obj
 0001:00097e40       ??_GSitePage2@@UAEPAXI@Z   00498e40 f i SitePage2.obj
 0001:00097e80       ?CreateObject@SitePage3@@SGPAVCObject@@XZ 00498e80 f   SitePage3.obj
 0001:00097f0d       ?GetRuntimeClass@SitePage3@@UBEPAUCRuntimeClass@@XZ 00498f0d f   SitePage3.obj
 0001:00097f24       ??0SitePage3@@QAE@XZ       00498f24 f   SitePage3.obj
 0001:0009805d       ??1SitePage3@@UAE@XZ       0049905d f   SitePage3.obj
 0001:0009810d       ?DoDataExchange@SitePage3@@MAEXPAVCDataExchange@@@Z 0049910d f   SitePage3.obj
 0001:0009829a       ?GetMessageMap@SitePage3@@MBEPBUAFX_MSGMAP@@XZ 0049929a f   SitePage3.obj
 0001:000982b1       ?OnSetActive@SitePage3@@UAEHXZ 004992b1 f   SitePage3.obj
 0001:0009875e       ?OnInputCrop@SitePage3@@IAEXXZ 0049975e f   SitePage3.obj
 0001:0009943e       ?SetCropTable@SitePage3@@QAEHH@Z 0049a43e f   SitePage3.obj
 0001:00099454       ?OnKillfocusCycleYear@SitePage3@@IAEXXZ 0049a454 f   SitePage3.obj
 0001:000994a7       ?OnLastRotation@SitePage3@@IAEXXZ 0049a4a7 f   SitePage3.obj
 0001:00099790       ?OnLastRotation2@SitePage3@@IAEXXZ 0049a790 f   SitePage3.obj
 0001:000997f7       ?OnNextRotation@SitePage3@@IAEXXZ 0049a7f7 f   SitePage3.obj
 0001:00099aeb       ?OnNextRotation2@SitePage3@@IAEXXZ 0049aaeb f   SitePage3.obj
 0001:00099b4c       ?GetEventSinkMap@SitePage3@@MBEPBUAFX_EVENTSINKMAP@@XZ 0049ab4c f   SitePage3.obj
 0001:00099b63       ?OnInitDialog@SitePage3@@MAEHXZ 0049ab63 f   SitePage3.obj
 0001:00099c0a       ?OnKillfocusRotationYear@SitePage3@@IAEXXZ 0049ac0a f   SitePage3.obj
 0001:00099cb7       ?demo@SitePage3@@QAEXXZ    0049acb7 f   SitePage3.obj
 0001:00099e76       ?OnKillfocusRotationN@SitePage3@@IAEXXZ 0049ae76 f   SitePage3.obj
 0001:00099f8d       ?Make0Files@SitePage3@@QAEXXZ 0049af8d f   SitePage3.obj
 0001:0009a980       ?OnSetfocusRotationCycles@SitePage3@@IAEXXZ 0049b980 f   SitePage3.obj
 0001:0009a9db       ?OnKillfocusSystem@SitePage3@@IAEXXZ 0049b9db f   SitePage3.obj
 0001:0009a9ed       ?OnSelchangeSystem@SitePage3@@IAEXXZ 0049b9ed f   SitePage3.obj
 0001:0009aadc       ?OnKillfocusSystemYears@SitePage3@@IAEXXZ 0049badc f   SitePage3.obj
 0001:0009ab1e       ?OnKillfocusOneCycleYears@SitePage3@@IAEXXZ 0049bb1e f   SitePage3.obj
 0001:0009ab60       ?OnViewRotation@SitePage3@@IAEXXZ 0049bb60 f   SitePage3.obj
 0001:0009ab94       ?DrawYearScale@SitePage3@@QAEXXZ 0049bb94 f   SitePage3.obj
 0001:0009afe3       ?DrawCycleCrops@SitePage3@@QAEXXZ 0049bfe3 f   SitePage3.obj
 0001:0009b6d3       ?ReadRotationCrops@SitePage3@@QAEXXZ 0049c6d3 f   SitePage3.obj
 0001:0009bce3       ?DrawYearMark@SitePage3@@QAEXXZ 0049cce3 f   SitePage3.obj
 0001:0009bf8b       ?OnManureFarmSoil@SitePage3@@IAEXXZ 0049cf8b f   SitePage3.obj
 0001:0009c020       ??_ESitePage3@@UAEPAXI@Z   0049d020 f i SitePage3.obj
 0001:0009c020       ??_GSitePage3@@UAEPAXI@Z   0049d020 f i SitePage3.obj
 0001:0009c0bb       ?CreateObject@SitePage4@@SGPAVCObject@@XZ 0049d0bb f   SitePage4.obj
 0001:0009c148       ?GetRuntimeClass@SitePage4@@UBEPAUCRuntimeClass@@XZ 0049d148 f   SitePage4.obj
 0001:0009c15f       ??0SitePage4@@QAE@XZ       0049d15f f   SitePage4.obj
 0001:0009c380       ??1SitePage4@@UAE@XZ       0049d380 f   SitePage4.obj
 0001:0009c3fa       ?DoDataExchange@SitePage4@@MAEXPAVCDataExchange@@@Z 0049d3fa f   SitePage4.obj
 0001:0009c749       ?GetMessageMap@SitePage4@@MBEPBUAFX_MSGMAP@@XZ 0049d749 f   SitePage4.obj
 0001:0009c760       ?OnKillfocusCropN@SitePage4@@IAEXXZ 0049d760 f   SitePage4.obj
 0001:0009c772       ?CheckCropN@SitePage4@@QAEHXZ 0049d772 f   SitePage4.obj
 0001:0009c789       ?CheckCropID@SitePage4@@QAEHXZ 0049d789 f   SitePage4.obj
 0001:0009c7a0       ?OnKillfocusCropHYear@SitePage4@@IAEXXZ 0049d7a0 f   SitePage4.obj
 0001:0009c7c6       ?OnKillfocusCropHMonth@SitePage4@@IAEXXZ 0049d7c6 f   SitePage4.obj
 0001:0009c826       ?OnKillfocusCropHDay@SitePage4@@IAEXXZ 0049d826 f   SitePage4.obj
 0001:0009c84c       ?SetPlantList@SitePage4@@QAEHXZ 0049d84c f   SitePage4.obj
 0001:0009ca26       ?OnSetActive@SitePage4@@UAEHXZ 0049da26 f   SitePage4.obj
 0001:0009da59       ?GetEventSinkMap@SitePage4@@MBEPBUAFX_EVENTSINKMAP@@XZ 0049ea59 f   SitePage4.obj
 0001:0009da70       ?OnCropNext@SitePage4@@IAEXXZ 0049ea70 f   SitePage4.obj
 0001:0009e66f       ?OnCropLast@SitePage4@@IAEXXZ 0049f66f f   SitePage4.obj
 0001:0009f26b       ?OnCropAccept@SitePage4@@IAEXXZ 004a026b f   SitePage4.obj
 0001:000a12a4       ?SetCropDefault@SitePage4@@QAEXPAVCropParameter@@@Z 004a22a4 f   SitePage4.obj
 0001:000a1518       ?OnKillfocusCropYield@SitePage4@@IAEXXZ 004a2518 f   SitePage4.obj
 0001:000a15f8       ?OnKillfocusCropPMonth@SitePage4@@IAEXXZ 004a25f8 f   SitePage4.obj
 0001:000a161e       ?OnKillfocusCropPDay@SitePage4@@IAEXXZ 004a261e f   SitePage4.obj
 0001:000a1644       ?OnKillfocusCropResidue@SitePage4@@IAEXXZ 004a2644 f   SitePage4.obj
 0001:000a166a       ?OnInitDialog@SitePage4@@MAEHXZ 004a266a f   SitePage4.obj
 0001:000a1735       ?OnSelchangeCropType@SitePage4@@IAEXXZ 004a2735 f   SitePage4.obj
 0001:000a1bb9       ?OnAskCartivar@SitePage4@@IAEXXZ 004a2bb9 f   SitePage4.obj
 0001:000a1bcb       ?OnKillfocusSeedDensity@SitePage4@@IAEXXZ 004a2bcb f   SitePage4.obj
 0001:000a1bf1       ?OnKillfocusPsnEfficiency@SitePage4@@IAEXXZ 004a2bf1 f   SitePage4.obj
 0001:000a1c17       ?OnKillfocusPsnMax@SitePage4@@IAEXXZ 004a2c17 f   SitePage4.obj
 0001:000a1c3d       ?OnKillfocusGrowthVegetative@SitePage4@@IAEXXZ 004a2c3d f   SitePage4.obj
 0001:000a1c63       ?OnKillfocusGrowthReproductive@SitePage4@@IAEXXZ 004a2c63 f   SitePage4.obj
 0001:000a1c89       ?OnCropModel@SitePage4@@IAEXXZ 004a2c89 f   SitePage4.obj
 0001:000a1d54       ?OnRadio2@SitePage4@@IAEXXZ 004a2d54 f   SitePage4.obj
 0001:000a1e1f       ?demo@SitePage4@@QAEXHH@Z  004a2e1f f   SitePage4.obj
 0001:000a2221       ?OnKillfocusShootYield@SitePage4@@IAEXXZ 004a3221 f   SitePage4.obj
 0001:000a2233       ?OnChangeCropN@SitePage4@@IAEXXZ 004a3233 f   SitePage4.obj
 0001:000a2252       ?OnCropParas@SitePage4@@IAEXXZ 004a3252 f   SitePage4.obj
 0001:000a2326       ?OnKillfocusRootYield@SitePage4@@IAEXXZ 004a3326 f   SitePage4.obj
 0001:000a2338       ?OnPerennialCrop@SitePage4@@IAEXXZ 004a3338 f   SitePage4.obj
 0001:000a234a       ?OnKillfocusGrainFraction@SitePage4@@IAEXXZ 004a334a f   SitePage4.obj
 0001:000a2518       ?OnKillfocusShootFRaction@SitePage4@@IAEXXZ 004a3518 f   SitePage4.obj
 0001:000a268a       ?TotalN@SitePage4@@QAEMXZ  004a368a f   SitePage4.obj
 0001:000a2728       ?OnKillfocusGrainCN@SitePage4@@IAEXXZ 004a3728 f   SitePage4.obj
 0001:000a2769       ?OnKillfocusShootCN@SitePage4@@IAEXXZ 004a3769 f   SitePage4.obj
 0001:000a27aa       ?OnKillfocusRootCN@SitePage4@@IAEXXZ 004a37aa f   SitePage4.obj
 0001:000a27f0       ??_GSitePage4@@UAEPAXI@Z   004a37f0 f i SitePage4.obj
 0001:000a27f0       ??_ESitePage4@@UAEPAXI@Z   004a37f0 f i SitePage4.obj
 0001:000a288b       ?CreateObject@SitePage5@@SGPAVCObject@@XZ 004a388b f   SitePage5.obj
 0001:000a2918       ?GetRuntimeClass@SitePage5@@UBEPAUCRuntimeClass@@XZ 004a3918 f   SitePage5.obj
 0001:000a292f       ??0SitePage5@@QAE@XZ       004a392f f   SitePage5.obj
 0001:000a29e4       ??1SitePage5@@UAE@XZ       004a39e4 f   SitePage5.obj
 0001:000a2a5e       ?DoDataExchange@SitePage5@@MAEXPAVCDataExchange@@@Z 004a3a5e f   SitePage5.obj
 0001:000a2b16       ?GetMessageMap@SitePage5@@MBEPBUAFX_MSGMAP@@XZ 004a3b16 f   SitePage5.obj
 0001:000a2b2d       ?OnKillfocustillN@SitePage5@@IAEXXZ 004a3b2d f   SitePage5.obj
 0001:000a2b3f       ?OnKillfocustillMonth@SitePage5@@IAEXXZ 004a3b3f f   SitePage5.obj
 0001:000a2b51       ?OnKillfocustillmethod@SitePage5@@IAEXXZ 004a3b51 f   SitePage5.obj
 0001:000a2b63       ?OnKillfocustillID@SitePage5@@IAEXXZ 004a3b63 f   SitePage5.obj
 0001:000a2b75       ?OnKillfocustillDay@SitePage5@@IAEXXZ 004a3b75 f   SitePage5.obj
 0001:000a2b87       ?OnSetActive@SitePage5@@UAEHXZ 004a3b87 f   SitePage5.obj
 0001:000a2e9b       ?OnTillAccept@SitePage5@@IAEXXZ 004a3e9b f   SitePage5.obj
 0001:000a30c8       ?GetEventSinkMap@SitePage5@@MBEPBUAFX_EVENTSINKMAP@@XZ 004a40c8 f   SitePage5.obj
 0001:000a30df       ?OnTillNext@SitePage5@@IAEXXZ 004a40df f   SitePage5.obj
 0001:000a31f1       ?OnTillLast@SitePage5@@IAEXXZ 004a41f1 f   SitePage5.obj
 0001:000a3327       ?OnInitDialog@SitePage5@@MAEHXZ 004a4327 f   SitePage5.obj
 0001:000a33c4       ?demo@SitePage5@@QAEXXZ    004a43c4 f   SitePage5.obj
 0001:000a3590       ??_ESitePage5@@UAEPAXI@Z   004a4590 f i SitePage5.obj
 0001:000a3590       ??_GSitePage5@@UAEPAXI@Z   004a4590 f i SitePage5.obj
 0001:000a362b       ?CreateObject@SitePage6@@SGPAVCObject@@XZ 004a462b f   SitePage6.obj
 0001:000a36b8       ?GetRuntimeClass@SitePage6@@UBEPAUCRuntimeClass@@XZ 004a46b8 f   SitePage6.obj
 0001:000a36cf       ??0SitePage6@@QAE@XZ       004a46cf f   SitePage6.obj
 0001:000a3888       ??1SitePage6@@UAE@XZ       004a4888 f   SitePage6.obj
 0001:000a3902       ?DoDataExchange@SitePage6@@MAEXPAVCDataExchange@@@Z 004a4902 f   SitePage6.obj
 0001:000a3b93       ?GetMessageMap@SitePage6@@MBEPBUAFX_MSGMAP@@XZ 004a4b93 f   SitePage6.obj
 0001:000a3baa       ?OnSetActive@SitePage6@@UAEHXZ 004a4baa f   SitePage6.obj
 0001:000a4c41       ?OnFerAccept@SitePage6@@IAEXXZ 004a5c41 f   SitePage6.obj
 0001:000a523d       ?OnFerLast@SitePage6@@IAEXXZ 004a623d f   SitePage6.obj
 0001:000a559b       ?OnFerNext@SitePage6@@IAEXXZ 004a659b f   SitePage6.obj
 0001:000a5901       ?GetEventSinkMap@SitePage6@@MBEPBUAFX_EVENTSINKMAP@@XZ 004a6901 f   SitePage6.obj
 0001:000a5918       ?OnRadio1@SitePage6@@IAEXXZ 004a6918 f   SitePage6.obj
 0001:000a5970       ?OnRadio2@SitePage6@@IAEXXZ 004a6970 f   SitePage6.obj
 0001:000a5994       ?OnKillfocusFerMonth@SitePage6@@IAEXXZ 004a6994 f   SitePage6.obj
 0001:000a59a6       ?OnKillfocusFerDay@SitePage6@@IAEXXZ 004a69a6 f   SitePage6.obj
 0001:000a59b8       ?OnKillfocusFerDepth@SitePage6@@IAEXXZ 004a69b8 f   SitePage6.obj
 0001:000a59de       ?OnKillfocusFerNitrate@SitePage6@@IAEXXZ 004a69de f   SitePage6.obj
 0001:000a5a04       ?OnKillfocusFerNH42HPO4@SitePage6@@IAEXXZ 004a6a04 f   SitePage6.obj
 0001:000a5a2a       ?OnKillfocusFerNH42SO4@SitePage6@@IAEXXZ 004a6a2a f   SitePage6.obj
 0001:000a5a50       ?OnKillfocusFerNH4NO3@SitePage6@@IAEXXZ 004a6a50 f   SitePage6.obj
 0001:000a5a76       ?OnKillfocusFerUrea@SitePage6@@IAEXXZ 004a6a76 f   SitePage6.obj
 0001:000a5a9c       ?OnKillfocusFerAbi@SitePage6@@IAEXXZ 004a6a9c f   SitePage6.obj
 0001:000a5ac2       ?OnKillfocusFerAnh@SitePage6@@IAEXXZ 004a6ac2 f   SitePage6.obj
 0001:000a5ae8       ?OnInitDialog@SitePage6@@MAEHXZ 004a6ae8 f   SitePage6.obj
 0001:000a5c8e       ?demo@SitePage6@@QAEXXZ    004a6c8e f   SitePage6.obj
 0001:000a6079       ?OnSelectFertigationFile@SitePage6@@IAEXXZ 004a7079 f   SitePage6.obj
 0001:000a62be       ?OnFertigation@SitePage6@@IAEXXZ 004a72be f   SitePage6.obj
 0001:000a675b       ?OnFertEvent@SitePage6@@IAEXXZ 004a775b f   SitePage6.obj
 0001:000a6bee       ?OnReleaseControl@SitePage6@@IAEXXZ 004a7bee f   SitePage6.obj
 0001:000a6ccd       ?OnNitrificationInhibitor@SitePage6@@IAEXXZ 004a7ccd f   SitePage6.obj
 0001:000a6e17       ?OnFertMethod2@SitePage6@@IAEXXZ 004a7e17 f   SitePage6.obj
 0001:000a7142       ?OnFertMethod1@SitePage6@@IAEXXZ 004a8142 f   SitePage6.obj
 0001:000a7395       ?OnFertMethod3@SitePage6@@IAEXXZ 004a8395 f   SitePage6.obj
 0001:000a7672       ?OnDblclkFGFileList@SitePage6@@IAEXXZ 004a8672 f   SitePage6.obj
 0001:000a7721       ?OnUreaseInhibitor@SitePage6@@IAEXXZ 004a8721 f   SitePage6.obj
 0001:000a7803       ?Onunit@SitePage6@@IAEXXZ  004a8803 f   SitePage6.obj
 0001:000a7987       ?Onunit2@SitePage6@@IAEXXZ 004a8987 f   SitePage6.obj
 0001:000a7b0b       ?OnFertMethod4@SitePage6@@IAEXXZ 004a8b0b f   SitePage6.obj
 0001:000a7b30       ??_ESitePage6@@UAEPAXI@Z   004a8b30 f i SitePage6.obj
 0001:000a7b30       ??_GSitePage6@@UAEPAXI@Z   004a8b30 f i SitePage6.obj
 0001:000a7bcb       ?CreateObject@SitePage7@@SGPAVCObject@@XZ 004a8bcb f   SitePage7.obj
 0001:000a7c58       ?GetRuntimeClass@SitePage7@@UBEPAUCRuntimeClass@@XZ 004a8c58 f   SitePage7.obj
 0001:000a7c6f       ??0SitePage7@@QAE@XZ       004a8c6f f   SitePage7.obj
 0001:000a7d65       ??1SitePage7@@UAE@XZ       004a8d65 f   SitePage7.obj
 0001:000a7ddf       ?DoDataExchange@SitePage7@@MAEXPAVCDataExchange@@@Z 004a8ddf f   SitePage7.obj
 0001:000a7f7e       ?GetMessageMap@SitePage7@@MBEPBUAFX_MSGMAP@@XZ 004a8f7e f   SitePage7.obj
 0001:000a7f95       ?OnSetActive@SitePage7@@UAEHXZ 004a8f95 f   SitePage7.obj
 0001:000a8531       ?GetEventSinkMap@SitePage7@@MBEPBUAFX_EVENTSINKMAP@@XZ 004a9531 f   SitePage7.obj
 0001:000a8548       ?OnManAccept@SitePage7@@IAEXXZ 004a9548 f   SitePage7.obj
 0001:000a88b6       ?OnFerLast@SitePage7@@IAEXXZ 004a98b6 f   SitePage7.obj
 0001:000a8ae2       ?OnFerNext@SitePage7@@IAEXXZ 004a9ae2 f   SitePage7.obj
 0001:000a8d20       ?OnKillfocusCombo1@SitePage7@@IAEXXZ 004a9d20 f   SitePage7.obj
 0001:000a8dcf       ?OnKillfocusManMonth@SitePage7@@IAEXXZ 004a9dcf f   SitePage7.obj
 0001:000a8de1       ?OnKillfocusManDay@SitePage7@@IAEXXZ 004a9de1 f   SitePage7.obj
 0001:000a8df3       ?OnKillfocusManAmount@SitePage7@@IAEXXZ 004a9df3 f   SitePage7.obj
 0001:000a8e63       ?OnKillfocusManCN@SitePage7@@IAEXXZ 004a9e63 f   SitePage7.obj
 0001:000a8ed3       ?OnInitDialog@SitePage7@@MAEHXZ 004a9ed3 f   SitePage7.obj
 0001:000a9037       ?OnSelchangeCombo1@SitePage7@@IAEXXZ 004aa037 f   SitePage7.obj
 0001:000a905b       ?demo@SitePage7@@QAEXXZ    004aa05b f   SitePage7.obj
 0001:000a931b       ?Onunit@SitePage7@@IAEXXZ  004aa31b f   SitePage7.obj
 0001:000a933f       ?Onunit2@SitePage7@@IAEXXZ 004aa33f f   SitePage7.obj
 0001:000a9450       ??_GSitePage7@@UAEPAXI@Z   004aa450 f i SitePage7.obj
 0001:000a9450       ??_ESitePage7@@UAEPAXI@Z   004aa450 f i SitePage7.obj
 0001:000a94eb       ?CreateObject@SitePage8@@SGPAVCObject@@XZ 004aa4eb f   SitePage8.obj
 0001:000a9578       ?GetRuntimeClass@SitePage8@@UBEPAUCRuntimeClass@@XZ 004aa578 f   SitePage8.obj
 0001:000a958f       ??0SitePage8@@QAE@XZ       004aa58f f   SitePage8.obj
 0001:000a9666       ??1SitePage8@@UAE@XZ       004aa666 f   SitePage8.obj
 0001:000a96ce       ?DoDataExchange@SitePage8@@MAEXPAVCDataExchange@@@Z 004aa6ce f   SitePage8.obj
 0001:000a97cd       ?GetMessageMap@SitePage8@@MBEPBUAFX_MSGMAP@@XZ 004aa7cd f   SitePage8.obj
 0001:000a97e4       ?OnSetActive@SitePage8@@UAEHXZ 004aa7e4 f   SitePage8.obj
 0001:000a9bb5       ?GetEventSinkMap@SitePage8@@MBEPBUAFX_EVENTSINKMAP@@XZ 004aabb5 f   SitePage8.obj
 0001:000a9bcc       ?OnWedLast@SitePage8@@IAEXXZ 004aabcc f   SitePage8.obj
 0001:000a9d40       ?OnWedNext@SitePage8@@IAEXXZ 004aad40 f   SitePage8.obj
 0001:000a9ebc       ?OnWedAccept@SitePage8@@IAEXXZ 004aaebc f   SitePage8.obj
 0001:000aa154       ?OnWeedOption0@SitePage8@@IAEXXZ 004ab154 f   SitePage8.obj
 0001:000aa22c       ?OnWeedOption1@SitePage8@@IAEXXZ 004ab22c f   SitePage8.obj
 0001:000aa304       ?OnWeedOption2@SitePage8@@IAEXXZ 004ab304 f   SitePage8.obj
 0001:000aa441       ?OnKillfocusWeedMonth@SitePage8@@IAEXXZ 004ab441 f   SitePage8.obj
 0001:000aa467       ?OnKillfocusWeedDay@SitePage8@@IAEXXZ 004ab467 f   SitePage8.obj
 0001:000aa48d       ?OnInitDialog@SitePage8@@MAEHXZ 004ab48d f   SitePage8.obj
 0001:000aa53e       ?demo@SitePage8@@QAEXXZ    004ab53e f   SitePage8.obj
 0001:000aa8f0       ??_ESitePage8@@UAEPAXI@Z   004ab8f0 f i SitePage8.obj
 0001:000aa8f0       ??_GSitePage8@@UAEPAXI@Z   004ab8f0 f i SitePage8.obj
 0001:000aa98b       ?CreateObject@SitePage9@@SGPAVCObject@@XZ 004ab98b f   SitePage9.obj
 0001:000aaa18       ?GetRuntimeClass@SitePage9@@UBEPAUCRuntimeClass@@XZ 004aba18 f   SitePage9.obj
 0001:000aaa2f       ??0SitePage9@@QAE@XZ       004aba2f f   SitePage9.obj
 0001:000aabbe       ??1SitePage9@@UAE@XZ       004abbbe f   SitePage9.obj
 0001:000aac5c       ?DoDataExchange@SitePage9@@MAEXPAVCDataExchange@@@Z 004abc5c f   SitePage9.obj
 0001:000aae77       ?GetMessageMap@SitePage9@@MBEPBUAFX_MSGMAP@@XZ 004abe77 f   SitePage9.obj
 0001:000aae8e       ?OnSetActive@SitePage9@@UAEHXZ 004abe8e f   SitePage9.obj
 0001:000ab737       ?GetEventSinkMap@SitePage9@@MBEPBUAFX_EVENTSINKMAP@@XZ 004ac737 f   SitePage9.obj
 0001:000ab74e       ?CheckFloodN@SitePage9@@QAEHXZ 004ac74e f   SitePage9.obj
 0001:000ab765       ?OnKillfocusfloodN@SitePage9@@IAEXXZ 004ac765 f   SitePage9.obj
 0001:000ab777       ?CheckFloodID@SitePage9@@QAEHXZ 004ac777 f   SitePage9.obj
 0001:000ab80c       ?OnFloodAccept@SitePage9@@IAEXXZ 004ac80c f   SitePage9.obj
 0001:000abe4b       ?OnFloodNext@SitePage9@@IAEXXZ 004ace4b f   SitePage9.obj
 0001:000abff9       ?OnFloodLast@SitePage9@@IAEXXZ 004acff9 f   SitePage9.obj
 0001:000ac19f       ?OnKillfocusfloodFMonth@SitePage9@@IAEXXZ 004ad19f f   SitePage9.obj
 0001:000ac1c5       ?OnKillfocusfloodFDay@SitePage9@@IAEXXZ 004ad1c5 f   SitePage9.obj
 0001:000ac1eb       ?OnKillfocusfloodDMonth@SitePage9@@IAEXXZ 004ad1eb f   SitePage9.obj
 0001:000ac211       ?OnKillfocusfloodDDay@SitePage9@@IAEXXZ 004ad211 f   SitePage9.obj
 0001:000ac237       ?OnKillfocusFloodWaterpH@SitePage9@@IAEXXZ 004ad237 f   SitePage9.obj
 0001:000ac25d       ?OnInitDialog@SitePage9@@MAEHXZ 004ad25d f   SitePage9.obj
 0001:000ac304       ?demo@SitePage9@@QAEXXZ    004ad304 f   SitePage9.obj
 0001:000ac552       ?OnselectWTfile@SitePage9@@IAEXXZ 004ad552 f   SitePage9.obj
 0001:000ac8b0       ?OnDblclkWTFileList@SitePage9@@IAEXXZ 004ad8b0 f   SitePage9.obj
 0001:000ac95f       ?OnWaterControl@SitePage9@@IAEXXZ 004ad95f f   SitePage9.obj
 0001:000acbad       ?OnRainfed@SitePage9@@IAEXXZ 004adbad f   SitePage9.obj
 0001:000acef2       ?OnObservedWT@SitePage9@@IAEXXZ 004adef2 f   SitePage9.obj
 0001:000ad1cf       ?OnEmpiricalPara@SitePage9@@IAEXXZ 004ae1cf f   SitePage9.obj
 0001:000ad480       ??_ESitePage9@@UAEPAXI@Z   004ae480 f i SitePage9.obj
 0001:000ad480       ??_GSitePage9@@UAEPAXI@Z   004ae480 f i SitePage9.obj
 0001:000ad52f       ?CreateInputFiles@@YAHHH@Z 004ae52f f   SitePara.obj
 0001:000ad5a9       ?ReadClimateHead@@YAHH@Z   004ae5a9 f   SitePara.obj
 0001:000ad738       ?RecordClimateFile@@YAHHHH@Z 004ae738 f   SitePara.obj
 0001:000ada1d       ?SaveClimateFileOfAYear@@YAHHPADMHMMMVCString@@HHHMH@Z 004aea1d f   SitePara.obj
 0001:000ae249       ?CreateDailyClimateFile@@YAXPAD00HHMVCString@@MMMM0HHH@Z 004af249 f   SitePara.obj
 0001:000af3e9       ?GetAMT@@YAHPAD@Z          004b03e9 f   SitePara.obj
 0001:000af489       ?ReadSoilFeature@@YAHVCString@@@Z 004b0489 f   SitePara.obj
 0001:000af793       ?SetCropCN@@YAXPAVCropParameter@@@Z 004b0793 f   SitePara.obj
 0001:000af80c       ?SaveSite@@YAHXZ           004b080c f   SitePara.obj
 0001:000af9d8       ?SaveSoilParas@@YAHH@Z     004b09d8 f   SitePara.obj
 0001:000b094d       ?ReSetCcomponent@@YAXXZ    004b194d f   SitePara.obj
 0001:000b09f0       ?SetSoilH@@YAHXZ           004b19f0 f   SitePara.obj
 0001:000b0b48       ??0CropWorkArrayDefine@@QAE@XZ 004b1b48 f   SitePara.obj
 0001:000b0b8e       ?dim@CropWorkArrayDefine@@QAEHHHH@Z 004b1b8e f   SitePara.obj
 0001:000b0cf1       ?dim@CropWorkArrayDefine@@QAEHHH@Z 004b1cf1 f   SitePara.obj
 0001:000b0e36       ?dim@CropWorkArrayDefine@@QAEHH@Z 004b1e36 f   SitePara.obj
 0001:000b0f5a       ??1CropWorkArrayDefine@@QAE@XZ 004b1f5a f   SitePara.obj
 0001:000b0fbf       ?clear@CropWorkArrayDefine@@QAEHXZ 004b1fbf f   SitePara.obj
 0001:000b101d       ?SizeOfData@CropArray@@UAEHXZ 004b201d f   SitePara.obj
 0001:000b1034       ?dim@CropArray@@QAEHHHH@Z  004b2034 f   SitePara.obj
 0001:000b107e       ??0CropArray@@QAE@XZ       004b207e f   SitePara.obj
 0001:000b10b8       ??1CropArray@@QAE@XZ       004b20b8 f   SitePara.obj
 0001:000b10ef       ?Reset@CropArray@@QAEHXZ   004b20ef f   SitePara.obj
 0001:000b1115       ?get@CropArray@@QAEPAVCropParameter@@HHH@Z 004b2115 f   SitePara.obj
 0001:000b11dc       ??0StringArray@@QAE@XZ     004b21dc f   SitePara.obj
 0001:000b11fe       ??1StringArray@@QAE@XZ     004b21fe f   SitePara.obj
 0001:000b128e       ?dim@StringArray@@QAEHH@Z  004b228e f   SitePara.obj
 0001:000b12b0       ?clear@StringArray@@QAEHXZ 004b22b0 f   SitePara.obj
 0001:000b130f       ?del@StringArray@@QAEHH@Z  004b230f f   SitePara.obj
 0001:000b13c1       ?insert@StringArray@@QAEHHPAD@Z 004b23c1 f   SitePara.obj
 0001:000b1502       ?get@StringArray@@QAEPADH@Z 004b2502 f   SitePara.obj
 0001:000b1560       ??0Site_BaseInformation@@QAE@XZ 004b2560 f   SitePara.obj
 0001:000b1a60       ?NewData@Site_BaseInformation@@QAEXXZ 004b2a60 f   SitePara.obj
 0001:000b1b84       ?SaveCropParas@@YAHXZ      004b2b84 f   SitePara.obj
 0001:000b3868       ?SaveInterFarmParas@@YAHXZ 004b4868 f   SitePara.obj
 0001:000b52af       ?savetillage@@YAHPAU_iobuf@@PAVTillageParameter@@@Z 004b62af f   SitePara.obj
 0001:000b53c6       ?RecordManureFiles@@YAXXZ  004b63c6 f   SitePara.obj
 0001:000b5877       ?GetRuntimeClass@CSitePSheet@@UBEPAUCRuntimeClass@@XZ 004b6877 f   SitePSheet.obj
 0001:000b588e       ??0CSitePSheet@@QAE@PAVCWnd@@@Z 004b688e f   SitePSheet.obj
 0001:000b59a8       ??1CSitePSheet@@UAE@XZ     004b69a8 f   SitePSheet.obj
 0001:000b5a6a       ?GetMessageMap@CSitePSheet@@MBEPBUAFX_MSGMAP@@XZ 004b6a6a f   SitePSheet.obj
 0001:000b5a81       ?OnInitDialog@CSitePSheet@@UAEHXZ 004b6a81 f   SitePSheet.obj
 0001:000b5b3a       ?GetRuntimeClass@CForestPSheet@@UBEPAUCRuntimeClass@@XZ 004b6b3a f   SitePSheet.obj
 0001:000b5b51       ??0CForestPSheet@@QAE@PAVCWnd@@@Z 004b6b51 f   SitePSheet.obj
 0001:000b5bdc       ??1CForestPSheet@@UAE@XZ   004b6bdc f   SitePSheet.obj
 0001:000b5c44       ?GetMessageMap@CForestPSheet@@MBEPBUAFX_MSGMAP@@XZ 004b6c44 f   SitePSheet.obj
 0001:000b5c5b       ?OnInitDialog@CForestPSheet@@UAEHXZ 004b6c5b f   SitePSheet.obj
 0001:000b5c9d       ?GetRuntimeClass@CCropPSheet@@UBEPAUCRuntimeClass@@XZ 004b6c9d f   SitePSheet.obj
 0001:000b5cb4       ??0CCropPSheet@@QAE@PAVCWnd@@@Z 004b6cb4 f   SitePSheet.obj
 0001:000b5e38       ??1CCropPSheet@@UAE@XZ     004b6e38 f   SitePSheet.obj
 0001:000b5f1e       ?GetMessageMap@CCropPSheet@@MBEPBUAFX_MSGMAP@@XZ 004b6f1e f   SitePSheet.obj
 0001:000b5f35       ?OnInitDialog@CCropPSheet@@UAEHXZ 004b6f35 f   SitePSheet.obj
 0001:000b5f80       ??_ECSitePSheet@@UAEPAXI@Z 004b6f80 f i SitePSheet.obj
 0001:000b5f80       ??_GCSitePSheet@@UAEPAXI@Z 004b6f80 f i SitePSheet.obj
 0001:000b5fc0       ??_ECForestPSheet@@UAEPAXI@Z 004b6fc0 f i SitePSheet.obj
 0001:000b5fc0       ??_GCForestPSheet@@UAEPAXI@Z 004b6fc0 f i SitePSheet.obj
 0001:000b6000       ??_GCCropPSheet@@UAEPAXI@Z 004b7000 f i SitePSheet.obj
 0001:000b6000       ??_ECCropPSheet@@UAEPAXI@Z 004b7000 f i SitePSheet.obj
 0001:000b6040       ??0WizardCrops@@QAE@PAVCWnd@@@Z 004b7040 f   WizardCrops.obj
 0001:000b60df       ?DoDataExchange@WizardCrops@@MAEXPAVCDataExchange@@@Z 004b70df f   WizardCrops.obj
 0001:000b6138       ?GetMessageMap@WizardCrops@@MBEPBUAFX_MSGMAP@@XZ 004b7138 f   WizardCrops.obj
 0001:000b614f       ?OnInitDialog@WizardCrops@@MAEHXZ 004b714f f   WizardCrops.obj
 0001:000b65b9       ?OnSelchangeWizardCrops@WizardCrops@@IAEXXZ 004b75b9 f   WizardCrops.obj
 0001:000b65f3       ?OnOK@WizardCrops@@MAEXXZ  004b75f3 f   WizardCrops.obj
 0001:000b67e2       ?SaveDatatoFile@WizardCrops@@QAEXXZ 004b77e2 f   WizardCrops.obj
 0001:000b8afc       ?OptimumYield@WizardCrops@@QAEMH@Z 004b9afc f   WizardCrops.obj
 0001:000b8da9       ?clay_texture@WizardCrops@@QAEHM@Z 004b9da9 f   WizardCrops.obj
 0001:000b8ee0       ??_GWizardCrops@@UAEPAXI@Z 004b9ee0 f i WizardCrops.obj
 0001:000b8ee0       ??_EWizardCrops@@UAEPAXI@Z 004b9ee0 f i WizardCrops.obj
 0001:000b8f20       ??1WizardCrops@@UAE@XZ     004b9f20 f i WizardCrops.obj
 0001:000ba56f       ??0WizardResult@@QAE@PAVCWnd@@@Z 004bb56f f   WizardResult.obj
 0001:000ba609       ?DoDataExchange@WizardResult@@MAEXPAVCDataExchange@@@Z 004bb609 f   WizardResult.obj
 0001:000ba64b       ?GetMessageMap@WizardResult@@MBEPBUAFX_MSGMAP@@XZ 004bb64b f   WizardResult.obj
 0001:000ba662       ?OnInitDialog@WizardResult@@MAEHXZ 004bb662 f   WizardResult.obj
 0001:000ba843       ?OnGhg@WizardResult@@IAEXXZ 004bb843 f   WizardResult.obj
 0001:000bb436       ?OnAgronomy@WizardResult@@IAEXXZ 004bc436 f   WizardResult.obj
 0001:000bc855       ?OnCrop@WizardResult@@IAEXXZ 004bd855 f   WizardResult.obj
 0001:000be6ca       ?OnWater@WizardResult@@IAEXXZ 004bf6ca f   WizardResult.obj
 0001:000bf4bf       ?OnGwp@WizardResult@@IAEXXZ 004c04bf f   WizardResult.obj
 0001:000bfc39       ?OnSelchangeWizardYear@WizardResult@@IAEXXZ 004c0c39 f   WizardResult.obj
 0001:000bffab       ?read_summary@WizardResult@@QAEXH@Z 004c0fab f   WizardResult.obj
 0001:000c1560       ??_EWizardResult@@UAEPAXI@Z 004c2560 f i WizardResult.obj
 0001:000c1560       ??_GWizardResult@@UAEPAXI@Z 004c2560 f i WizardResult.obj
 0001:000c15a0       ??0WizardUncertainty@@QAE@PAVCWnd@@@Z 004c25a0 f   WizardUncertainty.obj
 0001:000c1725       ?DoDataExchange@WizardUncertainty@@MAEXPAVCDataExchange@@@Z 004c2725 f   WizardUncertainty.obj
 0001:000c1824       ?GetMessageMap@WizardUncertainty@@MBEPBUAFX_MSGMAP@@XZ 004c2824 f   WizardUncertainty.obj
 0001:000c183b       ?OnWizardUncertainData@WizardUncertainty@@IAEXXZ 004c283b f   WizardUncertainty.obj
 0001:000c2173       ?OnOK@WizardUncertainty@@MAEXXZ 004c3173 f   WizardUncertainty.obj
 0001:000c23bc       ?OnCancel@WizardUncertainty@@MAEXXZ 004c33bc f   WizardUncertainty.obj
 0001:000c23e0       ?OnMSFmethod@WizardUncertainty@@IAEXXZ 004c33e0 f   WizardUncertainty.obj
 0001:000c2714       ?OnMSFmethod2@WizardUncertainty@@QAEXXZ 004c3714 f   WizardUncertainty.obj
 0001:000c2960       ??_GWizardUncertainty@@UAEPAXI@Z 004c3960 f i WizardUncertainty.obj
 0001:000c2960       ??_EWizardUncertainty@@UAEPAXI@Z 004c3960 f i WizardUncertainty.obj
 0001:000c29a0       ?GetName@COleFont@@QAE?AVCString@@XZ 004c39a0 f   font.obj
 0001:000c2a37       ?SetName@COleFont@@QAEXPBD@Z 004c3a37 f   font.obj
 0001:000c2a69       ?GetSize@COleFont@@QAE?ATtagCY@@XZ 004c3a69 f   font.obj
 0001:000c2ab8       ?SetSize@COleFont@@QAEXABTtagCY@@@Z 004c3ab8 f   font.obj
 0001:000c2aea       ?GetBold@COleFont@@QAEHXZ  004c3aea f   font.obj
 0001:000c2b22       ?SetBold@COleFont@@QAEXH@Z 004c3b22 f   font.obj
 0001:000c2b54       ?GetItalic@COleFont@@QAEHXZ 004c3b54 f   font.obj
 0001:000c2b8c       ?SetItalic@COleFont@@QAEXH@Z 004c3b8c f   font.obj
 0001:000c2bbe       ?GetUnderline@COleFont@@QAEHXZ 004c3bbe f   font.obj
 0001:000c2bf6       ?SetUnderline@COleFont@@QAEXH@Z 004c3bf6 f   font.obj
 0001:000c2c28       ?GetStrikethrough@COleFont@@QAEHXZ 004c3c28 f   font.obj
 0001:000c2c60       ?SetStrikethrough@COleFont@@QAEXH@Z 004c3c60 f   font.obj
 0001:000c2c92       ?GetWeight@COleFont@@QAEFXZ 004c3c92 f   font.obj
 0001:000c2ccb       ?SetWeight@COleFont@@QAEXF@Z 004c3ccb f   font.obj
 0001:000c2cfe       ?GetCharset@COleFont@@QAEFXZ 004c3cfe f   font.obj
 0001:000c2d37       ?SetCharset@COleFont@@QAEXF@Z 004c3d37 f   font.obj
 0001:000c2d70       ?CreateObject@CMoMap@@SGPAVCObject@@XZ 004c3d70 f   map.obj
 0001:000c2df3       ?GetRuntimeClass@CMoMap@@UBEPAUCRuntimeClass@@XZ 004c3df3 f   map.obj
 0001:000c2e0a       ?GetLayers@CMoMap@@QAE?AVCMoLayers@@XZ 004c3e0a f   map.obj
 0001:000c2e67       ?SetLayers@CMoMap@@QAEXPAUIDispatch@@@Z 004c3e67 f   map.obj
 0001:000c2e99       ?GetExtent@CMoMap@@QAE?AVCMoRectangle@@XZ 004c3e99 f   map.obj
 0001:000c2ef6       ?SetExtent@CMoMap@@QAEXPAUIDispatch@@@Z 004c3ef6 f   map.obj
 0001:000c2f28       ?GetFullExtent@CMoMap@@QAE?AVCMoRectangle@@XZ 004c3f28 f   map.obj
 0001:000c2f85       ?SetFullExtent@CMoMap@@QAEXPAUIDispatch@@@Z 004c3f85 f   map.obj
 0001:000c2fb7       ?GetBackColor@CMoMap@@QAEKXZ 004c3fb7 f   map.obj
 0001:000c2ff2       ?SetBackColor@CMoMap@@QAEXK@Z 004c3ff2 f   map.obj
 0001:000c3027       ?GetBorderStyle@CMoMap@@QAEFXZ 004c4027 f   map.obj
 0001:000c3063       ?SetBorderStyle@CMoMap@@QAEXF@Z 004c4063 f   map.obj
 0001:000c3099       ?GetScrollBars@CMoMap@@QAEHXZ 004c4099 f   map.obj
 0001:000c30d1       ?SetScrollBars@CMoMap@@QAEXH@Z 004c40d1 f   map.obj
 0001:000c3103       ?GetCancelAction@CMoMap@@QAEJXZ 004c4103 f   map.obj
 0001:000c313b       ?SetCancelAction@CMoMap@@QAEXJ@Z 004c413b f   map.obj
 0001:000c316d       ?GetTrackingLayer@CMoMap@@QAE?AVCMoTrackingLayer@@XZ 004c416d f   map.obj
 0001:000c31ca       ?SetTrackingLayer@CMoMap@@QAEXPAUIDispatch@@@Z 004c41ca f   map.obj
 0001:000c31fc       ?GetRefreshCount@CMoMap@@QAEJXZ 004c41fc f   map.obj
 0001:000c3234       ?SetRefreshCount@CMoMap@@QAEXJ@Z 004c4234 f   map.obj
 0001:000c3266       ?GetEnabled@CMoMap@@QAEHXZ 004c4266 f   map.obj
 0001:000c32a1       ?SetEnabled@CMoMap@@QAEXH@Z 004c42a1 f   map.obj
 0001:000c32d6       ?GetHWnd@CMoMap@@QAEIXZ    004c42d6 f   map.obj
 0001:000c3311       ?SetHWnd@CMoMap@@QAEXI@Z   004c4311 f   map.obj
 0001:000c3346       ?GetAppearance@CMoMap@@QAEFXZ 004c4346 f   map.obj
 0001:000c3382       ?SetAppearance@CMoMap@@QAEXF@Z 004c4382 f   map.obj
 0001:000c33b8       ?GetMinWidth@CMoMap@@QAENXZ 004c43b8 f   map.obj
 0001:000c33f7       ?SetMinWidth@CMoMap@@QAEXN@Z 004c43f7 f   map.obj
 0001:000c342d       ?GetMousePointer@CMoMap@@QAEJXZ 004c442d f   map.obj
 0001:000c3465       ?SetMousePointer@CMoMap@@QAEXJ@Z 004c4465 f   map.obj
 0001:000c3497       ?GetFullRedrawOnPan@CMoMap@@QAEHXZ 004c4497 f   map.obj
 0001:000c34cf       ?SetFullRedrawOnPan@CMoMap@@QAEXH@Z 004c44cf f   map.obj
 0001:000c3501       ?GetCoordinateSystem@CMoMap@@QAE?AUtagVARIANT@@XZ 004c4501 f   map.obj
 0001:000c355b       ?SetCoordinateSystem@CMoMap@@QAEXABUtagVARIANT@@@Z 004c455b f   map.obj
 0001:000c358d       ?GetMaxFileBuffer@CMoMap@@QAEJXZ 004c458d f   map.obj
 0001:000c35c5       ?SetMaxFileBuffer@CMoMap@@QAEXJ@Z 004c45c5 f   map.obj
 0001:000c35f7       ?GetWindowMode@CMoMap@@QAEJXZ 004c45f7 f   map.obj
 0001:000c362f       ?SetWindowMode@CMoMap@@QAEXJ@Z 004c462f f   map.obj
 0001:000c3661       ?GetRotationAngle@CMoMap@@QAENXZ 004c4661 f   map.obj
 0001:000c36a0       ?SetRotationAngle@CMoMap@@QAEXN@Z 004c46a0 f   map.obj
 0001:000c36d6       ?GetVisibleRegion@CMoMap@@QAEPAUIDispatch@@XZ 004c46d6 f   map.obj
 0001:000c370e       ?SetVisibleRegion@CMoMap@@QAEXPAUIDispatch@@@Z 004c470e f   map.obj
 0001:000c3740       ?GetGeometryEnvironment@CMoMap@@QAEJXZ 004c4740 f   map.obj
 0001:000c3778       ?SetGeometryEnvironment@CMoMap@@QAEXJ@Z 004c4778 f   map.obj
 0001:000c37aa       ?GetDisplayUnit@CMoMap@@QAEJXZ 004c47aa f   map.obj
 0001:000c37e2       ?SetDisplayUnit@CMoMap@@QAEXJ@Z 004c47e2 f   map.obj
 0001:000c3814       ?AboutBox@CMoMap@@QAEXXZ   004c4814 f   map.obj
 0001:000c3849       ?Pan@CMoMap@@QAEXXZ        004c4849 f   map.obj
 0001:000c387b       ?ToMapPoint@CMoMap@@QAE?AVCMoPoint@@MM@Z 004c487b f   map.obj
 0001:000c38f4       ?FlashShape@CMoMap@@QAEXPAUIDispatch@@F@Z 004c48f4 f   map.obj
 0001:000c3934       ?Refresh@CMoMap@@QAEXXZ    004c4934 f   map.obj
 0001:000c3969       ?DrawShape@CMoMap@@QAEXPAUIDispatch@@0@Z 004c4969 f   map.obj
 0001:000c39a8       ?DrawTextA@CMoMap@@QAEXPBDPAUIDispatch@@1@Z 004c49a8 f   map.obj
 0001:000c39eb       ?TrackCircle@CMoMap@@QAE?AVCMoEllipse@@XZ 004c49eb f   map.obj
 0001:000c3a4f       ?TrackLine@CMoMap@@QAE?AVCMoLine@@XZ 004c4a4f f   map.obj
 0001:000c3ab3       ?TrackRectangle@CMoMap@@QAE?AVCMoRectangle@@XZ 004c4ab3 f   map.obj
 0001:000c3b17       ?FromMapPoint@CMoMap@@QAEXPAUIDispatch@@PAM1@Z 004c4b17 f   map.obj
 0001:000c3b5a       ?ToMapDistance@CMoMap@@QAENM@Z 004c4b5a f   map.obj
 0001:000c3baf       ?FromMapDistance@CMoMap@@QAEMN@Z 004c4baf f   map.obj
 0001:000c3bfc       ?TrackPolygon@CMoMap@@QAE?AVCMoPolygon@@XZ 004c4bfc f   map.obj
 0001:000c3c60       ?OutputMap@CMoMap@@QAEXJ@Z 004c4c60 f   map.obj
 0001:000c3c9b       ?PrintMap@CMoMap@@QAEXPBD0H@Z 004c4c9b f   map.obj
 0001:000c3cde       ?ExportMap@CMoMap@@QAEXJPBDN@Z 004c4cde f   map.obj
 0001:000c3d25       ?CopyMap@CMoMap@@QAEXN@Z   004c4d25 f   map.obj
 0001:000c3d64       ?CenterAt@CMoMap@@QAEXNN@Z 004c4d64 f   map.obj
 0001:000c3dab       ?RefreshLayer@CMoMap@@QAEXFABUtagVARIANT@@@Z 004c4dab f   map.obj
 0001:000c3deb       ?ExportMap2@CMoMap@@QAEXJPBDNABUtagVARIANT@@@Z 004c4deb f   map.obj
 0001:000c3e36       ?OutputMap2@CMoMap@@QAEXJJJJJABUtagVARIANT@@@Z 004c4e36 f   map.obj
 0001:000c3e85       ?RefreshRect@CMoMap@@QAEXPAUIDispatch@@@Z 004c4e85 f   map.obj
 0001:000c3ec0       ?EnableTIFFLZW@CMoMap@@QAEXPBD@Z 004c4ec0 f   map.obj
 0001:000c3efb       ?EnableGIF@CMoMap@@QAEXPBD@Z 004c4efb f   map.obj
 0001:000c3f36       ?EnableStreetMap@CMoMap@@QAEXPBD@Z 004c4f36 f   map.obj
 0001:000c3f71       ?ExportMapToJpeg@CMoMap@@QAEXPBDJHNJ@Z 004c4f71 f   map.obj
 0001:000c3fc0       ?ExportMap3@CMoMap@@QAEXJABUtagVARIANT@@NJJJ@Z 004c4fc0 f   map.obj
 0001:000c4020       ??0CMoLayers@@QAE@PAUIDispatch@@@Z 004c5020 f i map.obj
 0001:000c4050       ??0CMoRectangle@@QAE@PAUIDispatch@@@Z 004c5050 f i map.obj
 0001:000c4080       ??0CMoTrackingLayer@@QAE@PAUIDispatch@@@Z 004c5080 f i map.obj
 0001:000c40b0       ??0CMoPoint@@QAE@PAUIDispatch@@@Z 004c50b0 f i map.obj
 0001:000c40e0       ??0CMoEllipse@@QAE@PAUIDispatch@@@Z 004c50e0 f i map.obj
 0001:000c4110       ??0CMoLine@@QAE@PAUIDispatch@@@Z 004c5110 f i map.obj
 0001:000c4140       ??0CMoPolygon@@QAE@PAUIDispatch@@@Z 004c5140 f i map.obj
 0001:000c4170       ?GetLocation@CMoAddressLocation@@QAE?AVCMoPoint@@XZ 004c5170 f   moaddresslocation.obj
 0001:000c41cd       ?SetLocation@CMoAddressLocation@@QAEXPAUIDispatch@@@Z 004c51cd f   moaddresslocation.obj
 0001:000c41ff       ?GetMatchScore@CMoAddressLocation@@QAEFXZ 004c51ff f   moaddresslocation.obj
 0001:000c4238       ?SetMatchScore@CMoAddressLocation@@QAEXF@Z 004c5238 f   moaddresslocation.obj
 0001:000c426b       ?GetStreetSide@CMoAddressLocation@@QAEJXZ 004c526b f   moaddresslocation.obj
 0001:000c42a3       ?SetStreetSide@CMoAddressLocation@@QAEXJ@Z 004c52a3 f   moaddresslocation.obj
 0001:000c42e0       ?GetSizeField@CMoChartRenderer@@QAE?AVCString@@XZ 004c52e0 f   mochartrenderer.obj
 0001:000c4377       ?SetSizeField@CMoChartRenderer@@QAEXPBD@Z 004c5377 f   mochartrenderer.obj
 0001:000c43a9       ?GetFieldCount@CMoChartRenderer@@QAEFXZ 004c53a9 f   mochartrenderer.obj
 0001:000c43e2       ?SetFieldCount@CMoChartRenderer@@QAEXF@Z 004c53e2 f   mochartrenderer.obj
 0001:000c4415       ?GetNullValue@CMoChartRenderer@@QAENXZ 004c5415 f   mochartrenderer.obj
 0001:000c4454       ?SetNullValue@CMoChartRenderer@@QAEXN@Z 004c5454 f   mochartrenderer.obj
 0001:000c448a       ?GetChartType@CMoChartRenderer@@QAEJXZ 004c548a f   mochartrenderer.obj
 0001:000c44c2       ?SetChartType@CMoChartRenderer@@QAEXJ@Z 004c54c2 f   mochartrenderer.obj
 0001:000c44f4       ?GetBarWidth@CMoChartRenderer@@QAEFXZ 004c54f4 f   mochartrenderer.obj
 0001:000c452d       ?SetBarWidth@CMoChartRenderer@@QAEXF@Z 004c552d f   mochartrenderer.obj
 0001:000c4560       ?GetBarHeight@CMoChartRenderer@@QAEFXZ 004c5560 f   mochartrenderer.obj
 0001:000c4599       ?SetBarHeight@CMoChartRenderer@@QAEXF@Z 004c5599 f   mochartrenderer.obj
 0001:000c45cc       ?GetNormalizationField@CMoChartRenderer@@QAE?AVCString@@XZ 004c55cc f   mochartrenderer.obj
 0001:000c4663       ?SetNormalizationField@CMoChartRenderer@@QAEXPBD@Z 004c5663 f   mochartrenderer.obj
 0001:000c4695       ?GetMinPieSize@CMoChartRenderer@@QAEFXZ 004c5695 f   mochartrenderer.obj
 0001:000c46ce       ?SetMinPieSize@CMoChartRenderer@@QAEXF@Z 004c56ce f   mochartrenderer.obj
 0001:000c4701       ?GetMaxPieSize@CMoChartRenderer@@QAEFXZ 004c5701 f   mochartrenderer.obj
 0001:000c473a       ?SetMaxPieSize@CMoChartRenderer@@QAEXF@Z 004c573a f   mochartrenderer.obj
 0001:000c476d       ?GetShowOutline@CMoChartRenderer@@QAEHXZ 004c576d f   mochartrenderer.obj
 0001:000c47a5       ?SetShowOutline@CMoChartRenderer@@QAEXH@Z 004c57a5 f   mochartrenderer.obj
 0001:000c47d7       ?GetTag@CMoChartRenderer@@QAE?AVCString@@XZ 004c57d7 f   mochartrenderer.obj
 0001:000c486e       ?SetTag@CMoChartRenderer@@QAEXPBD@Z 004c586e f   mochartrenderer.obj
 0001:000c48a0       ?GetCustomChart@CMoChartRenderer@@QAEPAUIUnknown@@XZ 004c58a0 f   mochartrenderer.obj
 0001:000c48d8       ?SetCustomChart@CMoChartRenderer@@QAEXPAUIUnknown@@@Z 004c58d8 f   mochartrenderer.obj
 0001:000c490a       ?GetDrawBackground@CMoChartRenderer@@QAEHXZ 004c590a f   mochartrenderer.obj
 0001:000c4942       ?SetDrawBackground@CMoChartRenderer@@QAEXH@Z 004c5942 f   mochartrenderer.obj
 0001:000c4974       ?GetField@CMoChartRenderer@@QAE?AVCString@@F@Z 004c5974 f   mochartrenderer.obj
 0001:000c4a1b       ?SetField@CMoChartRenderer@@QAEXFPBD@Z 004c5a1b f   mochartrenderer.obj
 0001:000c4a5b       ?GetColor@CMoChartRenderer@@QAEKF@Z 004c5a5b f   mochartrenderer.obj
 0001:000c4aa5       ?SetColor@CMoChartRenderer@@QAEXFK@Z 004c5aa5 f   mochartrenderer.obj
 0001:000c4ae5       ?NoNullValue@CMoChartRenderer@@QAEXXZ 004c5ae5 f   mochartrenderer.obj
 0001:000c4b20       ?GetField@CMoClassBreaksRenderer@@QAE?AVCString@@XZ 004c5b20 f   moclassbreaksrenderer.obj
 0001:000c4bb7       ?SetField@CMoClassBreaksRenderer@@QAEXPBD@Z 004c5bb7 f   moclassbreaksrenderer.obj
 0001:000c4be9       ?GetBreakCount@CMoClassBreaksRenderer@@QAEFXZ 004c5be9 f   moclassbreaksrenderer.obj
 0001:000c4c22       ?SetBreakCount@CMoClassBreaksRenderer@@QAEXF@Z 004c5c22 f   moclassbreaksrenderer.obj
 0001:000c4c55       ?GetTag@CMoClassBreaksRenderer@@QAE?AVCString@@XZ 004c5c55 f   moclassbreaksrenderer.obj
 0001:000c4cec       ?SetTag@CMoClassBreaksRenderer@@QAEXPBD@Z 004c5cec f   moclassbreaksrenderer.obj
 0001:000c4d1e       ?GetSymbolType@CMoClassBreaksRenderer@@QAEJXZ 004c5d1e f   moclassbreaksrenderer.obj
 0001:000c4d56       ?SetSymbolType@CMoClassBreaksRenderer@@QAEXJ@Z 004c5d56 f   moclassbreaksrenderer.obj
 0001:000c4d88       ?GetDrawBackground@CMoClassBreaksRenderer@@QAEHXZ 004c5d88 f   moclassbreaksrenderer.obj
 0001:000c4dc0       ?SetDrawBackground@CMoClassBreaksRenderer@@QAEXH@Z 004c5dc0 f   moclassbreaksrenderer.obj
 0001:000c4df2       ?GetBreak@CMoClassBreaksRenderer@@QAENF@Z 004c5df2 f   moclassbreaksrenderer.obj
 0001:000c4e43       ?SetBreak@CMoClassBreaksRenderer@@QAEXFN@Z 004c5e43 f   moclassbreaksrenderer.obj
 0001:000c4e87       ?GetSymbol@CMoClassBreaksRenderer@@QAE?AVCMoSymbol@@F@Z 004c5e87 f   moclassbreaksrenderer.obj
 0001:000c4ef4       ?SetRefSymbol@CMoClassBreaksRenderer@@QAEXFPAUIDispatch@@@Z 004c5ef4 f   moclassbreaksrenderer.obj
 0001:000c4f34       ?RampColors@CMoClassBreaksRenderer@@QAEXKK@Z 004c5f34 f   moclassbreaksrenderer.obj
 0001:000c4f73       ?SizeSymbols@CMoClassBreaksRenderer@@QAEXFF@Z 004c5f73 f   moclassbreaksrenderer.obj
 0001:000c4fc0       ??0CMoSymbol@@QAE@PAUIDispatch@@@Z 004c5fc0 f i moclassbreaksrenderer.obj
 0001:000c4ff0       ?GetConnected@CMoDataConnection@@QAEHXZ 004c5ff0 f   modataconnection.obj
 0001:000c5028       ?SetConnected@CMoDataConnection@@QAEXH@Z 004c6028 f   modataconnection.obj
 0001:000c505a       ?GetDatabase@CMoDataConnection@@QAE?AVCString@@XZ 004c605a f   modataconnection.obj
 0001:000c50f1       ?SetDatabase@CMoDataConnection@@QAEXPBD@Z 004c60f1 f   modataconnection.obj
 0001:000c5123       ?GetServer@CMoDataConnection@@QAE?AVCString@@XZ 004c6123 f   modataconnection.obj
 0001:000c51ba       ?SetServer@CMoDataConnection@@QAEXPBD@Z 004c61ba f   modataconnection.obj
 0001:000c51ec       ?GetUser@CMoDataConnection@@QAE?AVCString@@XZ 004c61ec f   modataconnection.obj
 0001:000c5283       ?SetUser@CMoDataConnection@@QAEXPBD@Z 004c6283 f   modataconnection.obj
 0001:000c52b5       ?GetPassword@CMoDataConnection@@QAE?AVCString@@XZ 004c62b5 f   modataconnection.obj
 0001:000c534c       ?SetPassword@CMoDataConnection@@QAEXPBD@Z 004c634c f   modataconnection.obj
 0001:000c537e       ?GetGeoDatasets@CMoDataConnection@@QAEPAUIDispatch@@XZ 004c637e f   modataconnection.obj
 0001:000c53b6       ?SetGeoDatasets@CMoDataConnection@@QAEXPAUIDispatch@@@Z 004c63b6 f   modataconnection.obj
 0001:000c53e8       ?GetConnection@CMoDataConnection@@QAEJXZ 004c63e8 f   modataconnection.obj
 0001:000c5420       ?SetConnection@CMoDataConnection@@QAEXJ@Z 004c6420 f   modataconnection.obj
 0001:000c5452       ?GetConnectError@CMoDataConnection@@QAEJXZ 004c6452 f   modataconnection.obj
 0001:000c548a       ?SetConnectError@CMoDataConnection@@QAEXJ@Z 004c648a f   modataconnection.obj
 0001:000c54bc       ?GetExtendedError@CMoDataConnection@@QAEJXZ 004c64bc f   modataconnection.obj
 0001:000c54f4       ?SetExtendedError@CMoDataConnection@@QAEXJ@Z 004c64f4 f   modataconnection.obj
 0001:000c5526       ?GetExtendedErrorString@CMoDataConnection@@QAE?AVCString@@XZ 004c6526 f   modataconnection.obj
 0001:000c55bd       ?SetExtendedErrorString@CMoDataConnection@@QAEXPBD@Z 004c65bd f   modataconnection.obj
 0001:000c55ef       ?Connect@CMoDataConnection@@QAEHXZ 004c65ef f   modataconnection.obj
 0001:000c562f       ?Disconnect@CMoDataConnection@@QAEXXZ 004c662f f   modataconnection.obj
 0001:000c5661       ?FindGeoDataset@CMoDataConnection@@QAE?AVCMoGeoDataset@@PBD@Z 004c6661 f   modataconnection.obj
 0001:000c56cd       ?AddGeoDataset@CMoDataConnection@@QAE?AVCMoGeoDataset@@PBDJPAUIDispatch@@ABUtagVARIANT@@2@Z 004c66cd f   modataconnection.obj
 0001:000c5749       ?DeleteGeoDataset@CMoDataConnection@@QAEHPBD@Z 004c6749 f   modataconnection.obj
 0001:000c5792       ?FindCoordinateSystem@CMoDataConnection@@QAEPAUIDispatch@@PBD@Z 004c6792 f   modataconnection.obj
 0001:000c57db       ?ClearConnectError@CMoDataConnection@@QAEXXZ 004c67db f   modataconnection.obj
 0001:000c580d       ?FindArcInfoCoordinateSystem@CMoDataConnection@@QAEPAUIDispatch@@PBD@Z 004c680d f   modataconnection.obj
 0001:000c5856       ?ReturnVersions@CMoDataConnection@@QAE?AVCMoStrings@@XZ 004c6856 f   modataconnection.obj
 0001:000c58ba       ?GetVersion@CMoDataConnection@@QAE?AVCString@@XZ 004c68ba f   modataconnection.obj
 0001:000c5958       ?SetVersion@CMoDataConnection@@QAEXPBD@Z 004c6958 f   modataconnection.obj
 0001:000c59a0       ??0CMoGeoDataset@@QAE@PAUIDispatch@@@Z 004c69a0 f i modataconnection.obj
 0001:000c59d0       ??0CMoStrings@@QAE@PAUIDispatch@@@Z 004c69d0 f i modataconnection.obj
 0001:000c5a00       ?GetType@CMoDatum@@QAEJXZ  004c6a00 f   modatum.obj
 0001:000c5a38       ?SetType@CMoDatum@@QAEXJ@Z 004c6a38 f   modatum.obj
 0001:000c5a6a       ?GetName@CMoDatum@@QAE?AVCString@@XZ 004c6a6a f   modatum.obj
 0001:000c5b01       ?SetName@CMoDatum@@QAEXPBD@Z 004c6b01 f   modatum.obj
 0001:000c5b33       ?GetSpheroid@CMoDatum@@QAE?AVCMoSpheroid@@XZ 004c6b33 f   modatum.obj
 0001:000c5b90       ?SetSpheroid@CMoDatum@@QAEXPAUIDispatch@@@Z 004c6b90 f   modatum.obj
 0001:000c5bd0       ??0CMoSpheroid@@QAE@PAUIDispatch@@@Z 004c6bd0 f i modatum.obj
 0001:000c5c00       ?GetField@CMoDotDensityRenderer@@QAE?AVCString@@XZ 004c6c00 f   modotdensityrenderer.obj
 0001:000c5c97       ?SetField@CMoDotDensityRenderer@@QAEXPBD@Z 004c6c97 f   modotdensityrenderer.obj
 0001:000c5cc9       ?GetDotValue@CMoDotDensityRenderer@@QAENXZ 004c6cc9 f   modotdensityrenderer.obj
 0001:000c5d08       ?SetDotValue@CMoDotDensityRenderer@@QAEXN@Z 004c6d08 f   modotdensityrenderer.obj
 0001:000c5d3e       ?GetDotSize@CMoDotDensityRenderer@@QAEFXZ 004c6d3e f   modotdensityrenderer.obj
 0001:000c5d77       ?SetDotSize@CMoDotDensityRenderer@@QAEXF@Z 004c6d77 f   modotdensityrenderer.obj
 0001:000c5daa       ?GetDotColor@CMoDotDensityRenderer@@QAEKXZ 004c6daa f   modotdensityrenderer.obj
 0001:000c5de2       ?SetDotColor@CMoDotDensityRenderer@@QAEXK@Z 004c6de2 f   modotdensityrenderer.obj
 0001:000c5e14       ?GetDrawBackground@CMoDotDensityRenderer@@QAEHXZ 004c6e14 f   modotdensityrenderer.obj
 0001:000c5e4c       ?SetDrawBackground@CMoDotDensityRenderer@@QAEXH@Z 004c6e4c f   modotdensityrenderer.obj
 0001:000c5e7e       ?GetTag@CMoDotDensityRenderer@@QAE?AVCString@@XZ 004c6e7e f   modotdensityrenderer.obj
 0001:000c5f15       ?SetTag@CMoDotDensityRenderer@@QAEXPBD@Z 004c6f15 f   modotdensityrenderer.obj
 0001:000c5f50       ?GetExtent@CMoEllipse@@QAE?AVCMoRectangle@@XZ 004c6f50 f   moellipse.obj
 0001:000c5fad       ?SetExtent@CMoEllipse@@QAEXPAUIDispatch@@@Z 004c6fad f   moellipse.obj
 0001:000c5fdf       ?GetLeft@CMoEllipse@@QAENXZ 004c6fdf f   moellipse.obj
 0001:000c601e       ?SetLeft@CMoEllipse@@QAEXN@Z 004c701e f   moellipse.obj
 0001:000c6054       ?GetRight@CMoEllipse@@QAENXZ 004c7054 f   moellipse.obj
 0001:000c6093       ?SetRight@CMoEllipse@@QAEXN@Z 004c7093 f   moellipse.obj
 0001:000c60c9       ?GetTop@CMoEllipse@@QAENXZ 004c70c9 f   moellipse.obj
 0001:000c6108       ?SetTop@CMoEllipse@@QAEXN@Z 004c7108 f   moellipse.obj
 0001:000c613e       ?GetBottom@CMoEllipse@@QAENXZ 004c713e f   moellipse.obj
 0001:000c617d       ?SetBottom@CMoEllipse@@QAEXN@Z 004c717d f   moellipse.obj
 0001:000c61b3       ?GetCenter@CMoEllipse@@QAE?AVCMoPoint@@XZ 004c71b3 f   moellipse.obj
 0001:000c6210       ?SetCenter@CMoEllipse@@QAEXPAUIDispatch@@@Z 004c7210 f   moellipse.obj
 0001:000c6242       ?GetWidth@CMoEllipse@@QAENXZ 004c7242 f   moellipse.obj
 0001:000c6281       ?SetWidth@CMoEllipse@@QAEXN@Z 004c7281 f   moellipse.obj
 0001:000c62b7       ?GetHeight@CMoEllipse@@QAENXZ 004c72b7 f   moellipse.obj
 0001:000c62f6       ?SetHeight@CMoEllipse@@QAEXN@Z 004c72f6 f   moellipse.obj
 0001:000c632c       ?GetShapeType@CMoEllipse@@QAEJXZ 004c732c f   moellipse.obj
 0001:000c6364       ?SetShapeType@CMoEllipse@@QAEXJ@Z 004c7364 f   moellipse.obj
 0001:000c6396       ?IsPointIn@CMoEllipse@@QAEHPAUIDispatch@@@Z 004c7396 f   moellipse.obj
 0001:000c63df       ?Offset@CMoEllipse@@QAEXNN@Z 004c73df f   moellipse.obj
 0001:000c6426       ?Inset@CMoEllipse@@QAEXNN@Z 004c7426 f   moellipse.obj
 0001:000c646d       ?Union@CMoEllipse@@QAEPAUIDispatch@@PAU2@ABUtagVARIANT@@@Z 004c746d f   moellipse.obj
 0001:000c64ba       ?Xor@CMoEllipse@@QAEPAUIDispatch@@PAU2@ABUtagVARIANT@@@Z 004c74ba f   moellipse.obj
 0001:000c6507       ?Difference@CMoEllipse@@QAEPAUIDispatch@@PAU2@ABUtagVARIANT@@@Z 004c7507 f   moellipse.obj
 0001:000c6554       ?Intersect@CMoEllipse@@QAEPAUIDispatch@@PAU2@ABUtagVARIANT@@@Z 004c7554 f   moellipse.obj
 0001:000c65a1       ?Buffer@CMoEllipse@@QAEPAUIDispatch@@NABUtagVARIANT@@@Z 004c75a1 f   moellipse.obj
 0001:000c6600       ?GetTag@CMoEventRenderer@@QAE?AVCString@@XZ 004c7600 f   moeventrenderer.obj
 0001:000c6697       ?SetTag@CMoEventRenderer@@QAEXPBD@Z 004c7697 f   moeventrenderer.obj
 0001:000c66c9       ?GetUseDefault@CMoEventRenderer@@QAEHXZ 004c76c9 f   moeventrenderer.obj
 0001:000c6701       ?SetUseDefault@CMoEventRenderer@@QAEXH@Z 004c7701 f   moeventrenderer.obj
 0001:000c6733       ?GetDefaultSymbol@CMoEventRenderer@@QAE?AVCMoSymbol@@XZ 004c7733 f   moeventrenderer.obj
 0001:000c6790       ?SetDefaultSymbol@CMoEventRenderer@@QAEXPAUIDispatch@@@Z 004c7790 f   moeventrenderer.obj
 0001:000c67c2       ?GetSymbolType@CMoEventRenderer@@QAEJXZ 004c77c2 f   moeventrenderer.obj
 0001:000c67fa       ?SetSymbolType@CMoEventRenderer@@QAEXJ@Z 004c77fa f   moeventrenderer.obj
 0001:000c682c       ?GetValueCount@CMoEventRenderer@@QAEFXZ 004c782c f   moeventrenderer.obj
 0001:000c6865       ?SetValueCount@CMoEventRenderer@@QAEXF@Z 004c7865 f   moeventrenderer.obj
 0001:000c6898       ?GetFeatureRouteIDField@CMoEventRenderer@@QAE?AVCString@@XZ 004c7898 f   moeventrenderer.obj
 0001:000c692f       ?SetFeatureRouteIDField@CMoEventRenderer@@QAEXPBD@Z 004c792f f   moeventrenderer.obj
 0001:000c6961       ?GetEventRouteIDField@CMoEventRenderer@@QAE?AVCString@@XZ 004c7961 f   moeventrenderer.obj
 0001:000c69f8       ?SetEventRouteIDField@CMoEventRenderer@@QAEXPBD@Z 004c79f8 f   moeventrenderer.obj
 0001:000c6a2a       ?GetStartMeasureField@CMoEventRenderer@@QAE?AVCString@@XZ 004c7a2a f   moeventrenderer.obj
 0001:000c6ac1       ?SetStartMeasureField@CMoEventRenderer@@QAEXPBD@Z 004c7ac1 f   moeventrenderer.obj
 0001:000c6af3       ?GetEndMeasureField@CMoEventRenderer@@QAE?AVCString@@XZ 004c7af3 f   moeventrenderer.obj
 0001:000c6b8a       ?SetEndMeasureField@CMoEventRenderer@@QAEXPBD@Z 004c7b8a f   moeventrenderer.obj
 0001:000c6bbc       ?GetSymbolField@CMoEventRenderer@@QAE?AVCString@@XZ 004c7bbc f   moeventrenderer.obj
 0001:000c6c53       ?SetSymbolField@CMoEventRenderer@@QAEXPBD@Z 004c7c53 f   moeventrenderer.obj
 0001:000c6c85       ?GetDrawBackground@CMoEventRenderer@@QAEHXZ 004c7c85 f   moeventrenderer.obj
 0001:000c6cbd       ?SetDrawBackground@CMoEventRenderer@@QAEXH@Z 004c7cbd f   moeventrenderer.obj
 0001:000c6cef       ?GetEventTable@CMoEventRenderer@@QAE?AVCMoTable@@XZ 004c7cef f   moeventrenderer.obj
 0001:000c6d4c       ?SetEventTable@CMoEventRenderer@@QAEXPAUIDispatch@@@Z 004c7d4c f   moeventrenderer.obj
 0001:000c6d7e       ?GetIndexEvents@CMoEventRenderer@@QAEHXZ 004c7d7e f   moeventrenderer.obj
 0001:000c6db6       ?SetIndexEvents@CMoEventRenderer@@QAEXH@Z 004c7db6 f   moeventrenderer.obj
 0001:000c6de8       ?GetIndexExtent@CMoEventRenderer@@QAE?AVCMoRectangle@@XZ 004c7de8 f   moeventrenderer.obj
 0001:000c6e45       ?SetIndexExtent@CMoEventRenderer@@QAEXPAUIDispatch@@@Z 004c7e45 f   moeventrenderer.obj
 0001:000c6e77       ?GetSymbol@CMoEventRenderer@@QAE?AVCMoSymbol@@F@Z 004c7e77 f   moeventrenderer.obj
 0001:000c6ee4       ?GetValue@CMoEventRenderer@@QAE?AVCString@@F@Z 004c7ee4 f   moeventrenderer.obj
 0001:000c6f8b       ?SetValue@CMoEventRenderer@@QAEXFPBD@Z 004c7f8b f   moeventrenderer.obj
 0001:000c6fcb       ?InvalidateIndex@CMoEventRenderer@@QAEHPBD@Z 004c7fcb f   moeventrenderer.obj
 0001:000c7020       ??0CMoTable@@QAE@PAUIDispatch@@@Z 004c8020 f i moeventrenderer.obj
 0001:000c7050       ?GetName@CMoField@@QAE?AVCString@@XZ 004c8050 f   mofield.obj
 0001:000c70e7       ?SetName@CMoField@@QAEXPBD@Z 004c80e7 f   mofield.obj
 0001:000c7119       ?GetType@CMoField@@QAEJXZ  004c8119 f   mofield.obj
 0001:000c7151       ?SetType@CMoField@@QAEXJ@Z 004c8151 f   mofield.obj
 0001:000c7183       ?GetValueAsString@CMoField@@QAE?AVCString@@XZ 004c8183 f   mofield.obj
 0001:000c721a       ?SetValueAsString@CMoField@@QAEXPBD@Z 004c821a f   mofield.obj
 0001:000c724c       ?GetValue@CMoField@@QAE?AUtagVARIANT@@XZ 004c824c f   mofield.obj
 0001:000c72a6       ?SetValue@CMoField@@QAEXABUtagVARIANT@@@Z 004c82a6 f   mofield.obj
 0001:000c72d8       ?Get_Value@CMoField@@QAE?AUtagVARIANT@@XZ 004c82d8 f   mofield.obj
 0001:000c7332       ?Set_Value@CMoField@@QAEXABUtagVARIANT@@@Z 004c8332 f   mofield.obj
 0001:000c7370       ?GetCount@CMoFields@@QAEFXZ 004c8370 f   mofields.obj
 0001:000c73a9       ?SetCount@CMoFields@@QAEXF@Z 004c83a9 f   mofields.obj
 0001:000c73dc       ?Item@CMoFields@@QAE?AVCMoField@@ABUtagVARIANT@@@Z 004c83dc f   mofields.obj
 0001:000c7450       ??0CMoField@@QAE@PAUIDispatch@@@Z 004c8450 f i mofields.obj
 0001:000c7480       ?GetValid@CMoGeocoder@@QAEHXZ 004c8480 f   mogeocoder.obj
 0001:000c74b8       ?SetValid@CMoGeocoder@@QAEXH@Z 004c84b8 f   mogeocoder.obj
 0001:000c74ea       ?GetCandidateCount@CMoGeocoder@@QAEFXZ 004c84ea f   mogeocoder.obj
 0001:000c7523       ?SetCandidateCount@CMoGeocoder@@QAEXF@Z 004c8523 f   mogeocoder.obj
 0001:000c7556       ?GetSqueezeFactor@CMoGeocoder@@QAENXZ 004c8556 f   mogeocoder.obj
 0001:000c7595       ?SetSqueezeFactor@CMoGeocoder@@QAEXN@Z 004c8595 f   mogeocoder.obj
 0001:000c75cb       ?GetOffset@CMoGeocoder@@QAENXZ 004c85cb f   mogeocoder.obj
 0001:000c760a       ?SetOffset@CMoGeocoder@@QAEXN@Z 004c860a f   mogeocoder.obj
 0001:000c7640       ?GetMatchRules@CMoGeocoder@@QAE?AVCString@@XZ 004c8640 f   mogeocoder.obj
 0001:000c76d7       ?SetMatchRules@CMoGeocoder@@QAEXPBD@Z 004c86d7 f   mogeocoder.obj
 0001:000c7709       ?GetMatchVariableCount@CMoGeocoder@@QAEFXZ 004c8709 f   mogeocoder.obj
 0001:000c7742       ?SetMatchVariableCount@CMoGeocoder@@QAEXF@Z 004c8742 f   mogeocoder.obj
 0001:000c7775       ?GetStandardizer@CMoGeocoder@@QAE?AVCMoStandardizer@@XZ 004c8775 f   mogeocoder.obj
 0001:000c77d2       ?SetStandardizer@CMoGeocoder@@QAEXPAUIDispatch@@@Z 004c87d2 f   mogeocoder.obj
 0001:000c7804       ?GetStreetTable@CMoGeocoder@@QAE?AVCMoGeoDataset@@XZ 004c8804 f   mogeocoder.obj
 0001:000c7861       ?SetStreetTable@CMoGeocoder@@QAEXPAUIDispatch@@@Z 004c8861 f   mogeocoder.obj
 0001:000c7893       ?GetLastError@CMoGeocoder@@QAEJXZ 004c8893 f   mogeocoder.obj
 0001:000c78cb       ?SetLastError@CMoGeocoder@@QAEXJ@Z 004c88cb f   mogeocoder.obj
 0001:000c78fd       ?GetIntersectionMatchRules@CMoGeocoder@@QAE?AVCString@@XZ 004c88fd f   mogeocoder.obj
 0001:000c7994       ?SetIntersectionMatchRules@CMoGeocoder@@QAEXPBD@Z 004c8994 f   mogeocoder.obj
 0001:000c79c6       ?GetIntersectionMatchVariableCount@CMoGeocoder@@QAEFXZ 004c89c6 f   mogeocoder.obj
 0001:000c79ff       ?SetIntersectionMatchVariableCount@CMoGeocoder@@QAEXF@Z 004c89ff f   mogeocoder.obj
 0001:000c7a32       ?GetMinimumMatchScore@CMoGeocoder@@QAEFXZ 004c8a32 f   mogeocoder.obj
 0001:000c7a6b       ?SetMinimumMatchScore@CMoGeocoder@@QAEXF@Z 004c8a6b f   mogeocoder.obj
 0001:000c7a9e       ?GetSpellingSensitivity@CMoGeocoder@@QAEMXZ 004c8a9e f   mogeocoder.obj
 0001:000c7ad6       ?SetSpellingSensitivity@CMoGeocoder@@QAEXM@Z 004c8ad6 f   mogeocoder.obj
 0001:000c7b0d       ?GetMatchWhenAmbiguous@CMoGeocoder@@QAEHXZ 004c8b0d f   mogeocoder.obj
 0001:000c7b45       ?SetMatchWhenAmbiguous@CMoGeocoder@@QAEXH@Z 004c8b45 f   mogeocoder.obj
 0001:000c7b77       ?GetSearchQueries@CMoGeocoder@@QAE?AVCMoStrings@@XZ 004c8b77 f   mogeocoder.obj
 0001:000c7bd4       ?SetSearchQueries@CMoGeocoder@@QAEXPAUIDispatch@@@Z 004c8bd4 f   mogeocoder.obj
 0001:000c7c06       ?GetCandidate@CMoGeocoder@@QAE?AVCString@@F@Z 004c8c06 f   mogeocoder.obj
 0001:000c7cad       ?GetMatchVariable@CMoGeocoder@@QAE?AVCString@@F@Z 004c8cad f   mogeocoder.obj
 0001:000c7d54       ?GetMatchVariableField@CMoGeocoder@@QAE?AVCString@@PBD@Z 004c8d54 f   mogeocoder.obj
 0001:000c7dfa       ?SetMatchVariableField@CMoGeocoder@@QAEXPBD0@Z 004c8dfa f   mogeocoder.obj
 0001:000c7e39       ?LocateCandidate@CMoGeocoder@@QAE?AVCMoAddressLocation@@F@Z 004c8e39 f   mogeocoder.obj
 0001:000c7ea6       ?GetIntersectionMatchVariable@CMoGeocoder@@QAE?AVCString@@F@Z 004c8ea6 f   mogeocoder.obj
 0001:000c7f4d       ?GetMatchVariableIntersectionLink@CMoGeocoder@@QAE?AVCString@@PBDJ@Z 004c8f4d f   mogeocoder.obj
 0001:000c7ff7       ?SetMatchVariableIntersectionLink@CMoGeocoder@@QAEXPBDJ0@Z 004c8ff7 f   mogeocoder.obj
 0001:000c803a       ?GetBatchMatchVariableField@CMoGeocoder@@QAE?AVCString@@PBD@Z 004c903a f   mogeocoder.obj
 0001:000c80e0       ?SetBatchMatchVariableField@CMoGeocoder@@QAEXPBD0@Z 004c90e0 f   mogeocoder.obj
 0001:000c811f       ?ListIndices@CMoGeocoder@@QAE?AVCMoStrings@@XZ 004c911f f   mogeocoder.obj
 0001:000c8183       ?IndexStatus@CMoGeocoder@@QAEJXZ 004c9183 f   mogeocoder.obj
 0001:000c81c3       ?EraseIndices@CMoGeocoder@@QAEHXZ 004c91c3 f   mogeocoder.obj
 0001:000c8203       ?AddIndex@CMoGeocoder@@QAEHPBD0J@Z 004c9203 f   mogeocoder.obj
 0001:000c8254       ?BuildIndices@CMoGeocoder@@QAEHH@Z 004c9254 f   mogeocoder.obj
 0001:000c829d       ?GenerateCandidates@CMoGeocoder@@QAEJXZ 004c929d f   mogeocoder.obj
 0001:000c82dd       ?BatchMatch@CMoGeocoder@@QAEJPAUIDispatch@@PBD010@Z 004c92dd f   mogeocoder.obj
 0001:000c8340       ??0CMoStandardizer@@QAE@PAUIDispatch@@@Z 004c9340 f i mogeocoder.obj
 0001:000c8370       ??0CMoAddressLocation@@QAE@PAUIDispatch@@@Z 004c9370 f i mogeocoder.obj
 0001:000c83a0       ?GetType@CMoGeoCoordSys@@QAEJXZ 004c93a0 f   mogeocoordsys.obj
 0001:000c83d8       ?SetType@CMoGeoCoordSys@@QAEXJ@Z 004c93d8 f   mogeocoordsys.obj
 0001:000c840a       ?GetName@CMoGeoCoordSys@@QAE?AVCString@@XZ 004c940a f   mogeocoordsys.obj
 0001:000c84a1       ?SetName@CMoGeoCoordSys@@QAEXPBD@Z 004c94a1 f   mogeocoordsys.obj
 0001:000c84d3       ?GetDatum@CMoGeoCoordSys@@QAE?AVCMoDatum@@XZ 004c94d3 f   mogeocoordsys.obj
 0001:000c8530       ?SetDatum@CMoGeoCoordSys@@QAEXPAUIDispatch@@@Z 004c9530 f   mogeocoordsys.obj
 0001:000c8562       ?GetUnit@CMoGeoCoordSys@@QAE?AVCMoUnit@@XZ 004c9562 f   mogeocoordsys.obj
 0001:000c85bf       ?SetUnit@CMoGeoCoordSys@@QAEXPAUIDispatch@@@Z 004c95bf f   mogeocoordsys.obj
 0001:000c85f1       ?GetPrimeMeridian@CMoGeoCoordSys@@QAE?AVCMoPrimeMeridian@@XZ 004c95f1 f   mogeocoordsys.obj
 0001:000c864e       ?SetPrimeMeridian@CMoGeoCoordSys@@QAEXPAUIDispatch@@@Z 004c964e f   mogeocoordsys.obj
 0001:000c8680       ?GetIsProjected@CMoGeoCoordSys@@QAEHXZ 004c9680 f   mogeocoordsys.obj
 0001:000c86b8       ?SetIsProjected@CMoGeoCoordSys@@QAEXH@Z 004c96b8 f   mogeocoordsys.obj
 0001:000c86ea       ?Transform@CMoGeoCoordSys@@QAEPAUIDispatch@@PAU2@0ABUtagVARIANT@@1@Z 004c96ea f   mogeocoordsys.obj
 0001:000c873f       ?Export@CMoGeoCoordSys@@QAEXPBD@Z 004c973f f   mogeocoordsys.obj
 0001:000c877a       ?ReturnDescription@CMoGeoCoordSys@@QAE?AVCString@@XZ 004c977a f   mogeocoordsys.obj
 0001:000c8820       ??0CMoDatum@@QAE@PAUIDispatch@@@Z 004c9820 f i mogeocoordsys.obj
 0001:000c8850       ??0CMoUnit@@QAE@PAUIDispatch@@@Z 004c9850 f i mogeocoordsys.obj
 0001:000c8880       ??0CMoPrimeMeridian@@QAE@PAUIDispatch@@@Z 004c9880 f i mogeocoordsys.obj
 0001:000c88b0       ?GetName@CMoGeoDataset@@QAE?AVCString@@XZ 004c98b0 f   mogeodataset.obj
 0001:000c8947       ?SetName@CMoGeoDataset@@QAEXPBD@Z 004c9947 f   mogeodataset.obj
 0001:000c8979       ?GetAllowSharing@CMoGeoDataset@@QAEHXZ 004c9979 f   mogeodataset.obj
 0001:000c89b1       ?SetAllowSharing@CMoGeoDataset@@QAEXH@Z 004c99b1 f   mogeodataset.obj
 0001:000c89e3       ?GetHasZ@CMoGeoDataset@@QAEHXZ 004c99e3 f   mogeodataset.obj
 0001:000c8a1b       ?SetHasZ@CMoGeoDataset@@QAEXH@Z 004c9a1b f   mogeodataset.obj
 0001:000c8a4d       ?GetHasMeasure@CMoGeoDataset@@QAEHXZ 004c9a4d f   mogeodataset.obj
 0001:000c8a85       ?SetHasMeasure@CMoGeoDataset@@QAEXH@Z 004c9a85 f   mogeodataset.obj
 0001:000c8ac0       ?GetCount@CMoGeoDatasets@@QAEFXZ 004c9ac0 f   mogeodatasets.obj
 0001:000c8af9       ?SetCount@CMoGeoDatasets@@QAEXF@Z 004c9af9 f   mogeodatasets.obj
 0001:000c8b2c       ?Item@CMoGeoDatasets@@QAEPAUIDispatch@@ABUtagVARIANT@@@Z 004c9b2c f   mogeodatasets.obj
 0001:000c8b80       ?GetTag@CMoGeoEvent@@QAE?AVCString@@XZ 004c9b80 f   mogeoevent.obj
 0001:000c8c17       ?SetTag@CMoGeoEvent@@QAEXPBD@Z 004c9c17 f   mogeoevent.obj
 0001:000c8c49       ?GetSymbolIndex@CMoGeoEvent@@QAEJXZ 004c9c49 f   mogeoevent.obj
 0001:000c8c81       ?SetSymbolIndex@CMoGeoEvent@@QAEXJ@Z 004c9c81 f   mogeoevent.obj
 0001:000c8cb3       ?GetX@CMoGeoEvent@@QAENXZ  004c9cb3 f   mogeoevent.obj
 0001:000c8cf2       ?SetX@CMoGeoEvent@@QAEXN@Z 004c9cf2 f   mogeoevent.obj
 0001:000c8d28       ?GetY@CMoGeoEvent@@QAENXZ  004c9d28 f   mogeoevent.obj
 0001:000c8d67       ?SetY@CMoGeoEvent@@QAEXN@Z 004c9d67 f   mogeoevent.obj
 0001:000c8d9d       ?GetIndex@CMoGeoEvent@@QAEJXZ 004c9d9d f   mogeoevent.obj
 0001:000c8dd5       ?SetIndex@CMoGeoEvent@@QAEXJ@Z 004c9dd5 f   mogeoevent.obj
 0001:000c8e07       ?GetShape@CMoGeoEvent@@QAEPAUIDispatch@@XZ 004c9e07 f   mogeoevent.obj
 0001:000c8e3f       ?SetShape@CMoGeoEvent@@QAEXPAUIDispatch@@@Z 004c9e3f f   mogeoevent.obj
 0001:000c8e71       ?MoveTo@CMoGeoEvent@@QAEXNN@Z 004c9e71 f   mogeoevent.obj
 0001:000c8eb8       ?Move@CMoGeoEvent@@QAEXNN@Z 004c9eb8 f   mogeoevent.obj
 0001:000c8f00       ?GetType@CMoGeoTransformation@@QAEJXZ 004c9f00 f   mogeotransformation.obj
 0001:000c8f38       ?SetType@CMoGeoTransformation@@QAEXJ@Z 004c9f38 f   mogeotransformation.obj
 0001:000c8f6a       ?GetName@CMoGeoTransformation@@QAE?AVCString@@XZ 004c9f6a f   mogeotransformation.obj
 0001:000c9001       ?SetName@CMoGeoTransformation@@QAEXPBD@Z 004ca001 f   mogeotransformation.obj
 0001:000c9033       ?GetFromGeoCoordSys@CMoGeoTransformation@@QAE?AVCMoGeoCoordSys@@XZ 004ca033 f   mogeotransformation.obj
 0001:000c9090       ?SetFromGeoCoordSys@CMoGeoTransformation@@QAEXPAUIDispatch@@@Z 004ca090 f   mogeotransformation.obj
 0001:000c90c2       ?GetToGeoCoordSys@CMoGeoTransformation@@QAE?AVCMoGeoCoordSys@@XZ 004ca0c2 f   mogeotransformation.obj
 0001:000c911f       ?SetToGeoCoordSys@CMoGeoTransformation@@QAEXPAUIDispatch@@@Z 004ca11f f   mogeotransformation.obj
 0001:000c9151       ?GetMethod@CMoGeoTransformation@@QAEJXZ 004ca151 f   mogeotransformation.obj
 0001:000c9189       ?SetMethod@CMoGeoTransformation@@QAEXJ@Z 004ca189 f   mogeotransformation.obj
 0001:000c91bb       ?GetDirection@CMoGeoTransformation@@QAEJXZ 004ca1bb f   mogeotransformation.obj
 0001:000c91f3       ?SetDirection@CMoGeoTransformation@@QAEXJ@Z 004ca1f3 f   mogeotransformation.obj
 0001:000c9225       ?GetSecondType@CMoGeoTransformation@@QAEJXZ 004ca225 f   mogeotransformation.obj
 0001:000c925d       ?SetSecondType@CMoGeoTransformation@@QAEXJ@Z 004ca25d f   mogeotransformation.obj
 0001:000c928f       ?GetSecondName@CMoGeoTransformation@@QAE?AVCString@@XZ 004ca28f f   mogeotransformation.obj
 0001:000c9326       ?SetSecondName@CMoGeoTransformation@@QAEXPBD@Z 004ca326 f   mogeotransformation.obj
 0001:000c9358       ?GetSecondDirection@CMoGeoTransformation@@QAEJXZ 004ca358 f   mogeotransformation.obj
 0001:000c9390       ?SetSecondDirection@CMoGeoTransformation@@QAEXJ@Z 004ca390 f   mogeotransformation.obj
 0001:000c93c2       ?SetParameter@CMoGeoTransformation@@QAEXJN@Z 004ca3c2 f   mogeotransformation.obj
 0001:000c9405       ?GetParameter@CMoGeoTransformation@@QAENJ@Z 004ca405 f   mogeotransformation.obj
 0001:000c9460       ??0CMoGeoCoordSys@@QAE@PAUIDispatch@@@Z 004ca460 f i mogeotransformation.obj
 0001:000c9490       ?GetCount@CMoGroupRenderer@@QAEFXZ 004ca490 f   mogrouprenderer.obj
 0001:000c94c9       ?SetCount@CMoGroupRenderer@@QAEXF@Z 004ca4c9 f   mogrouprenderer.obj
 0001:000c94fc       ?GetDrawBackground@CMoGroupRenderer@@QAEHXZ 004ca4fc f   mogrouprenderer.obj
 0001:000c9534       ?SetDrawBackground@CMoGroupRenderer@@QAEXH@Z 004ca534 f   mogrouprenderer.obj
 0001:000c9566       ?GetTag@CMoGroupRenderer@@QAE?AVCString@@XZ 004ca566 f   mogrouprenderer.obj
 0001:000c95fd       ?SetTag@CMoGroupRenderer@@QAEXPBD@Z 004ca5fd f   mogrouprenderer.obj
 0001:000c962f       ?GetRenderer@CMoGroupRenderer@@QAEPAUIDispatch@@F@Z 004ca62f f   mogrouprenderer.obj
 0001:000c9679       ?SetRefRenderer@CMoGroupRenderer@@QAEXFPAUIDispatch@@@Z 004ca679 f   mogrouprenderer.obj
 0001:000c96b9       ?Add@CMoGroupRenderer@@QAEFPAUIDispatch@@@Z 004ca6b9 f   mogrouprenderer.obj
 0001:000c9703       ?Remove@CMoGroupRenderer@@QAEXF@Z 004ca703 f   mogrouprenderer.obj
 0001:000c9740       ?GetVisible@CMoImageLayer@@QAEHXZ 004ca740 f   moimagelayer.obj
 0001:000c9778       ?SetVisible@CMoImageLayer@@QAEXH@Z 004ca778 f   moimagelayer.obj
 0001:000c97aa       ?GetName@CMoImageLayer@@QAE?AVCString@@XZ 004ca7aa f   moimagelayer.obj
 0001:000c9841       ?SetName@CMoImageLayer@@QAEXPBD@Z 004ca841 f   moimagelayer.obj
 0001:000c9873       ?GetExtent@CMoImageLayer@@QAE?AVCMoRectangle@@XZ 004ca873 f   moimagelayer.obj
 0001:000c98d0       ?SetExtent@CMoImageLayer@@QAEXPAUIDispatch@@@Z 004ca8d0 f   moimagelayer.obj
 0001:000c9902       ?GetFile@CMoImageLayer@@QAE?AVCString@@XZ 004ca902 f   moimagelayer.obj
 0001:000c9999       ?SetFile@CMoImageLayer@@QAEXPBD@Z 004ca999 f   moimagelayer.obj
 0001:000c99cb       ?GetLayerType@CMoImageLayer@@QAEJXZ 004ca9cb f   moimagelayer.obj
 0001:000c9a03       ?SetLayerType@CMoImageLayer@@QAEXJ@Z 004caa03 f   moimagelayer.obj
 0001:000c9a35       ?GetTag@CMoImageLayer@@QAE?AVCString@@XZ 004caa35 f   moimagelayer.obj
 0001:000c9acc       ?SetTag@CMoImageLayer@@QAEXPBD@Z 004caacc f   moimagelayer.obj
 0001:000c9afe       ?GetValid@CMoImageLayer@@QAEHXZ 004caafe f   moimagelayer.obj
 0001:000c9b36       ?SetValid@CMoImageLayer@@QAEXH@Z 004cab36 f   moimagelayer.obj
 0001:000c9b68       ?GetUpdateWhileDrawing@CMoImageLayer@@QAEHXZ 004cab68 f   moimagelayer.obj
 0001:000c9ba0       ?SetUpdateWhileDrawing@CMoImageLayer@@QAEXH@Z 004caba0 f   moimagelayer.obj
 0001:000c9bd2       ?GetTransparent@CMoImageLayer@@QAEHXZ 004cabd2 f   moimagelayer.obj
 0001:000c9c0a       ?SetTransparent@CMoImageLayer@@QAEXH@Z 004cac0a f   moimagelayer.obj
 0001:000c9c3c       ?GetTransparentColor@CMoImageLayer@@QAEKXZ 004cac3c f   moimagelayer.obj
 0001:000c9c74       ?SetTransparentColor@CMoImageLayer@@QAEXK@Z 004cac74 f   moimagelayer.obj
 0001:000c9ca6       ?OpenCatalog@CMoImageLayer@@QAEXPAUIDispatch@@PBDJ@Z 004caca6 f   moimagelayer.obj
 0001:000c9ce9       ?GetColumns@CMoImageLayer@@QAEJXZ 004cace9 f   moimagelayer.obj
 0001:000c9d29       ?GetRows@CMoImageLayer@@QAEJXZ 004cad29 f   moimagelayer.obj
 0001:000c9d69       ?GetClipExtent@CMoImageLayer@@QAE?AVCMoRectangle@@XZ 004cad69 f   moimagelayer.obj
 0001:000c9dcd       ?SetClipExtent@CMoImageLayer@@QAEXPAUIDispatch@@@Z 004cadcd f   moimagelayer.obj
 0001:000c9e10       ?GetField@CMoLabelPlacer@@QAE?AVCString@@XZ 004cae10 f   molabelplacer.obj
 0001:000c9ea7       ?SetField@CMoLabelPlacer@@QAEXPBD@Z 004caea7 f   molabelplacer.obj
 0001:000c9ed9       ?GetDrawBackground@CMoLabelPlacer@@QAEHXZ 004caed9 f   molabelplacer.obj
 0001:000c9f11       ?SetDrawBackground@CMoLabelPlacer@@QAEXH@Z 004caf11 f   molabelplacer.obj
 0001:000c9f43       ?GetAllowDuplicates@CMoLabelPlacer@@QAEHXZ 004caf43 f   molabelplacer.obj
 0001:000c9f7b       ?SetAllowDuplicates@CMoLabelPlacer@@QAEXH@Z 004caf7b f   molabelplacer.obj
 0001:000c9fad       ?GetPlaceAbove@CMoLabelPlacer@@QAEHXZ 004cafad f   molabelplacer.obj
 0001:000c9fe5       ?SetPlaceAbove@CMoLabelPlacer@@QAEXH@Z 004cafe5 f   molabelplacer.obj
 0001:000ca017       ?GetPlaceBelow@CMoLabelPlacer@@QAEHXZ 004cb017 f   molabelplacer.obj
 0001:000ca04f       ?SetPlaceBelow@CMoLabelPlacer@@QAEXH@Z 004cb04f f   molabelplacer.obj
 0001:000ca081       ?GetPlaceOn@CMoLabelPlacer@@QAEHXZ 004cb081 f   molabelplacer.obj
 0001:000ca0b9       ?SetPlaceOn@CMoLabelPlacer@@QAEXH@Z 004cb0b9 f   molabelplacer.obj
 0001:000ca0eb       ?GetDefaultSymbol@CMoLabelPlacer@@QAE?AVCMoTextSymbol@@XZ 004cb0eb f   molabelplacer.obj
 0001:000ca148       ?SetDefaultSymbol@CMoLabelPlacer@@QAEXPAUIDispatch@@@Z 004cb148 f   molabelplacer.obj
 0001:000ca17a       ?GetUseDefault@CMoLabelPlacer@@QAEHXZ 004cb17a f   molabelplacer.obj
 0001:000ca1b2       ?SetUseDefault@CMoLabelPlacer@@QAEXH@Z 004cb1b2 f   molabelplacer.obj
 0001:000ca1e4       ?GetValueCount@CMoLabelPlacer@@QAEFXZ 004cb1e4 f   molabelplacer.obj
 0001:000ca21d       ?SetValueCount@CMoLabelPlacer@@QAEXF@Z 004cb21d f   molabelplacer.obj
 0001:000ca250       ?GetValueField@CMoLabelPlacer@@QAE?AVCString@@XZ 004cb250 f   molabelplacer.obj
 0001:000ca2e7       ?SetValueField@CMoLabelPlacer@@QAEXPBD@Z 004cb2e7 f   molabelplacer.obj
 0001:000ca319       ?GetBackgroundRenderer@CMoLabelPlacer@@QAEPAUIDispatch@@XZ 004cb319 f   molabelplacer.obj
 0001:000ca351       ?SetBackgroundRenderer@CMoLabelPlacer@@QAEXPAUIDispatch@@@Z 004cb351 f   molabelplacer.obj
 0001:000ca383       ?GetMaskLabels@CMoLabelPlacer@@QAEHXZ 004cb383 f   molabelplacer.obj
 0001:000ca3bb       ?SetMaskLabels@CMoLabelPlacer@@QAEXH@Z 004cb3bb f   molabelplacer.obj
 0001:000ca3ed       ?GetMaskColor@CMoLabelPlacer@@QAEKXZ 004cb3ed f   molabelplacer.obj
 0001:000ca425       ?SetMaskColor@CMoLabelPlacer@@QAEXK@Z 004cb425 f   molabelplacer.obj
 0001:000ca457       ?GetSymbolWidth@CMoLabelPlacer@@QAEFXZ 004cb457 f   molabelplacer.obj
 0001:000ca490       ?SetSymbolWidth@CMoLabelPlacer@@QAEXF@Z 004cb490 f   molabelplacer.obj
 0001:000ca4c3       ?GetSymbolHeight@CMoLabelPlacer@@QAEFXZ 004cb4c3 f   molabelplacer.obj
 0001:000ca4fc       ?SetSymbolHeight@CMoLabelPlacer@@QAEXF@Z 004cb4fc f   molabelplacer.obj
 0001:000ca52f       ?GetTag@CMoLabelPlacer@@QAE?AVCString@@XZ 004cb52f f   molabelplacer.obj
 0001:000ca5c6       ?SetTag@CMoLabelPlacer@@QAEXPBD@Z 004cb5c6 f   molabelplacer.obj
 0001:000ca5f8       ?GetSymbol@CMoLabelPlacer@@QAE?AVCMoTextSymbol@@F@Z 004cb5f8 f   molabelplacer.obj
 0001:000ca665       ?GetValue@CMoLabelPlacer@@QAE?AVCString@@F@Z 004cb665 f   molabelplacer.obj
 0001:000ca70c       ?SetValue@CMoLabelPlacer@@QAEXFPBD@Z 004cb70c f   molabelplacer.obj
 0001:000ca750       ??0CMoTextSymbol@@QAE@PAUIDispatch@@@Z 004cb750 f i molabelplacer.obj
 0001:000ca780       ?GetField@CMoLabelRenderer@@QAE?AVCString@@XZ 004cb780 f   molabelrenderer.obj
 0001:000ca817       ?SetField@CMoLabelRenderer@@QAEXPBD@Z 004cb817 f   molabelrenderer.obj
 0001:000ca849       ?GetDrawBackground@CMoLabelRenderer@@QAEHXZ 004cb849 f   molabelrenderer.obj
 0001:000ca881       ?SetDrawBackground@CMoLabelRenderer@@QAEXH@Z 004cb881 f   molabelrenderer.obj
 0001:000ca8b3       ?GetSymbolField@CMoLabelRenderer@@QAE?AVCString@@XZ 004cb8b3 f   molabelrenderer.obj
 0001:000ca94a       ?SetSymbolField@CMoLabelRenderer@@QAEXPBD@Z 004cb94a f   molabelrenderer.obj
 0001:000ca97c       ?GetLevelField@CMoLabelRenderer@@QAE?AVCString@@XZ 004cb97c f   molabelrenderer.obj
 0001:000caa13       ?SetLevelField@CMoLabelRenderer@@QAEXPBD@Z 004cba13 f   molabelrenderer.obj
 0001:000caa45       ?GetMinLevel@CMoLabelRenderer@@QAEFXZ 004cba45 f   molabelrenderer.obj
 0001:000caa7e       ?SetMinLevel@CMoLabelRenderer@@QAEXF@Z 004cba7e f   molabelrenderer.obj
 0001:000caab1       ?GetMaxLevel@CMoLabelRenderer@@QAEFXZ 004cbab1 f   molabelrenderer.obj
 0001:000caaea       ?SetMaxLevel@CMoLabelRenderer@@QAEXF@Z 004cbaea f   molabelrenderer.obj
 0001:000cab1d       ?GetRotationField@CMoLabelRenderer@@QAE?AVCString@@XZ 004cbb1d f   molabelrenderer.obj
 0001:000cabb4       ?SetRotationField@CMoLabelRenderer@@QAEXPBD@Z 004cbbb4 f   molabelrenderer.obj
 0001:000cabe6       ?GetHeightField@CMoLabelRenderer@@QAE?AVCString@@XZ 004cbbe6 f   molabelrenderer.obj
 0001:000cac7d       ?SetHeightField@CMoLabelRenderer@@QAEXPBD@Z 004cbc7d f   molabelrenderer.obj
 0001:000cacaf       ?GetSplinedText@CMoLabelRenderer@@QAEHXZ 004cbcaf f   molabelrenderer.obj
 0001:000cace7       ?SetSplinedText@CMoLabelRenderer@@QAEXH@Z 004cbce7 f   molabelrenderer.obj
 0001:000cad19       ?GetAllowDuplicates@CMoLabelRenderer@@QAEHXZ 004cbd19 f   molabelrenderer.obj
 0001:000cad51       ?SetAllowDuplicates@CMoLabelRenderer@@QAEXH@Z 004cbd51 f   molabelrenderer.obj
 0001:000cad83       ?GetTag@CMoLabelRenderer@@QAE?AVCString@@XZ 004cbd83 f   molabelrenderer.obj
 0001:000cae1a       ?SetTag@CMoLabelRenderer@@QAEXPBD@Z 004cbe1a f   molabelrenderer.obj
 0001:000cae4c       ?GetFlip@CMoLabelRenderer@@QAEHXZ 004cbe4c f   molabelrenderer.obj
 0001:000cae84       ?SetFlip@CMoLabelRenderer@@QAEXH@Z 004cbe84 f   molabelrenderer.obj
 0001:000caeb6       ?GetXOffsetField@CMoLabelRenderer@@QAE?AVCString@@XZ 004cbeb6 f   molabelrenderer.obj
 0001:000caf4d       ?SetXOffsetField@CMoLabelRenderer@@QAEXPBD@Z 004cbf4d f   molabelrenderer.obj
 0001:000caf7f       ?GetYOffsetField@CMoLabelRenderer@@QAE?AVCString@@XZ 004cbf7f f   molabelrenderer.obj
 0001:000cb016       ?SetYOffsetField@CMoLabelRenderer@@QAEXPBD@Z 004cc016 f   molabelrenderer.obj
 0001:000cb048       ?GetFittedField@CMoLabelRenderer@@QAE?AVCString@@XZ 004cc048 f   molabelrenderer.obj
 0001:000cb0df       ?SetFittedField@CMoLabelRenderer@@QAEXPBD@Z 004cc0df f   molabelrenderer.obj
 0001:000cb111       ?GetSymbolCount@CMoLabelRenderer@@QAEFXZ 004cc111 f   molabelrenderer.obj
 0001:000cb14a       ?SetSymbolCount@CMoLabelRenderer@@QAEXF@Z 004cc14a f   molabelrenderer.obj
 0001:000cb17d       ?GetSymbol@CMoLabelRenderer@@QAE?AVCMoTextSymbol@@F@Z 004cc17d f   molabelrenderer.obj
 0001:000cb1f0       ?GetCount@CMoLayers@@QAEFXZ 004cc1f0 f   molayers.obj
 0001:000cb229       ?SetCount@CMoLayers@@QAEXF@Z 004cc229 f   molayers.obj
 0001:000cb25c       ?Item@CMoLayers@@QAEPAUIDispatch@@ABUtagVARIANT@@@Z 004cc25c f   molayers.obj
 0001:000cb2a5       ?Add@CMoLayers@@QAEHPAUIDispatch@@@Z 004cc2a5 f   molayers.obj
 0001:000cb2ee       ?Remove@CMoLayers@@QAEXF@Z 004cc2ee f   molayers.obj
 0001:000cb32a       ?Clear@CMoLayers@@QAEXXZ   004cc32a f   molayers.obj
 0001:000cb35c       ?MoveTo@CMoLayers@@QAEXFF@Z 004cc35c f   molayers.obj
 0001:000cb39d       ?MoveToTop@CMoLayers@@QAEXF@Z 004cc39d f   molayers.obj
 0001:000cb3d9       ?MoveToBottom@CMoLayers@@QAEXF@Z 004cc3d9 f   molayers.obj
 0001:000cb420       ?GetExtent@CMoLine@@QAE?AVCMoRectangle@@XZ 004cc420 f   moline.obj
 0001:000cb47d       ?SetExtent@CMoLine@@QAEXPAUIDispatch@@@Z 004cc47d f   moline.obj
 0001:000cb4af       ?GetParts@CMoLine@@QAE?AVCMoParts@@XZ 004cc4af f   moline.obj
 0001:000cb50c       ?SetParts@CMoLine@@QAEXPAUIDispatch@@@Z 004cc50c f   moline.obj
 0001:000cb53e       ?GetLength@CMoLine@@QAENXZ 004cc53e f   moline.obj
 0001:000cb57d       ?SetLength@CMoLine@@QAEXN@Z 004cc57d f   moline.obj
 0001:000cb5b3       ?GetShapeType@CMoLine@@QAEJXZ 004cc5b3 f   moline.obj
 0001:000cb5eb       ?SetShapeType@CMoLine@@QAEXJ@Z 004cc5eb f   moline.obj
 0001:000cb61d       ?GetIsFullyMeasured@CMoLine@@QAEHXZ 004cc61d f   moline.obj
 0001:000cb655       ?SetIsFullyMeasured@CMoLine@@QAEXH@Z 004cc655 f   moline.obj
 0001:000cb687       ?Offset@CMoLine@@QAEXNN@Z  004cc687 f   moline.obj
 0001:000cb6ce       ?DistanceTo@CMoLine@@QAENPAUIDispatch@@@Z 004cc6ce f   moline.obj
 0001:000cb71e       ?GetCrossings@CMoLine@@QAE?AVCMoPoints@@PAUIDispatch@@@Z 004cc71e f   moline.obj
 0001:000cb78a       ?ReturnPointEvents@CMoLine@@QAE?AVCMoPoints@@N@Z 004cc78a f   moline.obj
 0001:000cb7fa       ?ReturnLineEvent@CMoLine@@QAE?AV1@NN@Z 004cc7fa f   moline.obj
 0001:000cb872       ?ReturnMeasure@CMoLine@@QAENPAUIDispatch@@@Z 004cc872 f   moline.obj
 0001:000cb8c2       ?UpdateMeasures@CMoLine@@QAEXXZ 004cc8c2 f   moline.obj
 0001:000cb8f4       ?SetMeasures@CMoLine@@QAEXNN@Z 004cc8f4 f   moline.obj
 0001:000cb93b       ?SetMeasuresAsLength@CMoLine@@QAEXXZ 004cc93b f   moline.obj
 0001:000cb96d       ?OffsetMeasures@CMoLine@@QAEXN@Z 004cc96d f   moline.obj
 0001:000cb9ac       ?MultiplyMeasures@CMoLine@@QAEXN@Z 004cc9ac f   moline.obj
 0001:000cb9eb       ?Union@CMoLine@@QAEPAUIDispatch@@PAU2@ABUtagVARIANT@@@Z 004cc9eb f   moline.obj
 0001:000cba38       ?Xor@CMoLine@@QAEPAUIDispatch@@PAU2@ABUtagVARIANT@@@Z 004cca38 f   moline.obj
 0001:000cba85       ?Difference@CMoLine@@QAEPAUIDispatch@@PAU2@ABUtagVARIANT@@@Z 004cca85 f   moline.obj
 0001:000cbad2       ?Intersect@CMoLine@@QAEPAUIDispatch@@PAU2@ABUtagVARIANT@@@Z 004ccad2 f   moline.obj
 0001:000cbb1f       ?Buffer@CMoLine@@QAEPAUIDispatch@@NABUtagVARIANT@@@Z 004ccb1f f   moline.obj
 0001:000cbb70       ??0CMoParts@@QAE@PAUIDispatch@@@Z 004ccb70 f i moline.obj
 0001:000cbba0       ??0CMoPoints@@QAE@PAUIDispatch@@@Z 004ccba0 f i moline.obj
 0001:000cbbd0       ?GetName@CMoMapLayer@@QAE?AVCString@@XZ 004ccbd0 f   momaplayer.obj
 0001:000cbc67       ?SetName@CMoMapLayer@@QAEXPBD@Z 004ccc67 f   momaplayer.obj
 0001:000cbc99       ?GetExtent@CMoMapLayer@@QAE?AVCMoRectangle@@XZ 004ccc99 f   momaplayer.obj
 0001:000cbcf6       ?SetExtent@CMoMapLayer@@QAEXPAUIDispatch@@@Z 004cccf6 f   momaplayer.obj
 0001:000cbd28       ?GetVisible@CMoMapLayer@@QAEHXZ 004ccd28 f   momaplayer.obj
 0001:000cbd60       ?SetVisible@CMoMapLayer@@QAEXH@Z 004ccd60 f   momaplayer.obj
 0001:000cbd92       ?GetRecords@CMoMapLayer@@QAE?AVCMoRecordset@@XZ 004ccd92 f   momaplayer.obj
 0001:000cbdef       ?SetRecords@CMoMapLayer@@QAEXPAUIDispatch@@@Z 004ccdef f   momaplayer.obj
 0001:000cbe21       ?GetSymbol@CMoMapLayer@@QAE?AVCMoSymbol@@XZ 004cce21 f   momaplayer.obj
 0001:000cbe7e       ?SetSymbol@CMoMapLayer@@QAEXPAUIDispatch@@@Z 004cce7e f   momaplayer.obj
 0001:000cbeb0       ?GetGeoDataset@CMoMapLayer@@QAE?AVCMoGeoDataset@@XZ 004cceb0 f   momaplayer.obj
 0001:000cbf0d       ?SetGeoDataset@CMoMapLayer@@QAEXPAUIDispatch@@@Z 004ccf0d f   momaplayer.obj
 0001:000cbf3f       ?GetLayerType@CMoMapLayer@@QAEJXZ 004ccf3f f   momaplayer.obj
 0001:000cbf77       ?SetLayerType@CMoMapLayer@@QAEXJ@Z 004ccf77 f   momaplayer.obj
 0001:000cbfa9       ?GetAreaOfInterest@CMoMapLayer@@QAE?AVCMoRectangle@@XZ 004ccfa9 f   momaplayer.obj
 0001:000cc006       ?SetAreaOfInterest@CMoMapLayer@@QAEXPAUIDispatch@@@Z 004cd006 f   momaplayer.obj
 0001:000cc038       ?GetRenderer@CMoMapLayer@@QAEPAUIDispatch@@XZ 004cd038 f   momaplayer.obj
 0001:000cc070       ?SetRenderer@CMoMapLayer@@QAEXPAUIDispatch@@@Z 004cd070 f   momaplayer.obj
 0001:000cc0a2       ?GetTag@CMoMapLayer@@QAE?AVCString@@XZ 004cd0a2 f   momaplayer.obj
 0001:000cc139       ?SetTag@CMoMapLayer@@QAEXPBD@Z 004cd139 f   momaplayer.obj
 0001:000cc16b       ?GetShapeType@CMoMapLayer@@QAEJXZ 004cd16b f   momaplayer.obj
 0001:000cc1a3       ?SetShapeType@CMoMapLayer@@QAEXJ@Z 004cd1a3 f   momaplayer.obj
 0001:000cc1d5       ?GetValid@CMoMapLayer@@QAEHXZ 004cd1d5 f   momaplayer.obj
 0001:000cc20d       ?SetValid@CMoMapLayer@@QAEXH@Z 004cd20d f   momaplayer.obj
 0001:000cc23f       ?GetIndexed@CMoMapLayer@@QAEHXZ 004cd23f f   momaplayer.obj
 0001:000cc277       ?SetIndexed@CMoMapLayer@@QAEXH@Z 004cd277 f   momaplayer.obj
 0001:000cc2a9       ?GetCoordinateSystem@CMoMapLayer@@QAE?AUtagVARIANT@@XZ 004cd2a9 f   momaplayer.obj
 0001:000cc303       ?SetCoordinateSystem@CMoMapLayer@@QAEXABUtagVARIANT@@@Z 004cd303 f   momaplayer.obj
 0001:000cc335       ?GetGeographicTransformation@CMoMapLayer@@QAE?AUtagVARIANT@@XZ 004cd335 f   momaplayer.obj
 0001:000cc38f       ?SetGeographicTransformation@CMoMapLayer@@QAEXABUtagVARIANT@@@Z 004cd38f f   momaplayer.obj
 0001:000cc3c1       ?GetDensificationTolerance@CMoMapLayer@@QAENXZ 004cd3c1 f   momaplayer.obj
 0001:000cc400       ?SetDensificationTolerance@CMoMapLayer@@QAEXN@Z 004cd400 f   momaplayer.obj
 0001:000cc436       ?GetFilterShape@CMoMapLayer@@QAE?AUtagVARIANT@@XZ 004cd436 f   momaplayer.obj
 0001:000cc490       ?SetFilterShape@CMoMapLayer@@QAEXABUtagVARIANT@@@Z 004cd490 f   momaplayer.obj
 0001:000cc4c2       ?GetFilterOperator@CMoMapLayer@@QAEJXZ 004cd4c2 f   momaplayer.obj
 0001:000cc4fa       ?SetFilterOperator@CMoMapLayer@@QAEXJ@Z 004cd4fa f   momaplayer.obj
 0001:000cc52c       ?GetFilterExpression@CMoMapLayer@@QAE?AVCString@@XZ 004cd52c f   momaplayer.obj
 0001:000cc5c3       ?SetFilterExpression@CMoMapLayer@@QAEXPBD@Z 004cd5c3 f   momaplayer.obj
 0001:000cc5f5       ?GetFilterFields@CMoMapLayer@@QAE?AVCMoStrings@@XZ 004cd5f5 f   momaplayer.obj
 0001:000cc652       ?SetFilterFields@CMoMapLayer@@QAEXPAUIDispatch@@@Z 004cd652 f   momaplayer.obj
 0001:000cc684       ?GetFilterOrder@CMoMapLayer@@QAEJXZ 004cd684 f   momaplayer.obj
 0001:000cc6bc       ?SetFilterOrder@CMoMapLayer@@QAEXJ@Z 004cd6bc f   momaplayer.obj
 0001:000cc6ee       ?GetFilterTables@CMoMapLayer@@QAE?AVCMoStrings@@XZ 004cd6ee f   momaplayer.obj
 0001:000cc74b       ?SetFilterTables@CMoMapLayer@@QAEXPAUIDispatch@@@Z 004cd74b f   momaplayer.obj
 0001:000cc77d       ?SearchExpression@CMoMapLayer@@QAE?AVCMoRecordset@@PBD@Z 004cd77d f   momaplayer.obj
 0001:000cc7e9       ?AddRelate@CMoMapLayer@@QAEHPBDPAUIDispatch@@0ABUtagVARIANT@@@Z 004cd7e9 f   momaplayer.obj
 0001:000cc83e       ?RemoveRelates@CMoMapLayer@@QAEXXZ 004cd83e f   momaplayer.obj
 0001:000cc870       ?SearchByDistance@CMoMapLayer@@QAE?AVCMoRecordset@@PAUIDispatch@@NPBD@Z 004cd870 f   momaplayer.obj
 0001:000cc8e8       ?SearchShape@CMoMapLayer@@QAE?AVCMoRecordset@@PAUIDispatch@@JPBD@Z 004cd8e8 f   momaplayer.obj
 0001:000cc95b       ?BuildIndex@CMoMapLayer@@QAEHH@Z 004cd95b f   momaplayer.obj
 0001:000cc9b0       ??0CMoRecordset@@QAE@PAUIDispatch@@@Z 004cd9b0 f i momaplayer.obj
 0001:000cc9e0       ?GetCount@CMoParts@@QAEFXZ 004cd9e0 f   moparts.obj
 0001:000cca19       ?SetCount@CMoParts@@QAEXF@Z 004cda19 f   moparts.obj
 0001:000cca4c       ?Add@CMoParts@@QAEXPAUIDispatch@@@Z 004cda4c f   moparts.obj
 0001:000cca87       ?Set@CMoParts@@QAEXFPAUIDispatch@@@Z 004cda87 f   moparts.obj
 0001:000ccac7       ?Remove@CMoParts@@QAEXF@Z  004cdac7 f   moparts.obj
 0001:000ccb03       ?Insert@CMoParts@@QAEXFPAUIDispatch@@@Z 004cdb03 f   moparts.obj
 0001:000ccb43       ?Item@CMoParts@@QAEPAUIDispatch@@ABUtagVARIANT@@@Z 004cdb43 f   moparts.obj
 0001:000ccb90       ?GetIndexed@CMoPlaceLocator@@QAEHXZ 004cdb90 f   moplacelocator.obj
 0001:000ccbc8       ?SetIndexed@CMoPlaceLocator@@QAEXH@Z 004cdbc8 f   moplacelocator.obj
 0001:000ccbfa       ?GetPlaceNameTable@CMoPlaceLocator@@QAE?AVCMoGeoDataset@@XZ 004cdbfa f   moplacelocator.obj
 0001:000ccc57       ?SetPlaceNameTable@CMoPlaceLocator@@QAEXPAUIDispatch@@@Z 004cdc57 f   moplacelocator.obj
 0001:000ccc89       ?BuildIndex@CMoPlaceLocator@@QAEHPBDH@Z 004cdc89 f   moplacelocator.obj
 0001:000cccd6       ?Locate@CMoPlaceLocator@@QAE?AVCMoPoints@@PBD@Z 004cdcd6 f   moplacelocator.obj
 0001:000ccd42       ?FindApproximateMatches@CMoPlaceLocator@@QAE?AVCMoStrings@@PBD@Z 004cdd42 f   moplacelocator.obj
 0001:000ccdae       ?FindAllPlaceNames@CMoPlaceLocator@@QAE?AVCMoStrings@@PBD@Z 004cddae f   moplacelocator.obj
 0001:000cce20       ?GetY@CMoPoint@@QAENXZ     004cde20 f   mopoint.obj
 0001:000cce5f       ?SetY@CMoPoint@@QAEXN@Z    004cde5f f   mopoint.obj
 0001:000cce95       ?GetX@CMoPoint@@QAENXZ     004cde95 f   mopoint.obj
 0001:000cced4       ?SetX@CMoPoint@@QAEXN@Z    004cded4 f   mopoint.obj
 0001:000ccf0a       ?GetZ@CMoPoint@@QAENXZ     004cdf0a f   mopoint.obj
 0001:000ccf49       ?SetZ@CMoPoint@@QAEXN@Z    004cdf49 f   mopoint.obj
 0001:000ccf7f       ?GetMeasure@CMoPoint@@QAENXZ 004cdf7f f   mopoint.obj
 0001:000ccfbe       ?SetMeasure@CMoPoint@@QAEXN@Z 004cdfbe f   mopoint.obj
 0001:000ccff4       ?GetShapeType@CMoPoint@@QAEJXZ 004cdff4 f   mopoint.obj
 0001:000cd02c       ?SetShapeType@CMoPoint@@QAEXJ@Z 004ce02c f   mopoint.obj
 0001:000cd05e       ?DistanceTo@CMoPoint@@QAENPAUIDispatch@@@Z 004ce05e f   mopoint.obj
 0001:000cd0ae       ?DistanceToSegment@CMoPoint@@QAENPAUIDispatch@@0@Z 004ce0ae f   mopoint.obj
 0001:000cd102       ?GetCrossings@CMoPoint@@QAE?AVCMoPoints@@PAUIDispatch@@@Z 004ce102 f   mopoint.obj
 0001:000cd16e       ?Union@CMoPoint@@QAEPAUIDispatch@@PAU2@ABUtagVARIANT@@@Z 004ce16e f   mopoint.obj
 0001:000cd1bb       ?Xor@CMoPoint@@QAEPAUIDispatch@@PAU2@ABUtagVARIANT@@@Z 004ce1bb f   mopoint.obj
 0001:000cd208       ?Difference@CMoPoint@@QAEPAUIDispatch@@PAU2@ABUtagVARIANT@@@Z 004ce208 f   mopoint.obj
 0001:000cd255       ?Intersect@CMoPoint@@QAEPAUIDispatch@@PAU2@ABUtagVARIANT@@@Z 004ce255 f   mopoint.obj
 0001:000cd2a2       ?Buffer@CMoPoint@@QAEPAUIDispatch@@NABUtagVARIANT@@@Z 004ce2a2 f   mopoint.obj
 0001:000cd2f3       ?Set@CMoPoint@@QAEXNNNN@Z  004ce2f3 f   mopoint.obj
 0001:000cd34a       ?Get@CMoPoint@@QAEXPAN000@Z 004ce34a f   mopoint.obj
 0001:000cd3a0       ?GetCount@CMoPoints@@QAEJXZ 004ce3a0 f   mopoints.obj
 0001:000cd3d8       ?SetCount@CMoPoints@@QAEXJ@Z 004ce3d8 f   mopoints.obj
 0001:000cd40a       ?GetShapeType@CMoPoints@@QAEJXZ 004ce40a f   mopoints.obj
 0001:000cd442       ?SetShapeType@CMoPoints@@QAEXJ@Z 004ce442 f   mopoints.obj
 0001:000cd474       ?GetExtent@CMoPoints@@QAE?AVCMoRectangle@@XZ 004ce474 f   mopoints.obj
 0001:000cd4d1       ?SetExtent@CMoPoints@@QAEXPAUIDispatch@@@Z 004ce4d1 f   mopoints.obj
 0001:000cd503       ?Item@CMoPoints@@QAE?AVCMoPoint@@ABUtagVARIANT@@@Z 004ce503 f   mopoints.obj
 0001:000cd56f       ?Add@CMoPoints@@QAEXPAUIDispatch@@@Z 004ce56f f   mopoints.obj
 0001:000cd5aa       ?Set@CMoPoints@@QAEXJPAUIDispatch@@@Z 004ce5aa f   mopoints.obj
 0001:000cd5e9       ?Remove@CMoPoints@@QAEXJ@Z 004ce5e9 f   mopoints.obj
 0001:000cd624       ?Insert@CMoPoints@@QAEXJPAUIDispatch@@@Z 004ce624 f   mopoints.obj
 0001:000cd663       ?Reverse@CMoPoints@@QAEXXZ 004ce663 f   mopoints.obj
 0001:000cd695       ?Offset@CMoPoints@@QAEXNN@Z 004ce695 f   mopoints.obj
 0001:000cd6dc       ?DistanceTo@CMoPoints@@QAENPAUIDispatch@@@Z 004ce6dc f   mopoints.obj
 0001:000cd72c       ?GetCrossings@CMoPoints@@QAE?AV1@PAUIDispatch@@@Z 004ce72c f   mopoints.obj
 0001:000cd798       ?Union@CMoPoints@@QAEPAUIDispatch@@PAU2@ABUtagVARIANT@@@Z 004ce798 f   mopoints.obj
 0001:000cd7e5       ?Xor@CMoPoints@@QAEPAUIDispatch@@PAU2@ABUtagVARIANT@@@Z 004ce7e5 f   mopoints.obj
 0001:000cd832       ?Difference@CMoPoints@@QAEPAUIDispatch@@PAU2@ABUtagVARIANT@@@Z 004ce832 f   mopoints.obj
 0001:000cd87f       ?Intersect@CMoPoints@@QAEPAUIDispatch@@PAU2@ABUtagVARIANT@@@Z 004ce87f f   mopoints.obj
 0001:000cd8cc       ?Buffer@CMoPoints@@QAEPAUIDispatch@@NABUtagVARIANT@@@Z 004ce8cc f   mopoints.obj
 0001:000cd920       ?GetExtent@CMoPolygon@@QAE?AVCMoRectangle@@XZ 004ce920 f   mopolygon.obj
 0001:000cd97d       ?SetExtent@CMoPolygon@@QAEXPAUIDispatch@@@Z 004ce97d f   mopolygon.obj
 0001:000cd9af       ?GetParts@CMoPolygon@@QAE?AVCMoParts@@XZ 004ce9af f   mopolygon.obj
 0001:000cda0c       ?SetParts@CMoPolygon@@QAEXPAUIDispatch@@@Z 004cea0c f   mopolygon.obj
 0001:000cda3e       ?GetCentroid@CMoPolygon@@QAE?AVCMoPoint@@XZ 004cea3e f   mopolygon.obj
 0001:000cda9b       ?SetCentroid@CMoPolygon@@QAEXPAUIDispatch@@@Z 004cea9b f   mopolygon.obj
 0001:000cdacd       ?GetArea@CMoPolygon@@QAENXZ 004ceacd f   mopolygon.obj
 0001:000cdb0c       ?SetArea@CMoPolygon@@QAEXN@Z 004ceb0c f   mopolygon.obj
 0001:000cdb42       ?GetPerimeter@CMoPolygon@@QAENXZ 004ceb42 f   mopolygon.obj
 0001:000cdb81       ?SetPerimeter@CMoPolygon@@QAEXN@Z 004ceb81 f   mopolygon.obj
 0001:000cdbb7       ?GetShapeType@CMoPolygon@@QAEJXZ 004cebb7 f   mopolygon.obj
 0001:000cdbef       ?SetShapeType@CMoPolygon@@QAEXJ@Z 004cebef f   mopolygon.obj
 0001:000cdc21       ?IsPointIn@CMoPolygon@@QAEHPAUIDispatch@@@Z 004cec21 f   mopolygon.obj
 0001:000cdc6a       ?Offset@CMoPolygon@@QAEXNN@Z 004cec6a f   mopolygon.obj
 0001:000cdcb1       ?DistanceTo@CMoPolygon@@QAENPAUIDispatch@@@Z 004cecb1 f   mopolygon.obj
 0001:000cdd01       ?GetCrossings@CMoPolygon@@QAE?AVCMoPoints@@PAUIDispatch@@@Z 004ced01 f   mopolygon.obj
 0001:000cdd6d       ?Union@CMoPolygon@@QAEPAUIDispatch@@PAU2@ABUtagVARIANT@@@Z 004ced6d f   mopolygon.obj
 0001:000cddba       ?Xor@CMoPolygon@@QAEPAUIDispatch@@PAU2@ABUtagVARIANT@@@Z 004cedba f   mopolygon.obj
 0001:000cde07       ?Difference@CMoPolygon@@QAEPAUIDispatch@@PAU2@ABUtagVARIANT@@@Z 004cee07 f   mopolygon.obj
 0001:000cde54       ?Intersect@CMoPolygon@@QAEPAUIDispatch@@PAU2@ABUtagVARIANT@@@Z 004cee54 f   mopolygon.obj
 0001:000cdea1       ?Buffer@CMoPolygon@@QAEPAUIDispatch@@NABUtagVARIANT@@@Z 004ceea1 f   mopolygon.obj
 0001:000cdf00       ?GetType@CMoPrimeMeridian@@QAEJXZ 004cef00 f   moprimemeridian.obj
 0001:000cdf38       ?SetType@CMoPrimeMeridian@@QAEXJ@Z 004cef38 f   moprimemeridian.obj
 0001:000cdf6a       ?GetName@CMoPrimeMeridian@@QAE?AVCString@@XZ 004cef6a f   moprimemeridian.obj
 0001:000ce001       ?SetName@CMoPrimeMeridian@@QAEXPBD@Z 004cf001 f   moprimemeridian.obj
 0001:000ce033       ?GetLongitude@CMoPrimeMeridian@@QAENXZ 004cf033 f   moprimemeridian.obj
 0001:000ce072       ?SetLongitude@CMoPrimeMeridian@@QAEXN@Z 004cf072 f   moprimemeridian.obj
 0001:000ce0b0       ?GetType@CMoProjCoordSys@@QAEJXZ 004cf0b0 f   moprojcoordsys.obj
 0001:000ce0e8       ?SetType@CMoProjCoordSys@@QAEXJ@Z 004cf0e8 f   moprojcoordsys.obj
 0001:000ce11a       ?GetName@CMoProjCoordSys@@QAE?AVCString@@XZ 004cf11a f   moprojcoordsys.obj
 0001:000ce1b1       ?SetName@CMoProjCoordSys@@QAEXPBD@Z 004cf1b1 f   moprojcoordsys.obj
 0001:000ce1e3       ?GetGeoCoordSys@CMoProjCoordSys@@QAE?AVCMoGeoCoordSys@@XZ 004cf1e3 f   moprojcoordsys.obj
 0001:000ce240       ?SetGeoCoordSys@CMoProjCoordSys@@QAEXPAUIDispatch@@@Z 004cf240 f   moprojcoordsys.obj
 0001:000ce272       ?GetUnit@CMoProjCoordSys@@QAE?AVCMoUnit@@XZ 004cf272 f   moprojcoordsys.obj
 0001:000ce2cf       ?SetUnit@CMoProjCoordSys@@QAEXPAUIDispatch@@@Z 004cf2cf f   moprojcoordsys.obj
 0001:000ce301       ?GetProjection@CMoProjCoordSys@@QAE?AVCMoProjection@@XZ 004cf301 f   moprojcoordsys.obj
 0001:000ce35e       ?SetProjection@CMoProjCoordSys@@QAEXPAUIDispatch@@@Z 004cf35e f   moprojcoordsys.obj
 0001:000ce390       ?GetIsProjected@CMoProjCoordSys@@QAEHXZ 004cf390 f   moprojcoordsys.obj
 0001:000ce3c8       ?SetIsProjected@CMoProjCoordSys@@QAEXH@Z 004cf3c8 f   moprojcoordsys.obj
 0001:000ce3fa       ?SetParameter@CMoProjCoordSys@@QAEXJN@Z 004cf3fa f   moprojcoordsys.obj
 0001:000ce43d       ?GetParameter@CMoProjCoordSys@@QAENJ@Z 004cf43d f   moprojcoordsys.obj
 0001:000ce48d       ?Transform@CMoProjCoordSys@@QAEPAUIDispatch@@PAU2@0ABUtagVARIANT@@1@Z 004cf48d f   moprojcoordsys.obj
 0001:000ce4e2       ?Export@CMoProjCoordSys@@QAEXPBD@Z 004cf4e2 f   moprojcoordsys.obj
 0001:000ce51d       ?ReturnDescription@CMoProjCoordSys@@QAE?AVCString@@XZ 004cf51d f   moprojcoordsys.obj
 0001:000ce5c0       ??0CMoProjection@@QAE@PAUIDispatch@@@Z 004cf5c0 f i moprojcoordsys.obj
 0001:000ce5f0       ?GetType@CMoProjection@@QAEJXZ 004cf5f0 f   moprojection.obj
 0001:000ce628       ?SetType@CMoProjection@@QAEXJ@Z 004cf628 f   moprojection.obj
 0001:000ce65a       ?GetName@CMoProjection@@QAE?AVCString@@XZ 004cf65a f   moprojection.obj
 0001:000ce6f1       ?SetName@CMoProjection@@QAEXPBD@Z 004cf6f1 f   moprojection.obj
 0001:000ce723       ?GetCustom@CMoProjection@@QAEPAUIUnknown@@XZ 004cf723 f   moprojection.obj
 0001:000ce75b       ?SetCustom@CMoProjection@@QAEXPAUIUnknown@@@Z 004cf75b f   moprojection.obj
 0001:000ce78d       ?GetIsCustom@CMoProjection@@QAEHXZ 004cf78d f   moprojection.obj
 0001:000ce7c5       ?SetIsCustom@CMoProjection@@QAEXH@Z 004cf7c5 f   moprojection.obj
 0001:000ce800       ?GetFields@CMoRecordset@@QAE?AVCMoFields@@XZ 004cf800 f   morecordset.obj
 0001:000ce85d       ?SetFields@CMoRecordset@@QAEXPAUIDispatch@@@Z 004cf85d f   morecordset.obj
 0001:000ce88f       ?GetEof@CMoRecordset@@QAEHXZ 004cf88f f   morecordset.obj
 0001:000ce8c7       ?SetEof@CMoRecordset@@QAEXH@Z 004cf8c7 f   morecordset.obj
 0001:000ce8f9       ?GetCount@CMoRecordset@@QAEJXZ 004cf8f9 f   morecordset.obj
 0001:000ce931       ?SetCount@CMoRecordset@@QAEXJ@Z 004cf931 f   morecordset.obj
 0001:000ce963       ?GetEditMode@CMoRecordset@@QAEJXZ 004cf963 f   morecordset.obj
 0001:000ce99b       ?SetEditMode@CMoRecordset@@QAEXJ@Z 004cf99b f   morecordset.obj
 0001:000ce9cd       ?GetUpdatable@CMoRecordset@@QAEHXZ 004cf9cd f   morecordset.obj
 0001:000cea05       ?SetUpdatable@CMoRecordset@@QAEXH@Z 004cfa05 f   morecordset.obj
 0001:000cea37       ?GetTableDesc@CMoRecordset@@QAE?AVCMoTableDesc@@XZ 004cfa37 f   morecordset.obj
 0001:000cea94       ?SetTableDesc@CMoRecordset@@QAEXPAUIDispatch@@@Z 004cfa94 f   morecordset.obj
 0001:000ceac6       ?GetAutoFlush@CMoRecordset@@QAEHXZ 004cfac6 f   morecordset.obj
 0001:000ceafe       ?SetAutoFlush@CMoRecordset@@QAEXH@Z 004cfafe f   morecordset.obj
 0001:000ceb30       ?GetSupportsTransactions@CMoRecordset@@QAEHXZ 004cfb30 f   morecordset.obj
 0001:000ceb68       ?SetSupportsTransactions@CMoRecordset@@QAEXH@Z 004cfb68 f   morecordset.obj
 0001:000ceb9a       ?MoveFirst@CMoRecordset@@QAEXXZ 004cfb9a f   morecordset.obj
 0001:000cebcc       ?MoveNext@CMoRecordset@@QAEXXZ 004cfbcc f   morecordset.obj
 0001:000cebfe       ?MovePrevious@CMoRecordset@@QAEXXZ 004cfbfe f   morecordset.obj
 0001:000cec30       ?CalculateStatistics@CMoRecordset@@QAE?AVCMoStatistics@@PBD@Z 004cfc30 f   morecordset.obj
 0001:000cec9c       ?Delete@CMoRecordset@@QAEXXZ 004cfc9c f   morecordset.obj
 0001:000cecce       ?Edit@CMoRecordset@@QAEXXZ 004cfcce f   morecordset.obj
 0001:000ced00       ?AddNew@CMoRecordset@@QAEXXZ 004cfd00 f   morecordset.obj
 0001:000ced32       ?Update@CMoRecordset@@QAEXXZ 004cfd32 f   morecordset.obj
 0001:000ced64       ?CancelUpdate@CMoRecordset@@QAEXXZ 004cfd64 f   morecordset.obj
 0001:000ced96       ?StopEditing@CMoRecordset@@QAEXXZ 004cfd96 f   morecordset.obj
 0001:000cedc8       ?Export@CMoRecordset@@QAE?AVCMoGeoDataset@@PBDABUtagVARIANT@@@Z 004cfdc8 f   morecordset.obj
 0001:000cee38       ?StartTransaction@CMoRecordset@@QAEXXZ 004cfe38 f   morecordset.obj
 0001:000cee6a       ?RollbackTransaction@CMoRecordset@@QAEXXZ 004cfe6a f   morecordset.obj
 0001:000cee9c       ?CommitTransaction@CMoRecordset@@QAEXXZ 004cfe9c f   morecordset.obj
 0001:000ceed0       ??0CMoFields@@QAE@PAUIDispatch@@@Z 004cfed0 f i morecordset.obj
 0001:000cef00       ??0CMoTableDesc@@QAE@PAUIDispatch@@@Z 004cff00 f i morecordset.obj
 0001:000cef30       ??0CMoStatistics@@QAE@PAUIDispatch@@@Z 004cff30 f i morecordset.obj
 0001:000cef60       ?GetLeft@CMoRectangle@@QAENXZ 004cff60 f   morectangle.obj
 0001:000cef9f       ?SetLeft@CMoRectangle@@QAEXN@Z 004cff9f f   morectangle.obj
 0001:000cefd5       ?GetRight@CMoRectangle@@QAENXZ 004cffd5 f   morectangle.obj
 0001:000cf014       ?SetRight@CMoRectangle@@QAEXN@Z 004d0014 f   morectangle.obj
 0001:000cf04a       ?GetTop@CMoRectangle@@QAENXZ 004d004a f   morectangle.obj
 0001:000cf089       ?SetTop@CMoRectangle@@QAEXN@Z 004d0089 f   morectangle.obj
 0001:000cf0bf       ?GetBottom@CMoRectangle@@QAENXZ 004d00bf f   morectangle.obj
 0001:000cf0fe       ?SetBottom@CMoRectangle@@QAEXN@Z 004d00fe f   morectangle.obj
 0001:000cf134       ?GetWidth@CMoRectangle@@QAENXZ 004d0134 f   morectangle.obj
 0001:000cf173       ?SetWidth@CMoRectangle@@QAEXN@Z 004d0173 f   morectangle.obj
 0001:000cf1a9       ?GetHeight@CMoRectangle@@QAENXZ 004d01a9 f   morectangle.obj
 0001:000cf1e8       ?SetHeight@CMoRectangle@@QAEXN@Z 004d01e8 f   morectangle.obj
 0001:000cf21e       ?GetCenter@CMoRectangle@@QAE?AVCMoPoint@@XZ 004d021e f   morectangle.obj
 0001:000cf27b       ?SetCenter@CMoRectangle@@QAEXPAUIDispatch@@@Z 004d027b f   morectangle.obj
 0001:000cf2ad       ?GetFloor@CMoRectangle@@QAENXZ 004d02ad f   morectangle.obj
 0001:000cf2ec       ?SetFloor@CMoRectangle@@QAEXN@Z 004d02ec f   morectangle.obj
 0001:000cf322       ?GetCeiling@CMoRectangle@@QAENXZ 004d0322 f   morectangle.obj
 0001:000cf361       ?SetCeiling@CMoRectangle@@QAEXN@Z 004d0361 f   morectangle.obj
 0001:000cf397       ?GetDepth@CMoRectangle@@QAENXZ 004d0397 f   morectangle.obj
 0001:000cf3d6       ?SetDepth@CMoRectangle@@QAEXN@Z 004d03d6 f   morectangle.obj
 0001:000cf40c       ?GetShapeType@CMoRectangle@@QAEJXZ 004d040c f   morectangle.obj
 0001:000cf444       ?SetShapeType@CMoRectangle@@QAEXJ@Z 004d0444 f   morectangle.obj
 0001:000cf476       ?ScaleRectangle@CMoRectangle@@QAEXN@Z 004d0476 f   morectangle.obj
 0001:000cf4b5       ?Offset@CMoRectangle@@QAEXNN@Z 004d04b5 f   morectangle.obj
 0001:000cf4fc       ?Inset@CMoRectangle@@QAEXNN@Z 004d04fc f   morectangle.obj
 0001:000cf543       ?IsPointIn@CMoRectangle@@QAEHPAUIDispatch@@@Z 004d0543 f   morectangle.obj
 0001:000cf58c       ?Intersects@CMoRectangle@@QAEHPAUIDispatch@@@Z 004d058c f   morectangle.obj
 0001:000cf5d5       ?DistanceTo@CMoRectangle@@QAENPAUIDispatch@@@Z 004d05d5 f   morectangle.obj
 0001:000cf625       ?GetCrossings@CMoRectangle@@QAE?AVCMoPoints@@PAUIDispatch@@@Z 004d0625 f   morectangle.obj
 0001:000cf691       ?Difference@CMoRectangle@@QAEPAUIDispatch@@PAU2@ABUtagVARIANT@@@Z 004d0691 f   morectangle.obj
 0001:000cf6de       ?Intersect@CMoRectangle@@QAEPAUIDispatch@@PAU2@ABUtagVARIANT@@@Z 004d06de f   morectangle.obj
 0001:000cf72b       ?Xor@CMoRectangle@@QAEPAUIDispatch@@PAU2@ABUtagVARIANT@@@Z 004d072b f   morectangle.obj
 0001:000cf778       ?Union@CMoRectangle@@QAEPAUIDispatch@@PAU2@ABUtagVARIANT@@@Z 004d0778 f   morectangle.obj
 0001:000cf7c5       ?Buffer@CMoRectangle@@QAEPAUIDispatch@@NABUtagVARIANT@@@Z 004d07c5 f   morectangle.obj
 0001:000cf816       ?GetExtent@CMoRectangle@@QAE?AV1@XZ 004d0816 f   morectangle.obj
 0001:000cf880       ?GetType@CMoSpheroid@@QAEJXZ 004d0880 f   mospheroid.obj
 0001:000cf8b8       ?SetType@CMoSpheroid@@QAEXJ@Z 004d08b8 f   mospheroid.obj
 0001:000cf8ea       ?GetAxis@CMoSpheroid@@QAENXZ 004d08ea f   mospheroid.obj
 0001:000cf929       ?SetAxis@CMoSpheroid@@QAEXN@Z 004d0929 f   mospheroid.obj
 0001:000cf95f       ?GetFlattening@CMoSpheroid@@QAENXZ 004d095f f   mospheroid.obj
 0001:000cf99e       ?SetFlattening@CMoSpheroid@@QAEXN@Z 004d099e f   mospheroid.obj
 0001:000cf9d4       ?GetName@CMoSpheroid@@QAE?AVCString@@XZ 004d09d4 f   mospheroid.obj
 0001:000cfa6b       ?SetName@CMoSpheroid@@QAEXPBD@Z 004d0a6b f   mospheroid.obj
 0001:000cfaa0       ?GetValid@CMoStandardizer@@QAEHXZ 004d0aa0 f   mostandardizer.obj
 0001:000cfad8       ?SetValid@CMoStandardizer@@QAEXH@Z 004d0ad8 f   mostandardizer.obj
 0001:000cfb0a       ?GetFieldCount@CMoStandardizer@@QAEFXZ 004d0b0a f   mostandardizer.obj
 0001:000cfb43       ?SetFieldCount@CMoStandardizer@@QAEXF@Z 004d0b43 f   mostandardizer.obj
 0001:000cfb76       ?GetStandardizingRules@CMoStandardizer@@QAE?AVCString@@XZ 004d0b76 f   mostandardizer.obj
 0001:000cfc0d       ?SetStandardizingRules@CMoStandardizer@@QAEXPBD@Z 004d0c0d f   mostandardizer.obj
 0001:000cfc3f       ?GetLastError@CMoStandardizer@@QAEJXZ 004d0c3f f   mostandardizer.obj
 0001:000cfc77       ?SetLastError@CMoStandardizer@@QAEXJ@Z 004d0c77 f   mostandardizer.obj
 0001:000cfca9       ?GetIntersectionStandardizingRules@CMoStandardizer@@QAE?AVCString@@XZ 004d0ca9 f   mostandardizer.obj
 0001:000cfd40       ?SetIntersectionStandardizingRules@CMoStandardizer@@QAEXPBD@Z 004d0d40 f   mostandardizer.obj
 0001:000cfd72       ?StandardizeAddress@CMoStandardizer@@QAEHPBD@Z 004d0d72 f   mostandardizer.obj
 0001:000cfdbb       ?GetFieldName@CMoStandardizer@@QAE?AVCString@@F@Z 004d0dbb f   mostandardizer.obj
 0001:000cfe62       ?GetFieldValue@CMoStandardizer@@QAE?AVCString@@PBD@Z 004d0e62 f   mostandardizer.obj
 0001:000cff08       ?SetFieldValue@CMoStandardizer@@QAEXPBD0@Z 004d0f08 f   mostandardizer.obj
 0001:000cff50       ?GetMax@CMoStatistics@@QAENXZ 004d0f50 f   mostatistics.obj
 0001:000cff8f       ?SetMax@CMoStatistics@@QAEXN@Z 004d0f8f f   mostatistics.obj
 0001:000cffc5       ?GetMin@CMoStatistics@@QAENXZ 004d0fc5 f   mostatistics.obj
 0001:000d0004       ?SetMin@CMoStatistics@@QAEXN@Z 004d1004 f   mostatistics.obj
 0001:000d003a       ?GetMean@CMoStatistics@@QAENXZ 004d103a f   mostatistics.obj
 0001:000d0079       ?SetMean@CMoStatistics@@QAEXN@Z 004d1079 f   mostatistics.obj
 0001:000d00af       ?GetStdDev@CMoStatistics@@QAENXZ 004d10af f   mostatistics.obj
 0001:000d00ee       ?SetStdDev@CMoStatistics@@QAEXN@Z 004d10ee f   mostatistics.obj
 0001:000d0124       ?GetSum@CMoStatistics@@QAENXZ 004d1124 f   mostatistics.obj
 0001:000d0163       ?SetSum@CMoStatistics@@QAEXN@Z 004d1163 f   mostatistics.obj
 0001:000d0199       ?GetCount@CMoStatistics@@QAEJXZ 004d1199 f   mostatistics.obj
 0001:000d01d1       ?SetCount@CMoStatistics@@QAEXJ@Z 004d11d1 f   mostatistics.obj
 0001:000d0210       ?GetCount@CMoStrings@@QAEFXZ 004d1210 f   mostrings.obj
 0001:000d0249       ?SetCount@CMoStrings@@QAEXF@Z 004d1249 f   mostrings.obj
 0001:000d027c       ?GetUnique@CMoStrings@@QAEHXZ 004d127c f   mostrings.obj
 0001:000d02b4       ?SetUnique@CMoStrings@@QAEXH@Z 004d12b4 f   mostrings.obj
 0001:000d02e6       ?GetCount2@CMoStrings@@QAEJXZ 004d12e6 f   mostrings.obj
 0001:000d031e       ?SetCount2@CMoStrings@@QAEXJ@Z 004d131e f   mostrings.obj
 0001:000d0350       ?GetPopulateUsingNewConstants@CMoStrings@@QAEHXZ 004d1350 f   mostrings.obj
 0001:000d0388       ?SetPopulateUsingNewConstants@CMoStrings@@QAEXH@Z 004d1388 f   mostrings.obj
 0001:000d03ba       ?Item@CMoStrings@@QAE?AVCString@@ABUtagVARIANT@@@Z 004d13ba f   mostrings.obj
 0001:000d0460       ?Add@CMoStrings@@QAEHPBD@Z 004d1460 f   mostrings.obj
 0001:000d04a9       ?Clear@CMoStrings@@QAEXXZ  004d14a9 f   mostrings.obj
 0001:000d04db       ?Find@CMoStrings@@QAEJPBDABUtagVARIANT@@@Z 004d14db f   mostrings.obj
 0001:000d0528       ?PopulateWithUnits@CMoStrings@@QAEXXZ 004d1528 f   mostrings.obj
 0001:000d055a       ?PopulateWithSpheroids@CMoStrings@@QAEXXZ 004d155a f   mostrings.obj
 0001:000d058c       ?PopulateWithDatums@CMoStrings@@QAEXXZ 004d158c f   mostrings.obj
 0001:000d05be       ?PopulateWithMeridians@CMoStrings@@QAEXXZ 004d15be f   mostrings.obj
 0001:000d05f0       ?PopulateWithProjections@CMoStrings@@QAEXXZ 004d15f0 f   mostrings.obj
 0001:000d0622       ?PopulateWithProjectedCoordSys@CMoStrings@@QAEXXZ 004d1622 f   mostrings.obj
 0001:000d0654       ?PopulateWithGeographicCoordSys@CMoStrings@@QAEXXZ 004d1654 f   mostrings.obj
 0001:000d0686       ?PopulateWithGeoTransformations@CMoStrings@@QAEXXZ 004d1686 f   mostrings.obj
 0001:000d06b8       ?PopulateWithParameters@CMoStrings@@QAEXJ@Z 004d16b8 f   mostrings.obj
 0001:000d06f3       ?PopulateWithMethods@CMoStrings@@QAEXXZ 004d16f3 f   mostrings.obj
 0001:000d0725       ?Sort@CMoStrings@@QAEXJ@Z  004d1725 f   mostrings.obj
 0001:000d0760       ?GetSize@CMoSymbol@@QAEFXZ 004d1760 f   mosymbol.obj
 0001:000d0799       ?SetSize@CMoSymbol@@QAEXF@Z 004d1799 f   mosymbol.obj
 0001:000d07cc       ?GetStyle@CMoSymbol@@QAEFXZ 004d17cc f   mosymbol.obj
 0001:000d0805       ?SetStyle@CMoSymbol@@QAEXF@Z 004d1805 f   mosymbol.obj
 0001:000d0838       ?GetColor@CMoSymbol@@QAEKXZ 004d1838 f   mosymbol.obj
 0001:000d0870       ?SetColor@CMoSymbol@@QAEXK@Z 004d1870 f   mosymbol.obj
 0001:000d08a2       ?GetCharacterIndex@CMoSymbol@@QAEFXZ 004d18a2 f   mosymbol.obj
 0001:000d08db       ?SetCharacterIndex@CMoSymbol@@QAEXF@Z 004d18db f   mosymbol.obj
 0001:000d090e       ?GetFont@CMoSymbol@@QAE?AVCOleFont@@XZ 004d190e f   mosymbol.obj
 0001:000d096b       ?SetFont@CMoSymbol@@QAEXPAUIDispatch@@@Z 004d196b f   mosymbol.obj
 0001:000d099d       ?GetOutlineColor@CMoSymbol@@QAEKXZ 004d199d f   mosymbol.obj
 0001:000d09d5       ?SetOutlineColor@CMoSymbol@@QAEXK@Z 004d19d5 f   mosymbol.obj
 0001:000d0a07       ?GetSymbolType@CMoSymbol@@QAEJXZ 004d1a07 f   mosymbol.obj
 0001:000d0a3f       ?SetSymbolType@CMoSymbol@@QAEXJ@Z 004d1a3f f   mosymbol.obj
 0001:000d0a71       ?GetOutline@CMoSymbol@@QAEHXZ 004d1a71 f   mosymbol.obj
 0001:000d0aa9       ?SetOutline@CMoSymbol@@QAEXH@Z 004d1aa9 f   mosymbol.obj
 0001:000d0adb       ?GetCenterOnAscent@CMoSymbol@@QAEHXZ 004d1adb f   mosymbol.obj
 0001:000d0b13       ?SetCenterOnAscent@CMoSymbol@@QAEXH@Z 004d1b13 f   mosymbol.obj
 0001:000d0b45       ?GetCustom@CMoSymbol@@QAEPAUIUnknown@@XZ 004d1b45 f   mosymbol.obj
 0001:000d0b7d       ?SetCustom@CMoSymbol@@QAEXPAUIUnknown@@@Z 004d1b7d f   mosymbol.obj
 0001:000d0baf       ?GetRotation@CMoSymbol@@QAENXZ 004d1baf f   mosymbol.obj
 0001:000d0bee       ?SetRotation@CMoSymbol@@QAEXN@Z 004d1bee f   mosymbol.obj
 0001:000d0c30       ??0COleFont@@QAE@PAUIDispatch@@@Z 004d1c30 f i mosymbol.obj
 0001:000d0c60       ?GetUser@CMoTable@@QAE?AVCString@@XZ 004d1c60 f   motable.obj
 0001:000d0cf7       ?SetUser@CMoTable@@QAEXPBD@Z 004d1cf7 f   motable.obj
 0001:000d0d29       ?GetPassword@CMoTable@@QAE?AVCString@@XZ 004d1d29 f   motable.obj
 0001:000d0dc0       ?SetPassword@CMoTable@@QAEXPBD@Z 004d1dc0 f   motable.obj
 0001:000d0df2       ?GetDatabase@CMoTable@@QAE?AVCString@@XZ 004d1df2 f   motable.obj
 0001:000d0e89       ?SetDatabase@CMoTable@@QAEXPBD@Z 004d1e89 f   motable.obj
 0001:000d0ebb       ?GetName@CMoTable@@QAE?AVCString@@XZ 004d1ebb f   motable.obj
 0001:000d0f52       ?SetName@CMoTable@@QAEXPBD@Z 004d1f52 f   motable.obj
 0001:000d0f84       ?GetRecords@CMoTable@@QAE?AVCMoRecordset@@XZ 004d1f84 f   motable.obj
 0001:000d0fe1       ?SetRecords@CMoTable@@QAEXPAUIDispatch@@@Z 004d1fe1 f   motable.obj
 0001:000d1013       ?GetServer@CMoTable@@QAE?AVCString@@XZ 004d2013 f   motable.obj
 0001:000d10aa       ?SetServer@CMoTable@@QAEXPBD@Z 004d20aa f   motable.obj
 0001:000d10dc       ?SearchExpression@CMoTable@@QAE?AVCMoRecordset@@PBD@Z 004d20dc f   motable.obj
 0001:000d1148       ?GetVersion@CMoTable@@QAE?AVCString@@XZ 004d2148 f   motable.obj
 0001:000d11e6       ?SetVersion@CMoTable@@QAEXPBD@Z 004d21e6 f   motable.obj
 0001:000d1221       ?GetCommand@CMoTable@@QAEPAUIDispatch@@XZ 004d2221 f   motable.obj
 0001:000d1261       ?SetRefCommand@CMoTable@@QAEXPAUIDispatch@@@Z 004d2261 f   motable.obj
 0001:000d129c       ?GetMaxCachedRelateRecords@CMoTable@@QAEJXZ 004d229c f   motable.obj
 0001:000d12dc       ?SetMaxCachedRelateRecords@CMoTable@@QAEXJ@Z 004d22dc f   motable.obj
 0001:000d1320       ?GetFieldCount@CMoTableDesc@@QAEFXZ 004d2320 f   motabledesc.obj
 0001:000d1359       ?SetFieldCount@CMoTableDesc@@QAEXF@Z 004d2359 f   motabledesc.obj
 0001:000d138c       ?GetCodePage@CMoTableDesc@@QAEJXZ 004d238c f   motabledesc.obj
 0001:000d13c4       ?SetCodePage@CMoTableDesc@@QAEXJ@Z 004d23c4 f   motabledesc.obj
 0001:000d13f6       ?GetFieldName@CMoTableDesc@@QAE?AVCString@@F@Z 004d23f6 f   motabledesc.obj
 0001:000d149d       ?SetFieldName@CMoTableDesc@@QAEXFPBD@Z 004d249d f   motabledesc.obj
 0001:000d14dd       ?GetFieldType@CMoTableDesc@@QAEJF@Z 004d24dd f   motabledesc.obj
 0001:000d1527       ?SetFieldType@CMoTableDesc@@QAEXFJ@Z 004d2527 f   motabledesc.obj
 0001:000d1567       ?GetFieldPrecision@CMoTableDesc@@QAEFF@Z 004d2567 f   motabledesc.obj
 0001:000d15b2       ?SetFieldPrecision@CMoTableDesc@@QAEXFF@Z 004d25b2 f   motabledesc.obj
 0001:000d15f3       ?GetFieldLength@CMoTableDesc@@QAEFF@Z 004d25f3 f   motabledesc.obj
 0001:000d163e       ?SetFieldLength@CMoTableDesc@@QAEXFF@Z 004d263e f   motabledesc.obj
 0001:000d167f       ?GetFieldScale@CMoTableDesc@@QAEFF@Z 004d267f f   motabledesc.obj
 0001:000d16ca       ?SetFieldScale@CMoTableDesc@@QAEXFF@Z 004d26ca f   motabledesc.obj
 0001:000d1710       ?GetHorizontalAlignment@CMoTextSymbol@@QAEJXZ 004d2710 f   motextsymbol.obj
 0001:000d1748       ?SetHorizontalAlignment@CMoTextSymbol@@QAEXJ@Z 004d2748 f   motextsymbol.obj
 0001:000d177a       ?GetVerticalAlignment@CMoTextSymbol@@QAEJXZ 004d277a f   motextsymbol.obj
 0001:000d17b2       ?SetVerticalAlignment@CMoTextSymbol@@QAEXJ@Z 004d27b2 f   motextsymbol.obj
 0001:000d17e4       ?GetColor@CMoTextSymbol@@QAEKXZ 004d27e4 f   motextsymbol.obj
 0001:000d181c       ?SetColor@CMoTextSymbol@@QAEXK@Z 004d281c f   motextsymbol.obj
 0001:000d184e       ?GetFont@CMoTextSymbol@@QAE?AVCOleFont@@XZ 004d284e f   motextsymbol.obj
 0001:000d18ab       ?SetFont@CMoTextSymbol@@QAEXPAUIDispatch@@@Z 004d28ab f   motextsymbol.obj
 0001:000d18dd       ?GetRotation@CMoTextSymbol@@QAENXZ 004d28dd f   motextsymbol.obj
 0001:000d191c       ?SetRotation@CMoTextSymbol@@QAEXN@Z 004d291c f   motextsymbol.obj
 0001:000d1952       ?GetHeight@CMoTextSymbol@@QAENXZ 004d2952 f   motextsymbol.obj
 0001:000d1991       ?SetHeight@CMoTextSymbol@@QAEXN@Z 004d2991 f   motextsymbol.obj
 0001:000d19c7       ?GetFitted@CMoTextSymbol@@QAEHXZ 004d29c7 f   motextsymbol.obj
 0001:000d19ff       ?SetFitted@CMoTextSymbol@@QAEXH@Z 004d29ff f   motextsymbol.obj
 0001:000d1a40       ?GetEventCount@CMoTrackingLayer@@QAEJXZ 004d2a40 f   motrackinglayer.obj
 0001:000d1a78       ?SetEventCount@CMoTrackingLayer@@QAEXJ@Z 004d2a78 f   motrackinglayer.obj
 0001:000d1aaa       ?GetSymbolCount@CMoTrackingLayer@@QAEJXZ 004d2aaa f   motrackinglayer.obj
 0001:000d1ae2       ?SetSymbolCount@CMoTrackingLayer@@QAEXJ@Z 004d2ae2 f   motrackinglayer.obj
 0001:000d1b14       ?GetVisible@CMoTrackingLayer@@QAEHXZ 004d2b14 f   motrackinglayer.obj
 0001:000d1b4c       ?SetVisible@CMoTrackingLayer@@QAEXH@Z 004d2b4c f   motrackinglayer.obj
 0001:000d1b7e       ?GetSymbol@CMoTrackingLayer@@QAE?AVCMoSymbol@@J@Z 004d2b7e f   motrackinglayer.obj
 0001:000d1bea       ?GetEvent@CMoTrackingLayer@@QAE?AVCMoGeoEvent@@J@Z 004d2bea f   motrackinglayer.obj
 0001:000d1c56       ?RemoveEvent@CMoTrackingLayer@@QAEXJ@Z 004d2c56 f   motrackinglayer.obj
 0001:000d1c91       ?AddEvent@CMoTrackingLayer@@QAE?AVCMoGeoEvent@@PAUIDispatch@@J@Z 004d2c91 f   motrackinglayer.obj
 0001:000d1d01       ?ClearEvents@CMoTrackingLayer@@QAEXXZ 004d2d01 f   motrackinglayer.obj
 0001:000d1d33       ?Refresh@CMoTrackingLayer@@QAEXHABUtagVARIANT@@@Z 004d2d33 f   motrackinglayer.obj
 0001:000d1d72       ?FindEvent@CMoTrackingLayer@@QAE?AVCMoGeoEvent@@PBD@Z 004d2d72 f   motrackinglayer.obj
 0001:000d1de0       ??0CMoGeoEvent@@QAE@PAUIDispatch@@@Z 004d2de0 f i motrackinglayer.obj
 0001:000d1e10       ?GetType@CMoUnit@@QAEJXZ   004d2e10 f   mounit.obj
 0001:000d1e48       ?SetType@CMoUnit@@QAEXJ@Z  004d2e48 f   mounit.obj
 0001:000d1e7a       ?GetName@CMoUnit@@QAE?AVCString@@XZ 004d2e7a f   mounit.obj
 0001:000d1f11       ?SetName@CMoUnit@@QAEXPBD@Z 004d2f11 f   mounit.obj
 0001:000d1f43       ?GetFactor@CMoUnit@@QAENXZ 004d2f43 f   mounit.obj
 0001:000d1f82       ?SetFactor@CMoUnit@@QAEXN@Z 004d2f82 f   mounit.obj
 0001:000d1fc0       ?GetField@CMoValueMapRenderer@@QAE?AVCString@@XZ 004d2fc0 f   movaluemaprenderer.obj
 0001:000d2057       ?SetField@CMoValueMapRenderer@@QAEXPBD@Z 004d3057 f   movaluemaprenderer.obj
 0001:000d2089       ?GetDefaultSymbol@CMoValueMapRenderer@@QAE?AVCMoSymbol@@XZ 004d3089 f   movaluemaprenderer.obj
 0001:000d20e6       ?SetDefaultSymbol@CMoValueMapRenderer@@QAEXPAUIDispatch@@@Z 004d30e6 f   movaluemaprenderer.obj
 0001:000d2118       ?GetUseDefault@CMoValueMapRenderer@@QAEHXZ 004d3118 f   movaluemaprenderer.obj
 0001:000d2150       ?SetUseDefault@CMoValueMapRenderer@@QAEXH@Z 004d3150 f   movaluemaprenderer.obj
 0001:000d2182       ?GetValueCount@CMoValueMapRenderer@@QAEFXZ 004d3182 f   movaluemaprenderer.obj
 0001:000d21bb       ?SetValueCount@CMoValueMapRenderer@@QAEXF@Z 004d31bb f   movaluemaprenderer.obj
 0001:000d21ee       ?GetTag@CMoValueMapRenderer@@QAE?AVCString@@XZ 004d31ee f   movaluemaprenderer.obj
 0001:000d2285       ?SetTag@CMoValueMapRenderer@@QAEXPBD@Z 004d3285 f   movaluemaprenderer.obj
 0001:000d22b7       ?GetSymbolType@CMoValueMapRenderer@@QAEJXZ 004d32b7 f   movaluemaprenderer.obj
 0001:000d22ef       ?SetSymbolType@CMoValueMapRenderer@@QAEXJ@Z 004d32ef f   movaluemaprenderer.obj
 0001:000d2321       ?GetRotationField@CMoValueMapRenderer@@QAE?AVCString@@XZ 004d3321 f   movaluemaprenderer.obj
 0001:000d23b8       ?SetRotationField@CMoValueMapRenderer@@QAEXPBD@Z 004d33b8 f   movaluemaprenderer.obj
 0001:000d23ea       ?GetScalingField@CMoValueMapRenderer@@QAE?AVCString@@XZ 004d33ea f   movaluemaprenderer.obj
 0001:000d2481       ?SetScalingField@CMoValueMapRenderer@@QAEXPBD@Z 004d3481 f   movaluemaprenderer.obj
 0001:000d24b3       ?GetValue@CMoValueMapRenderer@@QAE?AVCString@@F@Z 004d34b3 f   movaluemaprenderer.obj
 0001:000d255a       ?SetValue@CMoValueMapRenderer@@QAEXFPBD@Z 004d355a f   movaluemaprenderer.obj
 0001:000d259a       ?GetSymbol@CMoValueMapRenderer@@QAE?AVCMoSymbol@@F@Z 004d359a f   movaluemaprenderer.obj
 0001:000d2610       ?GetTag@CMoZRenderer@@QAE?AVCString@@XZ 004d3610 f   mozrenderer.obj
 0001:000d26a7       ?SetTag@CMoZRenderer@@QAEXPBD@Z 004d36a7 f   mozrenderer.obj
 0001:000d26d9       ?GetSymbolType@CMoZRenderer@@QAEJXZ 004d36d9 f   mozrenderer.obj
 0001:000d2711       ?SetSymbolType@CMoZRenderer@@QAEXJ@Z 004d3711 f   mozrenderer.obj
 0001:000d2743       ?GetBreakCount@CMoZRenderer@@QAEFXZ 004d3743 f   mozrenderer.obj
 0001:000d277c       ?SetBreakCount@CMoZRenderer@@QAEXF@Z 004d377c f   mozrenderer.obj
 0001:000d27af       ?GetValueCalculation@CMoZRenderer@@QAEJXZ 004d37af f   mozrenderer.obj
 0001:000d27e7       ?SetValueCalculation@CMoZRenderer@@QAEXJ@Z 004d37e7 f   mozrenderer.obj
 0001:000d2819       ?GetDrawBackground@CMoZRenderer@@QAEHXZ 004d3819 f   mozrenderer.obj
 0001:000d2851       ?SetDrawBackground@CMoZRenderer@@QAEXH@Z 004d3851 f   mozrenderer.obj
 0001:000d2883       ?GetBreak@CMoZRenderer@@QAENF@Z 004d3883 f   mozrenderer.obj
 0001:000d28d4       ?SetBreak@CMoZRenderer@@QAEXFN@Z 004d38d4 f   mozrenderer.obj
 0001:000d2918       ?GetSymbol@CMoZRenderer@@QAEPAUIDispatch@@F@Z 004d3918 f   mozrenderer.obj
 0001:000d2962       ?RampColors@CMoZRenderer@@QAEXKK@Z 004d3962 f   mozrenderer.obj
 0001:000d29a2       _Model_link@124            004d39a2 f   DNDCgo:DNDCgo.dll
 0001:000d29a8       _Cell_end@36               004d39a8 f   DNDCgo:DNDCgo.dll
 0001:000d29b0       ?UnlockResource@@YGHPAX@Z  004d39b0 f i nafxcwd:dlgcore.obj
 0001:000d29c0       ??_9@$BMM@AE               004d39c0 f i nafxcwd:dlgcore.obj
 0001:000d29d0       _InitMultipleMonitorStubs  004d39d0 f   nafxcwd:wincore.obj
 0001:000d2b19       _xGetSystemMetrics@4       004d3b19 f   nafxcwd:wincore.obj
 0001:000d2b94       _xMonitorFromPoint@12      004d3b94 f   nafxcwd:wincore.obj
 0001:000d2bf1       _xMonitorFromRect@8        004d3bf1 f   nafxcwd:wincore.obj
 0001:000d2c55       _xMonitorFromWindow@8      004d3c55 f   nafxcwd:wincore.obj
 0001:000d2cd4       _xGetMonitorInfo@8         004d3cd4 f   nafxcwd:wincore.obj
 0001:000d2dad       _xEnumDisplayMonitors@16   004d3dad f   nafxcwd:wincore.obj
 0001:000d2ee0       ?LookupPermanent@CHandleMap@@QAEPAVCObject@@PAX@Z 004d3ee0 f i nafxcwd:wincore.obj
 0001:000d2f00       ?LookupTemporary@CHandleMap@@QAEPAVCObject@@PAX@Z 004d3f00 f i nafxcwd:wincore.obj
 0001:000d2f20       ?GetNextWindow@@YAPAUHWND__@@PAU1@I@Z 004d3f20 f i nafxcwd:wincore.obj
 0001:000d2f40       ?A2T@@YAPADPAD@Z           004d3f40 f i nafxcwd:wincore.obj
 0001:000d2f50       ??_GCNoTrackObject@@UAEPAXI@Z 004d3f50 f i nafxcwd:wincore.obj
 0001:000d2f50       ??_ECNoTrackObject@@UAEPAXI@Z 004d3f50 f i nafxcwd:wincore.obj
 0001:000d2f80       ??1CNoTrackObject@@UAE@XZ  004d3f80 f i nafxcwd:wincore.obj
 0001:000d2fa0       ?IsEqualGUID@@YAHABU_GUID@@0@Z 004d3fa0 f i nafxcwd:cmdtarg.obj
 0001:000d2fc0       __tcscmp                   004d3fc0 f i nafxcwd:afxinl1.obj
 0001:000d2fe0       __tcsicmp                  004d3fe0 f i nafxcwd:afxinl1.obj
 0001:000d3000       __tcscoll                  004d4000 f i nafxcwd:afxinl1.obj
 0001:000d3020       __tcsicoll                 004d4020 f i nafxcwd:afxinl1.obj
 0001:000d3040       ?data@CStringData@@QAEPADXZ 004d4040 f i nafxcwd:strcore.obj
 0001:000d3060       __tcschr                   004d4060 f i nafxcwd:strcore.obj
 0001:000d3080       __tcspbrk                  004d4080 f i nafxcwd:strcore.obj
 0001:000d30a0       __tcsupr                   004d40a0 f i nafxcwd:strcore.obj
 0001:000d30c0       __tcslwr                   004d40c0 f i nafxcwd:strcore.obj
 0001:000d30e0       __tcsrev                   004d40e0 f i nafxcwd:strcore.obj
 0001:000d3100       __tcsrchr                  004d4100 f i nafxcwd:dlgfile.obj
 0001:000d3120       __tcsinc                   004d4120 f i nafxcwd:dlgfile.obj
 0001:000d3140       __tcsstr                   004d4140 f i nafxcwd:strex.obj
 0001:000d3160       __tcsspn                   004d4160 f i nafxcwd:strex.obj
 0001:000d3180       __tcscspn                  004d4180 f i nafxcwd:strex.obj
 0001:000d31a0       __tcsncmp                  004d41a0 f i nafxcwd:strex.obj
 0001:000d31c0       __tclen                    004d41c0 f i nafxcwd:strex.obj
 0001:000d31e0       ?T2CA@@YAPBDPBD@Z          004d41e0 f i nafxcwd:appcore.obj
 0001:000d31f0       ?GetSize@CRecentFileList@@QBEHXZ 004d41f0 f i nafxcwd:appcore.obj
 0001:000d3210       ??ACRecentFileList@@QAEAAVCString@@H@Z 004d4210 f i nafxcwd:appcore.obj
 0001:000d3260       ?GetHead@CSimpleList@@QBEPAXXZ 004d4260 f i nafxcwd:thrdcore.obj
 0001:000d32a5       ?AfxEnableControlContainer@@YAXPAVCOccManager@@@Z 004d42a5 f   nafxcwd:occmgr.obj
 0001:000d32d9       ?_AfxFindFirstDlgItem@@YGPAUDLGITEMTEMPLATE@@PBUDLGTEMPLATE@@@Z 004d42d9 f   nafxcwd:occmgr.obj
 0001:000d33f2       ?_AfxFindNextDlgItem@@YGPAUDLGITEMTEMPLATE@@PAU1@H@Z 004d43f2 f   nafxcwd:occmgr.obj
 0001:000d349f       ?OnEvent@COccManager@@UAEHPAVCCmdTarget@@IPAUAFX_EVENT@@PAUAFX_CMDHANDLERINFO@@@Z 004d449f f   nafxcwd:occmgr.obj
 0001:000d34c0       ?CreateContainer@COccManager@@UAEPAVCOleControlContainer@@PAVCWnd@@@Z 004d44c0 f   nafxcwd:occmgr.obj
 0001:000d3537       ?CreateSite@COccManager@@UAEPAVCOleControlSite@@PAVCOleControlContainer@@@Z 004d4537 f   nafxcwd:occmgr.obj
 0001:000d35b1       ?PreCreateDialog@COccManager@@UAEPBUDLGTEMPLATE@@PAU_AFX_OCC_DIALOG_INFO@@PBU2@@Z 004d45b1 f   nafxcwd:occmgr.obj
 0001:000d3675       ?PostCreateDialog@COccManager@@UAEXPAU_AFX_OCC_DIALOG_INFO@@@Z 004d4675 f   nafxcwd:occmgr.obj
 0001:000d36ae       ?SplitDialogTemplate@COccManager@@UAEPAUDLGTEMPLATE@@PBU2@PAPAUDLGITEMTEMPLATE@@@Z 004d46ae f   nafxcwd:occmgr.obj
 0001:000d3914       ?CreateDlgControls@COccManager@@UAEHPAVCWnd@@PBDPAU_AFX_OCC_DIALOG_INFO@@@Z 004d4914 f   nafxcwd:occmgr.obj
 0001:000d3a65       ?CreateDlgControls@COccManager@@UAEHPAVCWnd@@PAXPAU_AFX_OCC_DIALOG_INFO@@@Z 004d4a65 f   nafxcwd:occmgr.obj
 0001:000d3e21       ?BindControls@COccManager@@IAEXPAVCWnd@@@Z 004d4e21 f   nafxcwd:occmgr.obj
 0001:000d4067       ?CreateDlgControl@COccManager@@IAEPAUHWND__@@PAVCWnd@@PAU2@HPAUDLGITEMTEMPLATE@@GPAEK@Z 004d5067 f   nafxcwd:occmgr.obj
 0001:000d46e1       ?PrepareOleCtrl@CDataExchange@@QAEPAVCWnd@@H@Z 004d56e1 f   nafxcwd:occmgr.obj
 0001:000d47b0       ??1?$CProcessLocal@VCOccManager@@@@QAE@XZ 004d57b0 f i nafxcwd:occmgr.obj
 0001:000d47d0       ?GetData@?$CProcessLocal@VCOccManager@@@@QAEPAVCOccManager@@XZ 004d57d0 f i nafxcwd:occmgr.obj
 0001:000d4820       ?CreateObject@?$CProcessLocal@VCOccManager@@@@SGPAVCNoTrackObject@@XZ 004d5820 f i nafxcwd:occmgr.obj
 0001:000d4890       ??0COccManager@@QAE@XZ     004d5890 f i nafxcwd:occmgr.obj
 0001:000d48b0       ??_ECOccManager@@UAEPAXI@Z 004d58b0 f i nafxcwd:occmgr.obj
 0001:000d48b0       ??_GCOccManager@@UAEPAXI@Z 004d58b0 f i nafxcwd:occmgr.obj
 0001:000d48e0       ??1COccManager@@UAE@XZ     004d58e0 f i nafxcwd:occmgr.obj
 0001:000d4900       ?DrawState@@YGHPAUHDC__@@PAUHBRUSH__@@P6GH0JIHH@ZJIHHHHI@Z 004d5900 f i nafxcwd:afxinl2.obj
 0001:000d4940       ?AtlA2WHelper@@YGPAGPAGPBDH@Z 004d5940 f i nafxcwd:doccore.obj
 0001:000d4960       ?AtlA2WHelper@@YGPAGPAGPBDHI@Z 004d5960 f i nafxcwd:doccore.obj
 0001:000d49f0       ??0AFX_CLASSINIT@@QAE@PAUCRuntimeClass@@@Z 004d59f0 f i nafxcwd:array_o.obj
 0001:000d4a10       ??_9@$BOI@AE               004d5a10 f i nafxcwd:viewcore.obj
 0001:000d4a20       ??0CPushRoutingView@@QAE@PAVCView@@@Z 004d5a20 f i nafxcwd:viewcore.obj
 0001:000d4a60       ??1CPushRoutingView@@QAE@XZ 004d5a60 f i nafxcwd:viewcore.obj
 0001:000d4a80       ??0CPushRoutingFrame@@QAE@PAVCFrameWnd@@@Z 004d5a80 f i nafxcwd:winfrm.obj
 0001:000d4ac0       ??1CPushRoutingFrame@@QAE@XZ 004d5ac0 f i nafxcwd:winfrm.obj
 0001:000d4ae0       ?GetFileTitle@@YGFPBDPADG@Z 004d5ae0 f i nafxcwd:filecore.obj
 0001:000d4b00       ?GetWindowTask@@YAPAUHTASK__@@PAUHWND__@@@Z 004d5b00 f i nafxcwd:winfrmx.obj
 0001:000d4b20       ?CreateControl@CWnd@@QAEHPBD0KABUtagRECT@@PAV1@IPAVCFile@@HPAG@Z 004d5b20 f   nafxcwd:occcont.obj
 0001:000d4b98       ?CreateControl@CWnd@@QAEHABU_GUID@@PBDKABUtagRECT@@PAV1@IPAVCFile@@HPAG@Z 004d5b98 f   nafxcwd:occcont.obj
 0001:000d4c1d       ?CreateControl@CWnd@@QAEHABU_GUID@@PBDKPBUtagPOINT@@PBUtagSIZE@@PAV1@IPAVCFile@@HPAG@Z 004d5c1d f   nafxcwd:occcont.obj
 0001:000d4cca       ?InitControlContainer@CWnd@@IAEHXZ 004d5cca f   nafxcwd:occcont.obj
 0001:000d4de7       ?GetInterfaceMap@COleControlContainer@@MBEPBUAFX_INTERFACEMAP@@XZ 004d5de7 f   nafxcwd:occcont.obj
 0001:000d4df7       ?GetDispatchMap@COleControlContainer@@MBEPBUAFX_DISPMAP@@XZ 004d5df7 f   nafxcwd:occcont.obj
 0001:000d4e07       ??0COleControlContainer@@QAE@PAVCWnd@@@Z 004d5e07 f   nafxcwd:occcont.obj
 0001:000d4ead       ??1COleControlContainer@@UAE@XZ 004d5ead f   nafxcwd:occcont.obj
 0001:000d5008       ?CreateControl@COleControlContainer@@QAEHPAVCWnd@@ABU_GUID@@PBDKABUtagRECT@@IPAVCFile@@HPAGPAPAVCOleControlSite@@@Z 004d6008 f   nafxcwd:occcont.obj
 0001:000d5091       ?CreateControl@COleControlContainer@@QAEHPAVCWnd@@ABU_GUID@@PBDKPBUtagPOINT@@PBUtagSIZE@@IPAVCFile@@HPAGPAPAVCOleControlSite@@@Z 004d6091 f   nafxcwd:occcont.obj
 0001:000d5209       ?FindItem@COleControlContainer@@UBEPAVCOleControlSite@@I@Z 004d6209 f   nafxcwd:occcont.obj
 0001:000d5259       ?GetAmbientProp@COleControlContainer@@UAEHPAVCOleControlSite@@JPAUtagVARIANT@@@Z 004d6259 f   nafxcwd:occcont.obj
 0001:000d554b       ?CreateOleFont@COleControlContainer@@QAEXPAVCFont@@@Z 004d654b f   nafxcwd:occcont.obj
 0001:000d5799       ?FreezeAllEvents@COleControlContainer@@QAEXH@Z 004d6799 f   nafxcwd:occcont.obj
 0001:000d57e1       ?ScrollChildren@COleControlContainer@@UAEXHH@Z 004d67e1 f   nafxcwd:occcont.obj
 0001:000d58ad       ?OnUIActivate@COleControlContainer@@UAEXPAVCOleControlSite@@@Z 004d68ad f   nafxcwd:occcont.obj
 0001:000d590d       ?OnUIDeactivate@COleControlContainer@@UAEXPAVCOleControlSite@@@Z 004d690d f   nafxcwd:occcont.obj
 0001:000d592f       ?CheckDlgButton@COleControlContainer@@UAEXHI@Z 004d692f f   nafxcwd:occcont.obj
 0001:000d5993       ?CheckRadioButton@COleControlContainer@@UAEXHHH@Z 004d6993 f   nafxcwd:occcont.obj
 0001:000d5a22       ?GetDlgItem@COleControlContainer@@UBEPAVCWnd@@H@Z 004d6a22 f   nafxcwd:occcont.obj
 0001:000d5a4d       ?GetDlgItem@COleControlContainer@@UBEXHPAPAUHWND__@@@Z 004d6a4d f   nafxcwd:occcont.obj
 0001:000d5aa4       ?GetDlgItemInt@COleControlContainer@@UBEIHPAHH@Z 004d6aa4 f   nafxcwd:occcont.obj
 0001:000d5b9d       ?GetDlgItemTextA@COleControlContainer@@UBEHHPADH@Z 004d6b9d f   nafxcwd:occcont.obj
 0001:000d5bd8       ?SendDlgItemMessageA@COleControlContainer@@UAEJHIIJ@Z 004d6bd8 f   nafxcwd:occcont.obj
 0001:000d5c17       ?SetDlgItemInt@COleControlContainer@@UAEXHIH@Z 004d6c17 f   nafxcwd:occcont.obj
 0001:000d5c68       ?SetDlgItemTextA@COleControlContainer@@UAEXHPBD@Z 004d6c68 f   nafxcwd:occcont.obj
 0001:000d5c9d       ?IsDlgButtonChecked@COleControlContainer@@UBEIH@Z 004d6c9d f   nafxcwd:occcont.obj
 0001:000d5d89       ?QueryInterface@XOleIPFrame@COleControlContainer@@UAGJABU_GUID@@PAPAX@Z 004d6d89 f   nafxcwd:occcont.obj
 0001:000d5dac       ?AddRef@XOleIPFrame@COleControlContainer@@UAGKXZ 004d6dac f   nafxcwd:occcont.obj
 0001:000d5dc7       ?Release@XOleIPFrame@COleControlContainer@@UAGKXZ 004d6dc7 f   nafxcwd:occcont.obj
 0001:000d5de2       ?GetWindow@XOleIPFrame@COleControlContainer@@UAGJPAPAUHWND__@@@Z 004d6de2 f   nafxcwd:occcont.obj
 0001:000d5e05       ?ContextSensitiveHelp@XOleIPFrame@COleControlContainer@@UAGJH@Z 004d6e05 f   nafxcwd:occcont.obj
 0001:000d5e11       ?GetBorder@XOleIPFrame@COleControlContainer@@UAGJPAUtagRECT@@@Z 004d6e11 f   nafxcwd:occcont.obj
 0001:000d5e1d       ?RequestBorderSpace@XOleIPFrame@COleControlContainer@@UAGJPBUtagRECT@@@Z 004d6e1d f   nafxcwd:occcont.obj
 0001:000d5e29       ?SetBorderSpace@XOleIPFrame@COleControlContainer@@UAGJPBUtagRECT@@@Z 004d6e29 f   nafxcwd:occcont.obj
 0001:000d5e35       ?SetActiveObject@XOleIPFrame@COleControlContainer@@UAGJPAUIOleInPlaceActiveObject@@PBG@Z 004d6e35 f   nafxcwd:occcont.obj
 0001:000d5e91       ?InsertMenus@XOleIPFrame@COleControlContainer@@UAGJPAUHMENU__@@PAUtagOleMenuGroupWidths@@@Z 004d6e91 f   nafxcwd:occcont.obj
 0001:000d5e9d       ?SetMenu@XOleIPFrame@COleControlContainer@@UAGJPAUHMENU__@@PAXPAUHWND__@@@Z 004d6e9d f   nafxcwd:occcont.obj
 0001:000d5ea9       ?RemoveMenus@XOleIPFrame@COleControlContainer@@UAGJPAUHMENU__@@@Z 004d6ea9 f   nafxcwd:occcont.obj
 0001:000d5eb5       ?SetStatusText@XOleIPFrame@COleControlContainer@@UAGJPBG@Z 004d6eb5 f   nafxcwd:occcont.obj
 0001:000d5ec1       ?EnableModeless@XOleIPFrame@COleControlContainer@@UAGJH@Z 004d6ec1 f   nafxcwd:occcont.obj
 0001:000d5eca       ?TranslateAcceleratorA@XOleIPFrame@COleControlContainer@@UAGJPAUtagMSG@@G@Z 004d6eca f   nafxcwd:occcont.obj
 0001:000d5ed6       ?GetInterfaceMap@CEnumUnknown@@MBEPBUAFX_INTERFACEMAP@@XZ 004d6ed6 f   nafxcwd:occcont.obj
 0001:000d5ee6       ??1CEnumUnknown@@UAE@XZ    004d6ee6 f   nafxcwd:occcont.obj
 0001:000d5fa6       ?OnNext@CEnumUnknown@@MAEHPAX@Z 004d6fa6 f   nafxcwd:occcont.obj
 0001:000d6004       ?QueryInterface@XOleContainer@COleControlContainer@@UAGJABU_GUID@@PAPAX@Z 004d7004 f   nafxcwd:occcont.obj
 0001:000d6027       ?Release@XOleContainer@COleControlContainer@@UAGKXZ 004d7027 f   nafxcwd:occcont.obj
 0001:000d6042       ?AddRef@XOleContainer@COleControlContainer@@UAGKXZ 004d7042 f   nafxcwd:occcont.obj
 0001:000d605d       ?ParseDisplayName@XOleContainer@COleControlContainer@@UAGJPAUIBindCtx@@PAGPAKPAPAUIMoniker@@@Z 004d705d f   nafxcwd:occcont.obj
 0001:000d6069       ?EnumObjects@XOleContainer@COleControlContainer@@UAGJKPAPAUIEnumUnknown@@@Z 004d7069 f   nafxcwd:occcont.obj
 0001:000d6342       ?LockContainer@XOleContainer@COleControlContainer@@UAGJH@Z 004d7342 f   nafxcwd:occcont.obj
 0001:000d6350       ??_ECOleControlContainer@@UAEPAXI@Z 004d7350 f i nafxcwd:occcont.obj
 0001:000d6350       ??_GCOleControlContainer@@UAEPAXI@Z 004d7350 f i nafxcwd:occcont.obj
 0001:000d6380       ??0XOleIPFrame@COleControlContainer@@QAE@XZ 004d7380 f i nafxcwd:occcont.obj
 0001:000d63a0       ??0XOleContainer@COleControlContainer@@QAE@XZ 004d73a0 f i nafxcwd:occcont.obj
 0001:000d63c0       ??0IOleInPlaceFrame@@QAE@XZ 004d73c0 f i nafxcwd:occcont.obj
 0001:000d63e0       ??0IOleContainer@@QAE@XZ   004d73e0 f i nafxcwd:occcont.obj
 0001:000d6400       ??0IOleInPlaceUIWindow@@QAE@XZ 004d7400 f i nafxcwd:occcont.obj
 0001:000d6420       ??0IParseDisplayName@@QAE@XZ 004d7420 f i nafxcwd:occcont.obj
 0001:000d6440       ??0IOleWindow@@QAE@XZ      004d7440 f i nafxcwd:occcont.obj
 0001:000d6460       ??0IUnknown@@QAE@XZ        004d7460 f i nafxcwd:occcont.obj
 0001:000d6470       ??_ECEnumUnknown@@UAEPAXI@Z 004d7470 f i nafxcwd:occcont.obj
 0001:000d6470       ??_GCEnumUnknown@@UAEPAXI@Z 004d7470 f i nafxcwd:occcont.obj
 0001:000d64a0       ??0CEnumUnknown@@QAE@PBXI@Z 004d74a0 f i nafxcwd:occcont.obj
 0001:000d64d0       ??8@YAHABU_GUID@@0@Z       004d74d0 f i nafxcwd:oleunk.obj
 0001:000d64f0       ??0CSimpleList@@QAE@H@Z    004d74f0 f i nafxcwd:afxstate.obj
 0001:000d6520       ?Construct@CSimpleList@@QAEXH@Z 004d7520 f i nafxcwd:afxstate.obj
 0001:000d6560       ??0CTypeLibCache@@QAE@XZ   004d7560 f i nafxcwd:afxstate.obj
 0001:000d65a0       ??_ECHandleMap@@UAEPAXI@Z  004d75a0 f i nafxcwd:winhand.obj
 0001:000d65a0       ??_GCHandleMap@@UAEPAXI@Z  004d75a0 f i nafxcwd:winhand.obj
 0001:000d65d0       ??1CHandleMap@@UAE@XZ      004d75d0 f i nafxcwd:winhand.obj
 0001:000d6640       ?GetNextPtr@CSimpleList@@QBEPAPAXPAX@Z 004d7640 f i nafxcwd:afxtls.obj
 0001:000d6680       ??2CThreadSlotData@@SGPAXIPAX@Z 004d7680 f i nafxcwd:afxtls.obj
 0001:000d6690       __tcsdec                   004d7690 f i nafxcwd:docmgr.obj
 0001:000d66b0       ?OnEvent@CCmdTarget@@QAEHIPAUAFX_EVENT@@PAUAFX_CMDHANDLERINFO@@@Z 004d76b0 f   nafxcwd:occevent.obj
 0001:000d6b21       ?GetEventSinkEntry@CCmdTarget@@IAGPBUAFX_EVENTSINKMAP_ENTRY@@IPAUAFX_EVENT@@@Z 004d7b21 f   nafxcwd:occevent.obj
 0001:000d6be0       ?GetInterfaceMap@COleControlSite@@MBEPBUAFX_INTERFACEMAP@@XZ 004d7be0 f   nafxcwd:occsite.obj
 0001:000d6bf0       ??0COleControlSite@@QAE@PAVCOleControlContainer@@@Z 004d7bf0 f   nafxcwd:occsite.obj
 0001:000d6dcb       ??1COleControlSite@@UAE@XZ 004d7dcb f   nafxcwd:occsite.obj
 0001:000d6fc6       ?SetExtent@COleControlSite@@IAEHXZ 004d7fc6 f   nafxcwd:occsite.obj
 0001:000d70ae       ?CreateControl@COleControlSite@@QAEJPAVCWnd@@ABU_GUID@@PBDKABUtagRECT@@IPAVCFile@@HPAG@Z 004d80ae f   nafxcwd:occsite.obj
 0001:000d7133       ?CreateControl@COleControlSite@@QAEJPAVCWnd@@ABU_GUID@@PBDKPBUtagPOINT@@PBUtagSIZE@@IPAVCFile@@HPAG@Z 004d8133 f   nafxcwd:occsite.obj
 0001:000d75d9       ?DestroyControl@COleControlSite@@UAEHXZ 004d85d9 f   nafxcwd:occsite.obj
 0001:000d7664       ?_AfxCoCreateInstanceLic@@YGJABU_GUID@@PAUIUnknown@@K0PAPAXPAG@Z 004d8664 f   nafxcwd:occsite.obj
 0001:000d7767       ?QuickActivate@COleControlSite@@UAEHXZ 004d8767 f   nafxcwd:occsite.obj
 0001:000d7a0a       ?CreateOrLoad@COleControlSite@@IAEJABU_GUID@@PAVCFile@@HPAG@Z 004d8a0a f   nafxcwd:occsite.obj
 0001:000d81c0       ?GetID@COleControlSite@@QAEIXZ 004d91c0 f   nafxcwd:occsite.obj
 0001:000d81d1       ?DoVerb@COleControlSite@@UAEJJPAUtagMSG@@@Z 004d91d1 f   nafxcwd:occsite.obj
 0001:000d821d       ?IsDefaultButton@COleControlSite@@QAEHXZ 004d921d f   nafxcwd:occsite.obj
 0001:000d825a       ?GetDefBtnCode@COleControlSite@@QAEKXZ 004d925a f   nafxcwd:occsite.obj
 0001:000d828b       ?SetDefaultButton@COleControlSite@@QAEXH@Z 004d928b f   nafxcwd:occsite.obj
 0001:000d833c       ?ConnectSink@COleControlSite@@IAEKABU_GUID@@PAUIUnknown@@@Z 004d933c f   nafxcwd:occsite.obj
 0001:000d843c       ?DisconnectSink@COleControlSite@@IAEXABU_GUID@@K@Z 004d943c f   nafxcwd:occsite.obj
 0001:000d850e       ?GetEventIID@COleControlSite@@QAEHPAU_GUID@@@Z 004d950e f   nafxcwd:occsite.obj
 0001:000d8892       ?GetControlInfo@COleControlSite@@QAEXXZ 004d9892 f   nafxcwd:occsite.obj
 0001:000d8926       ?IsMatchingMnemonic@COleControlSite@@QAEHPAUtagMSG@@@Z 004d9926 f   nafxcwd:occsite.obj
 0001:000d8a5b       ?SendMnemonic@COleControlSite@@QAEXPAUtagMSG@@@Z 004d9a5b f   nafxcwd:occsite.obj
 0001:000d8aef       ?FreezeEvents@COleControlSite@@QAEXH@Z 004d9aef f   nafxcwd:occsite.obj
 0001:000d8b65       ?AttachWindow@COleControlSite@@IAEXXZ 004d9b65 f   nafxcwd:occsite.obj
 0001:000d8c56       ?DetachWindow@COleControlSite@@IAEXXZ 004d9c56 f   nafxcwd:occsite.obj
 0001:000d8d02       ?OnEvent@COleControlSite@@IAEHPAUAFX_EVENT@@@Z 004d9d02 f   nafxcwd:occsite.obj
 0001:000d8d69       ?InvokeHelperV@COleControlSite@@UAEXJGGPAXPBEPAD@Z 004d9d69 f   nafxcwd:occsite.obj
 0001:000d8e21       ?SetPropertyV@COleControlSite@@UAEXJGPAD@Z 004d9e21 f   nafxcwd:occsite.obj
 0001:000d8ed9       ?InvokeHelper@COleControlSite@@UAAXJGGPAXPBEZZ 004d9ed9 f   nafxcwd:occsite.obj
 0001:000d8f13       ?GetProperty@COleControlSite@@UBEXJGPAX@Z 004d9f13 f   nafxcwd:occsite.obj
 0001:000d8f40       ?SetProperty@COleControlSite@@UAAXJGZZ 004d9f40 f   nafxcwd:occsite.obj
 0001:000d8f6d       ?SafeSetProperty@COleControlSite@@UAAHJGZZ 004d9f6d f   nafxcwd:occsite.obj
 0001:000d9025       ?GetStyle@COleControlSite@@UBEKXZ 004da025 f   nafxcwd:occsite.obj
 0001:000d916e       ?GetExStyle@COleControlSite@@UBEKXZ 004da16e f   nafxcwd:occsite.obj
 0001:000d9230       ?ModifyStyle@COleControlSite@@UAEHKKI@Z 004da230 f   nafxcwd:occsite.obj
 0001:000d931c       ?ModifyStyleEx@COleControlSite@@UAEHKKI@Z 004da31c f   nafxcwd:occsite.obj
 0001:000d9390       ?SetWindowTextA@COleControlSite@@UAEXPBD@Z 004da390 f   nafxcwd:occsite.obj
 0001:000d9406       ?GetWindowTextA@COleControlSite@@UBEXAAVCString@@@Z 004da406 f   nafxcwd:occsite.obj
 0001:000d9530       ?GetWindowTextA@COleControlSite@@UBEHPADH@Z 004da530 f   nafxcwd:occsite.obj
 0001:000d95db       ?GetWindowTextLengthA@COleControlSite@@UBEHXZ 004da5db f   nafxcwd:occsite.obj
 0001:000d9645       ?GetDlgCtrlID@COleControlSite@@UBEHXZ 004da645 f   nafxcwd:occsite.obj
 0001:000d9656       ?SetDlgCtrlID@COleControlSite@@UAEHH@Z 004da656 f   nafxcwd:occsite.obj
 0001:000d967a       ?MoveWindow@COleControlSite@@UAEXHHHHH@Z 004da67a f   nafxcwd:occsite.obj
 0001:000d979d       ?SetWindowPos@COleControlSite@@UAEHPBVCWnd@@HHHHI@Z 004da79d f   nafxcwd:occsite.obj
 0001:000d98b4       ?ShowWindow@COleControlSite@@UAEHH@Z 004da8b4 f   nafxcwd:occsite.obj
 0001:000d9932       ?IsWindowEnabled@COleControlSite@@UBEHXZ 004da932 f   nafxcwd:occsite.obj
 0001:000d99d1       ?EnableWindow@COleControlSite@@UAEHH@Z 004da9d1 f   nafxcwd:occsite.obj
 0001:000d9a98       ?SetFocus@COleControlSite@@UAEPAVCWnd@@XZ 004daa98 f   nafxcwd:occsite.obj
 0001:000d9ae4       ?EnableDSC@COleControlSite@@UAEXXZ 004daae4 f   nafxcwd:occsite.obj
 0001:000d9b7f       ?BindDefaultProperty@COleControlSite@@UAEXJGPBDPAVCWnd@@@Z 004dab7f f   nafxcwd:occsite.obj
 0001:000d9ccf       ?BindProperty@COleControlSite@@UAEXJPAVCWnd@@@Z 004daccf f   nafxcwd:occsite.obj
 0001:000d9f0c       ?AddRef@XOleClientSite@COleControlSite@@UAGKXZ 004daf0c f   nafxcwd:occsite.obj
 0001:000d9f29       ?Release@XOleClientSite@COleControlSite@@UAGKXZ 004daf29 f   nafxcwd:occsite.obj
 0001:000d9f46       ?QueryInterface@XOleClientSite@COleControlSite@@UAGJABU_GUID@@PAPAX@Z 004daf46 f   nafxcwd:occsite.obj
 0001:000d9f6b       ?SaveObject@XOleClientSite@COleControlSite@@UAGJXZ 004daf6b f   nafxcwd:occsite.obj
 0001:000d9f77       ?GetMoniker@XOleClientSite@COleControlSite@@UAGJKKPAPAUIMoniker@@@Z 004daf77 f   nafxcwd:occsite.obj
 0001:000d9f83       ?GetContainer@XOleClientSite@COleControlSite@@UAGJPAPAUIOleContainer@@@Z 004daf83 f   nafxcwd:occsite.obj
 0001:000d9fac       ?ShowObject@XOleClientSite@COleControlSite@@UAGJXZ 004dafac f   nafxcwd:occsite.obj
 0001:000d9fcb       ?OnShowWindow@XOleClientSite@COleControlSite@@UAGJH@Z 004dafcb f   nafxcwd:occsite.obj
 0001:000d9fd4       ?RequestNewObjectLayout@XOleClientSite@COleControlSite@@UAGJXZ 004dafd4 f   nafxcwd:occsite.obj
 0001:000d9fe0       ?AddRef@XOleIPSite@COleControlSite@@UAGKXZ 004dafe0 f   nafxcwd:occsite.obj
 0001:000d9ffd       ?Release@XOleIPSite@COleControlSite@@UAGKXZ 004daffd f   nafxcwd:occsite.obj
 0001:000da01a       ?QueryInterface@XOleIPSite@COleControlSite@@UAGJABU_GUID@@PAPAX@Z 004db01a f   nafxcwd:occsite.obj
 0001:000da03f       ?GetWindow@XOleIPSite@COleControlSite@@UAGJPAPAUHWND__@@@Z 004db03f f   nafxcwd:occsite.obj
 0001:000da07a       ?ContextSensitiveHelp@XOleIPSite@COleControlSite@@UAGJH@Z 004db07a f   nafxcwd:occsite.obj
 0001:000da086       ?CanInPlaceActivate@XOleIPSite@COleControlSite@@UAGJXZ 004db086 f   nafxcwd:occsite.obj
 0001:000da08f       ?OnInPlaceActivate@XOleIPSite@COleControlSite@@UAGJXZ 004db08f f   nafxcwd:occsite.obj
 0001:000da098       ?OnUIActivate@XOleIPSite@COleControlSite@@UAGJXZ 004db098 f   nafxcwd:occsite.obj
 0001:000da0c4       ?GetWindowContext@XOleIPSite@COleControlSite@@UAGJPAPAUIOleInPlaceFrame@@PAPAUIOleInPlaceUIWindow@@PAUtagRECT@@2PAUtagOIFI@@@Z 004db0c4 f   nafxcwd:occsite.obj
 0001:000da27b       ?Scroll@XOleIPSite@COleControlSite@@UAGJUtagSIZE@@@Z 004db27b f   nafxcwd:occsite.obj
 0001:000da287       ?OnUIDeactivate@XOleIPSite@COleControlSite@@UAGJH@Z 004db287 f   nafxcwd:occsite.obj
 0001:000da2b3       ?OnInPlaceDeactivate@XOleIPSite@COleControlSite@@UAGJXZ 004db2b3 f   nafxcwd:occsite.obj
 0001:000da2d2       ?DiscardUndoState@XOleIPSite@COleControlSite@@UAGJXZ 004db2d2 f   nafxcwd:occsite.obj
 0001:000da2db       ?DeactivateAndUndo@XOleIPSite@COleControlSite@@UAGJXZ 004db2db f   nafxcwd:occsite.obj
 0001:000da304       ?OnPosRectChange@XOleIPSite@COleControlSite@@UAGJPBUtagRECT@@@Z 004db304 f   nafxcwd:occsite.obj
 0001:000da38a       ?AddRef@XOleControlSite@COleControlSite@@UAGKXZ 004db38a f   nafxcwd:occsite.obj
 0001:000da3a7       ?Release@XOleControlSite@COleControlSite@@UAGKXZ 004db3a7 f   nafxcwd:occsite.obj
 0001:000da3c4       ?QueryInterface@XOleControlSite@COleControlSite@@UAGJABU_GUID@@PAPAX@Z 004db3c4 f   nafxcwd:occsite.obj
 0001:000da3e9       ?OnControlInfoChanged@XOleControlSite@COleControlSite@@UAGJXZ 004db3e9 f   nafxcwd:occsite.obj
 0001:000da408       ?LockInPlaceActive@XOleControlSite@COleControlSite@@UAGJH@Z 004db408 f   nafxcwd:occsite.obj
 0001:000da414       ?GetExtendedControl@XOleControlSite@COleControlSite@@UAGJPAPAUIDispatch@@@Z 004db414 f   nafxcwd:occsite.obj
 0001:000da420       ?TransformCoords@XOleControlSite@COleControlSite@@UAGJPAU_POINTL@@PAUtagPOINTF@@K@Z 004db420 f   nafxcwd:occsite.obj
 0001:000da584       ?TranslateAcceleratorA@XOleControlSite@COleControlSite@@UAGJPAUtagMSG@@K@Z 004db584 f   nafxcwd:occsite.obj
 0001:000da590       ?OnFocus@XOleControlSite@COleControlSite@@UAGJH@Z 004db590 f   nafxcwd:occsite.obj
 0001:000da599       ?ShowPropertyFrame@XOleControlSite@COleControlSite@@UAGJXZ 004db599 f   nafxcwd:occsite.obj
 0001:000da5a5       ?AddRef@XAmbientProps@COleControlSite@@UAGKXZ 004db5a5 f   nafxcwd:occsite.obj
 0001:000da5c2       ?Release@XAmbientProps@COleControlSite@@UAGKXZ 004db5c2 f   nafxcwd:occsite.obj
 0001:000da5df       ?QueryInterface@XAmbientProps@COleControlSite@@UAGJABU_GUID@@PAPAX@Z 004db5df f   nafxcwd:occsite.obj
 0001:000da604       ?GetTypeInfoCount@XAmbientProps@COleControlSite@@UAGJPAI@Z 004db604 f   nafxcwd:occsite.obj
 0001:000da610       ?GetTypeInfo@XAmbientProps@COleControlSite@@UAGJIKPAPAUITypeInfo@@@Z 004db610 f   nafxcwd:occsite.obj
 0001:000da61c       ?GetIDsOfNames@XAmbientProps@COleControlSite@@UAGJABU_GUID@@PAPAGIKPAJ@Z 004db61c f   nafxcwd:occsite.obj
 0001:000da628       ?Invoke@XAmbientProps@COleControlSite@@UAGJJABU_GUID@@KGPAUtagDISPPARAMS@@PAUtagVARIANT@@PAUtagEXCEPINFO@@PAI@Z 004db628 f   nafxcwd:occsite.obj
 0001:000da70d       ?QueryInterface@XPropertyNotifySink@COleControlSite@@UAGJABU_GUID@@PAPAX@Z 004db70d f   nafxcwd:occsite.obj
 0001:000da769       ?AddRef@XPropertyNotifySink@COleControlSite@@UAGKXZ 004db769 f   nafxcwd:occsite.obj
 0001:000da775       ?Release@XPropertyNotifySink@COleControlSite@@UAGKXZ 004db775 f   nafxcwd:occsite.obj
 0001:000da77e       ?OnChanged@XPropertyNotifySink@COleControlSite@@UAGJJ@Z 004db77e f   nafxcwd:occsite.obj
 0001:000da8dc       ?OnRequestEdit@XPropertyNotifySink@COleControlSite@@UAGJJ@Z 004db8dc f   nafxcwd:occsite.obj
 0001:000da93c       ?AddRef@XEventSink@COleControlSite@@UAGKXZ 004db93c f   nafxcwd:occsite.obj
 0001:000da948       ?Release@XEventSink@COleControlSite@@UAGKXZ 004db948 f   nafxcwd:occsite.obj
 0001:000da951       ?QueryInterface@XEventSink@COleControlSite@@UAGJABU_GUID@@PAPAX@Z 004db951 f   nafxcwd:occsite.obj
 0001:000da9c4       ?GetTypeInfoCount@XEventSink@COleControlSite@@UAGJPAI@Z 004db9c4 f   nafxcwd:occsite.obj
 0001:000da9d0       ?GetTypeInfo@XEventSink@COleControlSite@@UAGJIKPAPAUITypeInfo@@@Z 004db9d0 f   nafxcwd:occsite.obj
 0001:000da9dc       ?GetIDsOfNames@XEventSink@COleControlSite@@UAGJABU_GUID@@PAPAGIKPAJ@Z 004db9dc f   nafxcwd:occsite.obj
 0001:000da9e8       ?Invoke@XEventSink@COleControlSite@@UAGJJABU_GUID@@KGPAUtagDISPPARAMS@@PAUtagVARIANT@@PAUtagEXCEPINFO@@PAI@Z 004db9e8 f   nafxcwd:occsite.obj
 0001:000daaae       ??0CDataSourceControl@@QAE@PAVCOleControlSite@@@Z 004dbaae f   nafxcwd:occsite.obj
 0001:000dabbc       ??1CDataSourceControl@@QAE@XZ 004dbbbc f   nafxcwd:occsite.obj
 0001:000daf80       ?Initialize@CDataSourceControl@@QAEJXZ 004dbf80 f   nafxcwd:occsite.obj
 0001:000db19e       ?GetCursor@CDataSourceControl@@UAEPAUIUnknown@@XZ 004dc19e f   nafxcwd:occsite.obj
 0001:000db2a1       ?GetMetaData@CDataSourceControl@@QAEJXZ 004dc2a1 f   nafxcwd:occsite.obj
 0001:000db95c       ?CopyColumnID@CDataSourceControl@@QAEHPAUtagDBCOLUMNID@@PBU2@@Z 004dc95c f   nafxcwd:occsite.obj
 0001:000dba25       ?BindProp@CDataSourceControl@@UAEXPAVCOleControlSite@@H@Z 004dca25 f   nafxcwd:occsite.obj
 0001:000dbc7f       ?BindProp@CDataSourceControl@@UAEXPAVCDataBoundProperty@@H@Z 004dcc7f f   nafxcwd:occsite.obj
 0001:000dbd10       ?BindColumns@CDataSourceControl@@UAEXXZ 004dcd10 f   nafxcwd:occsite.obj
 0001:000dc011       ?GetBoundClientRow@CDataSourceControl@@QAEJXZ 004dd011 f   nafxcwd:occsite.obj
 0001:000dc0b9       ?ToVariant@CDataSourceControl@@QAE?AVCOleVariant@@H@Z 004dd0b9 f   nafxcwd:occsite.obj
 0001:000dca37       ?UpdateControls@CDataSourceControl@@UAEJXZ 004dda37 f   nafxcwd:occsite.obj
 0001:000dcc85       ?UpdateCursor@CDataSourceControl@@UAEJXZ 004ddc85 f   nafxcwd:occsite.obj
 0001:000dd86d       ??0CDataBoundProperty@@QAE@PAV0@JG@Z 004de86d f   nafxcwd:occsite.obj
 0001:000dd8b7       ?SetClientSite@CDataBoundProperty@@QAEXPAVCOleControlSite@@@Z 004de8b7 f   nafxcwd:occsite.obj
 0001:000dd8cc       ?SetDSCSite@CDataBoundProperty@@QAEXPAVCOleControlSite@@@Z 004de8cc f   nafxcwd:occsite.obj
 0001:000dd8f7       ?GetNext@CDataBoundProperty@@QAEPAV1@XZ 004de8f7 f   nafxcwd:occsite.obj
 0001:000dd908       ?RemoveSource@CDataBoundProperty@@QAEXXZ 004de908 f   nafxcwd:occsite.obj
 0001:000dd925       ?Notify@CDataBoundProperty@@QAEXXZ 004de925 f   nafxcwd:occsite.obj
 0001:000dd9f9       ?GetCursor@CDataBoundProperty@@QAEPAUIUnknown@@XZ 004de9f9 f   nafxcwd:occsite.obj
 0001:000dda93       ?GetCursor@COleControlSite@@IAEJJPAPAUIUnknown@@PAPAX@Z 004dea93 f   nafxcwd:occsite.obj
 0001:000ddaee       ?AddRef@XBoundObjectSite@COleControlSite@@UAGKXZ 004deaee f   nafxcwd:occsite.obj
 0001:000ddb0b       ?Release@XBoundObjectSite@COleControlSite@@UAGKXZ 004deb0b f   nafxcwd:occsite.obj
 0001:000ddb28       ?QueryInterface@XBoundObjectSite@COleControlSite@@UAGJABU_GUID@@PAPAX@Z 004deb28 f   nafxcwd:occsite.obj
 0001:000ddb4d       ?GetCursor@XBoundObjectSite@COleControlSite@@UAGJJPAPAUICursor@@PAPAX@Z 004deb4d f   nafxcwd:occsite.obj
 0001:000ddb76       ?AddRef@XNotifyDBEvents@COleControlSite@@UAGKXZ 004deb76 f   nafxcwd:occsite.obj
 0001:000ddb82       ?Release@XNotifyDBEvents@COleControlSite@@UAGKXZ 004deb82 f   nafxcwd:occsite.obj
 0001:000ddb8b       ?QueryInterface@XNotifyDBEvents@COleControlSite@@UAGJABU_GUID@@PAPAX@Z 004deb8b f   nafxcwd:occsite.obj
 0001:000ddbe7       ?OKToDo@XNotifyDBEvents@COleControlSite@@UAGJKKQAUtagDBNOTIFYREASON@@@Z 004debe7 f   nafxcwd:occsite.obj
 0001:000ddc95       ?Cancelled@XNotifyDBEvents@COleControlSite@@UAGJKKQAUtagDBNOTIFYREASON@@@Z 004dec95 f   nafxcwd:occsite.obj
 0001:000ddcd2       ?SyncBefore@XNotifyDBEvents@COleControlSite@@UAGJKKQAUtagDBNOTIFYREASON@@@Z 004decd2 f   nafxcwd:occsite.obj
 0001:000ddd5b       ?AboutToDo@XNotifyDBEvents@COleControlSite@@UAGJKKQAUtagDBNOTIFYREASON@@@Z 004ded5b f   nafxcwd:occsite.obj
 0001:000ddd98       ?FailedToDo@XNotifyDBEvents@COleControlSite@@UAGJKKQAUtagDBNOTIFYREASON@@@Z 004ded98 f   nafxcwd:occsite.obj
 0001:000dddd5       ?SyncAfter@XNotifyDBEvents@COleControlSite@@UAGJKKQAUtagDBNOTIFYREASON@@@Z 004dedd5 f   nafxcwd:occsite.obj
 0001:000dde95       ?DidEvent@XNotifyDBEvents@COleControlSite@@UAGJKKQAUtagDBNOTIFYREASON@@@Z 004dee95 f   nafxcwd:occsite.obj
 0001:000ddf23       ?FireEvent@XNotifyDBEvents@COleControlSite@@QAEJKKQAUtagDBNOTIFYREASON@@W4DSCSTATE@@@Z 004def23 f   nafxcwd:occsite.obj
 0001:000de05e       ?AddRef@XRowsetNotify@COleControlSite@@UAGKXZ 004df05e f   nafxcwd:occsite.obj
 0001:000de06a       ?Release@XRowsetNotify@COleControlSite@@UAGKXZ 004df06a f   nafxcwd:occsite.obj
 0001:000de073       ?QueryInterface@XRowsetNotify@COleControlSite@@UAGJABU_GUID@@PAPAX@Z 004df073 f   nafxcwd:occsite.obj
 0001:000de0cf       ?OnFieldChange@XRowsetNotify@COleControlSite@@UAGJPAUIRowset@@KKQAKKKH@Z 004df0cf f   nafxcwd:occsite.obj
 0001:000de1e8       ?OnRowChange@XRowsetNotify@COleControlSite@@UAGJPAUIRowset@@KQBKKKH@Z 004df1e8 f   nafxcwd:occsite.obj
 0001:000de3cf       ?OnRowsetChange@XRowsetNotify@COleControlSite@@UAGJPAUIRowset@@KKH@Z 004df3cf f   nafxcwd:occsite.obj
 0001:000de520       ??_GCOleControlSite@@UAEPAXI@Z 004df520 f i nafxcwd:occsite.obj
 0001:000de520       ??_ECOleControlSite@@UAEPAXI@Z 004df520 f i nafxcwd:occsite.obj
 0001:000de550       ??0XOleClientSite@COleControlSite@@QAE@XZ 004df550 f i nafxcwd:occsite.obj
 0001:000de570       ??0XOleIPSite@COleControlSite@@QAE@XZ 004df570 f i nafxcwd:occsite.obj
 0001:000de590       ??0XOleControlSite@COleControlSite@@QAE@XZ 004df590 f i nafxcwd:occsite.obj
 0001:000de5b0       ??0XAmbientProps@COleControlSite@@QAE@XZ 004df5b0 f i nafxcwd:occsite.obj
 0001:000de5d0       ??0XPropertyNotifySink@COleControlSite@@QAE@XZ 004df5d0 f i nafxcwd:occsite.obj
 0001:000de5f0       ??0XEventSink@COleControlSite@@QAE@XZ 004df5f0 f i nafxcwd:occsite.obj
 0001:000de610       ??0XBoundObjectSite@COleControlSite@@QAE@XZ 004df610 f i nafxcwd:occsite.obj
 0001:000de630       ??0XNotifyDBEvents@COleControlSite@@QAE@XZ 004df630 f i nafxcwd:occsite.obj
 0001:000de650       ??0XRowsetNotify@COleControlSite@@QAE@XZ 004df650 f i nafxcwd:occsite.obj
 0001:000de670       ??0IOleClientSite@@QAE@XZ  004df670 f i nafxcwd:occsite.obj
 0001:000de690       ??0IOleInPlaceSite@@QAE@XZ 004df690 f i nafxcwd:occsite.obj
 0001:000de6b0       ??0IOleControlSite@@QAE@XZ 004df6b0 f i nafxcwd:occsite.obj
 0001:000de6d0       ??0IDispatch@@QAE@XZ       004df6d0 f i nafxcwd:occsite.obj
 0001:000de6f0       ??0IPropertyNotifySink@@QAE@XZ 004df6f0 f i nafxcwd:occsite.obj
 0001:000de710       ??0IBoundObjectSite@@QAE@XZ 004df710 f i nafxcwd:occsite.obj
 0001:000de730       ??0INotifyDBEvents@@QAE@XZ 004df730 f i nafxcwd:occsite.obj
 0001:000de750       ??0IRowsetNotify@@QAE@XZ   004df750 f i nafxcwd:occsite.obj
 0001:000de770       ??_GCDataSourceControl@@QAEPAXI@Z 004df770 f i nafxcwd:occsite.obj
 0001:000de7a0       ??_GCDataBoundProperty@@QAEPAXI@Z 004df7a0 f i nafxcwd:occsite.obj
 0001:000de7d0       ??1CDataBoundProperty@@QAE@XZ 004df7d0 f i nafxcwd:occsite.obj
 0001:000de7e0       ??0AFX_EVENT@@QAE@HJPAUtagDISPPARAMS@@PAUtagEXCEPINFO@@PAI@Z 004df7e0 f i nafxcwd:occsite.obj
 0001:000de840       ?ReleaseAccessors@CAccessorBase@ATL@@QAEJPAUIUnknown@@@Z 004df840 f i nafxcwd:occsite.obj
 0001:000de9a0       ?Close@CDynamicAccessor@ATL@@QAEXXZ 004df9a0 f i nafxcwd:occsite.obj
 0001:000dea20       ?Close@CAccessorBase@ATL@@QAEXXZ 004dfa20 f i nafxcwd:occsite.obj
 0001:000dea90       ??_GCDynamicAccessor@ATL@@QAEPAXI@Z 004dfa90 f i nafxcwd:occsite.obj
 0001:000deac0       ??1CDynamicAccessor@ATL@@QAE@XZ 004dfac0 f i nafxcwd:occsite.obj
 0001:000deae0       ??_GCRowset@ATL@@QAEPAXI@Z 004dfae0 f i nafxcwd:occsite.obj
 0001:000deb10       ??1CRowset@ATL@@QAE@XZ     004dfb10 f i nafxcwd:occsite.obj
 0001:000deb70       ?Close@CRowset@ATL@@QAEXXZ 004dfb70 f i nafxcwd:occsite.obj
 0001:000debb0       ?ReleaseRows@CRowset@ATL@@QAEJXZ 004dfbb0 f i nafxcwd:occsite.obj
 0001:000dec40       ??0CRowset@ATL@@QAE@PAUIRowset@@@Z 004dfc40 f i nafxcwd:occsite.obj
 0001:000decc0       ??0CRowset@ATL@@QAE@XZ     004dfcc0 f i nafxcwd:occsite.obj
 0001:000ded30       ?MoveFirst@CRowset@ATL@@QAEJXZ 004dfd30 f i nafxcwd:occsite.obj
 0001:000dede0       ?MoveNext@CRowset@ATL@@QAEJXZ 004dfde0 f i nafxcwd:occsite.obj
 0001:000dee00       ?MoveNext@CRowset@ATL@@QAEJJ_N@Z 004dfe00 f i nafxcwd:occsite.obj
 0001:000def10       ?AtlTrace2@ATL@@YAXKIPBDZZ 004dff10 f i nafxcwd:occsite.obj
 0001:000defc0       ?GetData@CRowset@ATL@@QAEJXZ 004dffc0 f i nafxcwd:occsite.obj
 0001:000df070       ?GetNumAccessors@CAccessorBase@ATL@@QBEKXZ 004e0070 f i nafxcwd:occsite.obj
 0001:000df090       ?IsAutoAccessor@CAccessorBase@ATL@@QBE_NK@Z 004e0090 f i nafxcwd:occsite.obj
 0001:000df110       ?GetData@CRowset@ATL@@QAEJH@Z 004e0110 f i nafxcwd:occsite.obj
 0001:000df200       ?GetHAccessor@CAccessorBase@ATL@@QBEKK@Z 004e0200 f i nafxcwd:occsite.obj
 0001:000df250       ?GetBuffer@CAccessorBase@ATL@@QBEPAEXZ 004e0250 f i nafxcwd:occsite.obj
 0001:000df270       ?SetupOptionalRowsetInterfaces@CRowset@ATL@@QAEXXZ 004e0270 f i nafxcwd:occsite.obj
 0001:000df2b0       ?SetAccessor@CRowset@ATL@@QAEXPAVCAccessorBase@2@@Z 004e02b0 f i nafxcwd:occsite.obj
 0001:000df2d0       ??0CDynamicAccessor@ATL@@QAE@XZ 004e02d0 f i nafxcwd:occsite.obj
 0001:000df310       ??0CAccessorBase@ATL@@QAE@XZ 004e0310 f i nafxcwd:occsite.obj
 0001:000df340       ?GetColumnCount@CDynamicAccessor@ATL@@QBEKXZ 004e0340 f i nafxcwd:occsite.obj
 0001:000df360       ?BindColumns@CDynamicAccessor@ATL@@QAEJPAUIUnknown@@@Z 004e0360 f i nafxcwd:occsite.obj
 0001:000df8b0       ?AllocateAccessorMemory@CAccessorBase@ATL@@QAEJH@Z 004e08b0 f i nafxcwd:occsite.obj
 0001:000df970       ?BindEntries@CAccessorBase@ATL@@SAJPAUtagDBBINDING@@HPAKKPAUIAccessor@@@Z 004e0970 f i nafxcwd:occsite.obj
 0001:000dfb50       ?Bind@CAccessorBase@ATL@@SAXPAUtagDBBINDING@@KGKEEKKKKPAUtagDBOBJECT@@@Z 004e0b50 f i nafxcwd:occsite.obj
 0001:000dfc80       ?AddOffset@CDynamicAccessor@ATL@@SAKKK@Z 004e0c80 f i nafxcwd:occsite.obj
 0001:000dfcb0       ?GetColumnName@CDynamicAccessor@ATL@@QBEPAGK@Z 004e0cb0 f i nafxcwd:occsite.obj
 0001:000dfcf0       ?TranslateColumnNo@CDynamicAccessor@ATL@@QBE_NAAK@Z 004e0cf0 f i nafxcwd:occsite.obj
 0001:000dfdc0       ?GetColumnType@CDynamicAccessor@ATL@@QBE_NKPAG@Z 004e0dc0 f i nafxcwd:occsite.obj
 0001:000dfe00       ?GetValue@CDynamicAccessor@ATL@@QBEPAXK@Z 004e0e00 f i nafxcwd:occsite.obj
 0001:000dfe40       ?GetStatus@CDynamicAccessor@ATL@@QBE_NKPAK@Z 004e0e40 f i nafxcwd:occsite.obj
 0001:000dfee0       ?_GetDataPtr@CDynamicAccessor@ATL@@QBEPAXK@Z 004e0ee0 f i nafxcwd:occsite.obj
 0001:000dff10       ?SetData@CRowset@ATL@@QBEJXZ 004e0f10 f i nafxcwd:occsite.obj
 0001:000dffb0       ?SetData@CRowset@ATL@@QBEJH@Z 004e0fb0 f i nafxcwd:occsite.obj
 0001:000e0050       ??0CManualAccessor@ATL@@QAE@XZ 004e1050 f i nafxcwd:occsite.obj
 0001:000e0090       ??1CManualAccessor@ATL@@QAE@XZ 004e1090 f i nafxcwd:occsite.obj
 0001:000e00d0       ?CreateAccessor@CManualAccessor@ATL@@QAEJHPAXK@Z 004e10d0 f i nafxcwd:occsite.obj
 0001:000e01a0       ?AddBindEntry@CManualAccessor@ATL@@QAEXKGKPAX00@Z 004e11a0 f i nafxcwd:occsite.obj
 0001:000e0270       ?BindColumns@CManualAccessor@ATL@@QAEJPAUIUnknown@@@Z 004e1270 f i nafxcwd:occsite.obj
 0001:000e03a0       ??0AFX_EVENT@@QAE@H@Z      004e13a0 f i nafxcwd:occsite.obj
 0001:000e0400       ??0?$CComPtr@UIAccessor@@@ATL@@QAE@XZ 004e1400 f i nafxcwd:occsite.obj
 0001:000e0420       ??1?$CComPtr@UIAccessor@@@ATL@@QAE@XZ 004e1420 f i nafxcwd:occsite.obj
 0001:000e0450       ??B?$CComPtr@UIAccessor@@@ATL@@QBEPAUIAccessor@@XZ 004e1450 f i nafxcwd:occsite.obj
 0001:000e0460       ??I?$CComPtr@UIAccessor@@@ATL@@QAEPAPAUIAccessor@@XZ 004e1460 f i nafxcwd:occsite.obj
 0001:000e04b0       ??C?$CComPtr@UIAccessor@@@ATL@@QBEPAV?$_NoAddRefReleaseOnCComPtr@UIAccessor@@@1@XZ 004e14b0 f i nafxcwd:occsite.obj
 0001:000e0500       ??0?$CComPtr@UIRowset@@@ATL@@QAE@XZ 004e1500 f i nafxcwd:occsite.obj
 0001:000e0520       ??1?$CComPtr@UIRowset@@@ATL@@QAE@XZ 004e1520 f i nafxcwd:occsite.obj
 0001:000e0550       ?Release@?$CComPtr@UIRowset@@@ATL@@QAEXXZ 004e1550 f i nafxcwd:occsite.obj
 0001:000e0580       ??B?$CComPtr@UIRowset@@@ATL@@QBEPAUIRowset@@XZ 004e1580 f i nafxcwd:occsite.obj
 0001:000e0590       ??C?$CComPtr@UIRowset@@@ATL@@QBEPAV?$_NoAddRefReleaseOnCComPtr@UIRowset@@@1@XZ 004e1590 f i nafxcwd:occsite.obj
 0001:000e05e0       ??4?$CComPtr@UIRowset@@@ATL@@QAEPAUIRowset@@PAU2@@Z 004e15e0 f i nafxcwd:occsite.obj
 0001:000e0600       ?AtlComPtrAssign@ATL@@YGPAUIUnknown@@PAPAU2@PAU2@@Z 004e1600 f i nafxcwd:occsite.obj
 0001:000e0640       ??0?$CComPtr@UIRowsetChange@@@ATL@@QAE@XZ 004e1640 f i nafxcwd:occsite.obj
 0001:000e0660       ??1?$CComPtr@UIRowsetChange@@@ATL@@QAE@XZ 004e1660 f i nafxcwd:occsite.obj
 0001:000e0690       ?Release@?$CComPtr@UIRowsetChange@@@ATL@@QAEXXZ 004e1690 f i nafxcwd:occsite.obj
 0001:000e06c0       ??B?$CComPtr@UIRowsetChange@@@ATL@@QBEPAUIRowsetChange@@XZ 004e16c0 f i nafxcwd:occsite.obj
 0001:000e06d0       ??I?$CComPtr@UIRowsetChange@@@ATL@@QAEPAPAUIRowsetChange@@XZ 004e16d0 f i nafxcwd:occsite.obj
 0001:000e0720       ??C?$CComPtr@UIRowsetChange@@@ATL@@QBEPAV?$_NoAddRefReleaseOnCComPtr@UIRowsetChange@@@1@XZ 004e1720 f i nafxcwd:occsite.obj
 0001:000e0770       ??0?$CComPtr@UIColumnsInfo@@@ATL@@QAE@XZ 004e1770 f i nafxcwd:occsite.obj
 0001:000e0790       ??1?$CComPtr@UIColumnsInfo@@@ATL@@QAE@XZ 004e1790 f i nafxcwd:occsite.obj
 0001:000e07c0       ??I?$CComPtr@UIColumnsInfo@@@ATL@@QAEPAPAUIColumnsInfo@@XZ 004e17c0 f i nafxcwd:occsite.obj
 0001:000e0810       ??C?$CComPtr@UIColumnsInfo@@@ATL@@QBEPAV?$_NoAddRefReleaseOnCComPtr@UIColumnsInfo@@@1@XZ 004e1810 f i nafxcwd:occsite.obj
 0001:000e0860       ?QueryInterface@IUnknown@@QAGJPAPAUIRowsetChange@@@Z 004e1860 f i nafxcwd:occsite.obj
 0001:000e0880       ?QueryInterface@IUnknown@@QAGJPAPAUIColumnsInfo@@@Z 004e1880 f i nafxcwd:occsite.obj
 0001:000e08a0       ?QueryInterface@IUnknown@@QAGJPAPAUIAccessor@@@Z 004e18a0 f i nafxcwd:occsite.obj
 0001:000e08c0       ?GetValue@CDynamicAccessor@ATL@@QBE_NKPAUtagDB_NUMERIC@@@Z 004e18c0 f i nafxcwd:occsite.obj
 0001:000e0900       ?GetValue@CDynamicAccessor@ATL@@QBE_NKPAUtagDBDATE@@@Z 004e1900 f i nafxcwd:occsite.obj
 0001:000e0940       ?GetValue@CDynamicAccessor@ATL@@QBE_NKPAUtagDBTIME@@@Z 004e1940 f i nafxcwd:occsite.obj
 0001:000e0980       ?GetValue@CDynamicAccessor@ATL@@QBE_NKPAUtagDBTIMESTAMP@@@Z 004e1980 f i nafxcwd:occsite.obj
 0001:000e09c0       ?SetValue@CDynamicAccessor@ATL@@QAE_NKABF@Z 004e19c0 f i nafxcwd:occsite.obj
 0001:000e0a00       ?SetValue@CDynamicAccessor@ATL@@QAE_NKABJ@Z 004e1a00 f i nafxcwd:occsite.obj
 0001:000e0a40       ?SetValue@CDynamicAccessor@ATL@@QAE_NKABM@Z 004e1a40 f i nafxcwd:occsite.obj
 0001:000e0a80       ?SetValue@CDynamicAccessor@ATL@@QAE_NKABN@Z 004e1a80 f i nafxcwd:occsite.obj
 0001:000e0ac0       ?SetValue@CDynamicAccessor@ATL@@QAE_NKABUtagDEC@@@Z 004e1ac0 f i nafxcwd:occsite.obj
 0001:000e0b00       ?SetValue@CDynamicAccessor@ATL@@QAE_NKABE@Z 004e1b00 f i nafxcwd:occsite.obj
 0001:000e0b40       ?SetValue@CDynamicAccessor@ATL@@QAE_NKABC@Z 004e1b40 f i nafxcwd:occsite.obj
 0001:000e0b80       ?SetValue@CDynamicAccessor@ATL@@QAE_NKABG@Z 004e1b80 f i nafxcwd:occsite.obj
 0001:000e0bc0       ?SetValue@CDynamicAccessor@ATL@@QAE_NKABK@Z 004e1bc0 f i nafxcwd:occsite.obj
 0001:000e0c00       ?SetValue@CDynamicAccessor@ATL@@QAE_NKABUtagDBTIMESTAMP@@@Z 004e1c00 f i nafxcwd:occsite.obj
 0001:000e0c40       ?_GetValue@CDynamicAccessor@ATL@@QBEXKPAUtagDB_NUMERIC@@@Z 004e1c40 f i nafxcwd:occsite.obj
 0001:000e0d00       ?_GetValue@CDynamicAccessor@ATL@@QBEXKPAUtagDBDATE@@@Z 004e1d00 f i nafxcwd:occsite.obj
 0001:000e0da0       ?_GetValue@CDynamicAccessor@ATL@@QBEXKPAUtagDBTIME@@@Z 004e1da0 f i nafxcwd:occsite.obj
 0001:000e0e40       ?_GetValue@CDynamicAccessor@ATL@@QBEXKPAUtagDBTIMESTAMP@@@Z 004e1e40 f i nafxcwd:occsite.obj
 0001:000e0ef0       ?_SetValue@CDynamicAccessor@ATL@@QAEXKABF@Z 004e1ef0 f i nafxcwd:occsite.obj
 0001:000e0f60       ?_SetValue@CDynamicAccessor@ATL@@QAEXKABJ@Z 004e1f60 f i nafxcwd:occsite.obj
 0001:000e0fd0       ?_SetValue@CDynamicAccessor@ATL@@QAEXKABM@Z 004e1fd0 f i nafxcwd:occsite.obj
 0001:000e1040       ?_SetValue@CDynamicAccessor@ATL@@QAEXKABN@Z 004e2040 f i nafxcwd:occsite.obj
 0001:000e10b0       ?_SetValue@CDynamicAccessor@ATL@@QAEXKABUtagDEC@@@Z 004e20b0 f i nafxcwd:occsite.obj
 0001:000e1150       ?_SetValue@CDynamicAccessor@ATL@@QAEXKABE@Z 004e2150 f i nafxcwd:occsite.obj
 0001:000e11c0       ?_SetValue@CDynamicAccessor@ATL@@QAEXKABC@Z 004e21c0 f i nafxcwd:occsite.obj
 0001:000e1230       ?_SetValue@CDynamicAccessor@ATL@@QAEXKABG@Z 004e2230 f i nafxcwd:occsite.obj
 0001:000e12a0       ?_SetValue@CDynamicAccessor@ATL@@QAEXKABK@Z 004e22a0 f i nafxcwd:occsite.obj
 0001:000e1310       ?_SetValue@CDynamicAccessor@ATL@@QAEXKABUtagDBTIMESTAMP@@@Z 004e2310 f i nafxcwd:occsite.obj
 0001:000e13b0       ?_AfxGetDlgCode@@YGKPAVCWnd@@PAUtagMSG@@@Z 004e23b0 f   nafxcwd:occdlg.obj
 0001:000e13fe       ?_AfxDlgSetFocus@@YGXPAVCWnd@@@Z 004e23fe f   nafxcwd:occdlg.obj
 0001:000e1430       ?_AfxGetChildControl@@YGPAVCWnd@@PAV1@0@Z 004e2430 f   nafxcwd:occdlg.obj
 0001:000e14ed       ?_AfxNextControl@@YGPAVCWnd@@PAV1@0I@Z 004e24ed f   nafxcwd:occdlg.obj
 0001:000e1607       ?IsMatchingMnemonic@COccManager@@SAHPAVCWnd@@PAUtagMSG@@@Z 004e2607 f   nafxcwd:occdlg.obj
 0001:000e163e       ?_AfxFindNextMnem@@YGPAVCWnd@@PAV1@0PAUtagMSG@@@Z 004e263e f   nafxcwd:occdlg.obj
 0001:000e170a       ?IsLabelControl@COccManager@@SAHPAVCWnd@@@Z 004e270a f   nafxcwd:occdlg.obj
 0001:000e174c       ?_AfxGetNextMnem@@YGPAVCWnd@@PAV1@0PAUtagMSG@@@Z 004e274c f   nafxcwd:occdlg.obj
 0001:000e17f3       ?UIActivateControl@COccManager@@KAXPAVCWnd@@@Z 004e27f3 f   nafxcwd:occdlg.obj
 0001:000e1878       ?UIDeactivateIfNecessary@COccManager@@KAXPAVCWnd@@0@Z 004e2878 f   nafxcwd:occdlg.obj
 0001:000e1941       ?_AfxFindDlgItem@@YGPAVCWnd@@PAV1@K@Z 004e2941 f   nafxcwd:occdlg.obj
 0001:000e19bd       ?SetDefaultButton@COccManager@@SAXPAVCWnd@@H@Z 004e29bd f   nafxcwd:occdlg.obj
 0001:000e1a1c       ?GetDefBtnCode@COccManager@@SAKPAVCWnd@@@Z 004e2a1c f   nafxcwd:occdlg.obj
 0001:000e1a4f       ?_AfxRemoveDefaultButton@@YGXPAVCWnd@@0@Z 004e2a4f f   nafxcwd:occdlg.obj
 0001:000e1ad5       ?_AfxOriginalDefButton@@YGHPAVCWnd@@@Z 004e2ad5 f   nafxcwd:occdlg.obj
 0001:000e1b24       ?_AfxCheckDefPushButton@@YGXPAVCWnd@@00@Z 004e2b24 f   nafxcwd:occdlg.obj
 0001:000e1c7a       ?IsDialogMessageA@COccManager@@UAEHPAVCWnd@@PAUtagMSG@@@Z 004e2c7a f   nafxcwd:occdlg.obj
 0001:000e21d0       ?AtlW2AHelper@@YGPADPADPBGH@Z 004e31d0 f i nafxcwd:olemisc.obj
 0001:000e21f0       ?AtlW2AHelper@@YGPADPADPBGHI@Z 004e31f0 f i nafxcwd:olemisc.obj
 0001:000e2280       ?ocslen@@YAIPBG@Z          004e3280 f i nafxcwd:olemisc.obj
 0001:000e2290       ?ocscpy@@YAPAGPAGPBG@Z     004e3290 f i nafxcwd:olemisc.obj
 0001:000e22c0       ?AtlDevModeA2W@@YAPAU_devicemodeW@@PAU1@PAU_devicemodeA@@@Z 004e32c0 f i nafxcwd:olemisc.obj
 0001:000e23d0       ?AtlDevModeW2A@@YGPAU_devicemodeA@@PAU1@PAU_devicemodeW@@@Z 004e33d0 f i nafxcwd:olemisc.obj
 0001:000e24e0       ??9@YAHABU_GUID@@0@Z       004e34e0 f i nafxcwd:oledisp1.obj
 0001:000e2500       ?AfxCheckError@@YGXJ@Z     004e3500 f   nafxcwd:olevar.obj
 0001:000e2526       ?_AfxCompareSafeArrays@@YGHPAUtagSAFEARRAY@@0@Z 004e3526 f   nafxcwd:olevar.obj
 0001:000e2972       ?_AfxCreateOneDimArray@@YGXAAUtagVARIANT@@K@Z 004e3972 f   nafxcwd:olevar.obj
 0001:000e2aa4       ?_AfxCopyBinaryData@@YGXPAUtagSAFEARRAY@@PBXK@Z 004e3aa4 f   nafxcwd:olevar.obj
 0001:000e2ae6       ??0COleVariant@@QAE@ABUtagVARIANT@@@Z 004e3ae6 f   nafxcwd:olevar.obj
 0001:000e2b13       ??0COleVariant@@QAE@PBUtagVARIANT@@@Z 004e3b13 f   nafxcwd:olevar.obj
 0001:000e2b40       ??0COleVariant@@QAE@ABV0@@Z 004e3b40 f   nafxcwd:olevar.obj
 0001:000e2b6d       ??0COleVariant@@QAE@PBDG@Z 004e3b6d f   nafxcwd:olevar.obj
 0001:000e2c8f       ?SetString@COleVariant@@QAEXPBDG@Z 004e3c8f f   nafxcwd:olevar.obj
 0001:000e2db6       ??0COleVariant@@QAE@FG@Z   004e3db6 f   nafxcwd:olevar.obj
 0001:000e2e47       ??0COleVariant@@QAE@JG@Z   004e3e47 f   nafxcwd:olevar.obj
 0001:000e2f04       ?_ClearCompat@COleVariant@@QAEXXZ 004e3f04 f   nafxcwd:olevar.obj
 0001:000e2f17       ?ChangeType@COleVariant@@QAEXGPAUtagVARIANT@@@Z 004e3f17 f   nafxcwd:olevar.obj
 0001:000e2f68       ?Attach@COleVariant@@QAEXAAUtagVARIANT@@@Z 004e3f68 f   nafxcwd:olevar.obj
 0001:000e2f97       ?Detach@COleVariant@@QAE?AUtagVARIANT@@XZ 004e3f97 f   nafxcwd:olevar.obj
 0001:000e2fe5       ??8COleVariant@@QBEHABUtagVARIANT@@@Z 004e3fe5 f   nafxcwd:olevar.obj
 0001:000e32a2       ??4COleVariant@@QAEABV0@ABUtagVARIANT@@@Z 004e42a2 f   nafxcwd:olevar.obj
 0001:000e32c6       ??4COleVariant@@QAEABV0@PBUtagVARIANT@@@Z 004e42c6 f   nafxcwd:olevar.obj
 0001:000e32ea       ??4COleVariant@@QAEABV0@ABV0@@Z 004e42ea f   nafxcwd:olevar.obj
 0001:000e330e       ??4COleVariant@@QAEABV0@QBD@Z 004e430e f   nafxcwd:olevar.obj
 0001:000e33ca       ??4COleVariant@@QAEABV0@ABVCString@@@Z 004e43ca f   nafxcwd:olevar.obj
 0001:000e3479       ??4COleVariant@@QAEABV0@E@Z 004e4479 f   nafxcwd:olevar.obj
 0001:000e34af       ??4COleVariant@@QAEABV0@F@Z 004e44af f   nafxcwd:olevar.obj
 0001:000e351f       ??4COleVariant@@QAEABV0@J@Z 004e451f f   nafxcwd:olevar.obj
 0001:000e35a1       ??4COleVariant@@QAEABV0@ABVCOleCurrency@@@Z 004e45a1 f   nafxcwd:olevar.obj
 0001:000e35df       ??4COleVariant@@QAEABV0@M@Z 004e45df f   nafxcwd:olevar.obj
 0001:000e3615       ??4COleVariant@@QAEABV0@N@Z 004e4615 f   nafxcwd:olevar.obj
 0001:000e3651       ??4COleVariant@@QAEABV0@ABVCOleDateTime@@@Z 004e4651 f   nafxcwd:olevar.obj
 0001:000e368f       ??4COleVariant@@QAEABV0@ABVCByteArray@@@Z 004e468f f   nafxcwd:olevar.obj
 0001:000e36d2       ??4COleVariant@@QAEABV0@ABVCLongBinary@@@Z 004e46d2 f   nafxcwd:olevar.obj
 0001:000e3728       ?AfxVariantInit@@YGXPAUtagVARIANT@@@Z 004e4728 f   nafxcwd:olevar.obj
 0001:000e373f       ??6@YGAAVCDumpContext@@AAV0@VCOleVariant@@@Z 004e473f f   nafxcwd:olevar.obj
 0001:000e3b3a       ??6@YGAAVCArchive@@AAV0@VCOleVariant@@@Z 004e4b3a f   nafxcwd:olevar.obj
 0001:000e3f9e       ??5@YGAAVCArchive@@AAV0@AAVCOleVariant@@@Z 004e4f9e f   nafxcwd:olevar.obj
 0001:000e4393       ?ConstructElements@@YGXPAVCOleVariant@@H@Z 004e5393 f   nafxcwd:olevar.obj
 0001:000e4456       ?DestructElements@@YGXPAVCOleVariant@@H@Z 004e5456 f   nafxcwd:olevar.obj
 0001:000e44c0       ?CopyElements@@YGXPAVCOleVariant@@PBV1@H@Z 004e54c0 f   nafxcwd:olevar.obj
 0001:000e456b       ?SerializeElements@@YGXAAVCArchive@@PAVCOleVariant@@H@Z 004e556b f   nafxcwd:olevar.obj
 0001:000e4625       ?DumpElements@@YGXAAVCDumpContext@@PBVCOleVariant@@H@Z 004e5625 f   nafxcwd:olevar.obj
 0001:000e466b       ?HashKey@@YGIABUtagVARIANT@@@Z 004e566b f   nafxcwd:olevar.obj
 0001:000e4796       ??0COleCurrency@@QAE@JJ@Z  004e5796 f   nafxcwd:olevar.obj
 0001:000e47c0       ??4COleCurrency@@QAEABV0@TtagCY@@@Z 004e57c0 f   nafxcwd:olevar.obj
 0001:000e47e8       ??4COleCurrency@@QAEABV0@ABV0@@Z 004e57e8 f   nafxcwd:olevar.obj
 0001:000e4814       ??4COleCurrency@@QAEABV0@ABUtagVARIANT@@@Z 004e5814 f   nafxcwd:olevar.obj
 0001:000e492c       ??MCOleCurrency@@QBEHABV0@@Z 004e592c f   nafxcwd:olevar.obj
 0001:000e49c5       ??OCOleCurrency@@QBEHABV0@@Z 004e59c5 f   nafxcwd:olevar.obj
 0001:000e4a5e       ??NCOleCurrency@@QBEHABV0@@Z 004e5a5e f   nafxcwd:olevar.obj
 0001:000e4af6       ??PCOleCurrency@@QBEHABV0@@Z 004e5af6 f   nafxcwd:olevar.obj
 0001:000e4b8e       ??HCOleCurrency@@QBE?AV0@ABV0@@Z 004e5b8e f   nafxcwd:olevar.obj
 0001:000e4c82       ??GCOleCurrency@@QBE?AV0@ABV0@@Z 004e5c82 f   nafxcwd:olevar.obj
 0001:000e4d76       ??GCOleCurrency@@QBE?AV0@XZ 004e5d76 f   nafxcwd:olevar.obj
 0001:000e4e05       ??DCOleCurrency@@QBE?AV0@J@Z 004e5e05 f   nafxcwd:olevar.obj
 0001:000e5158       ??KCOleCurrency@@QBE?AV0@J@Z 004e6158 f   nafxcwd:olevar.obj
 0001:000e54c0       ?SetCurrency@COleCurrency@@QAEXJJ@Z 004e64c0 f   nafxcwd:olevar.obj
 0001:000e5570       ?ParseCurrency@COleCurrency@@QAEHPBDKK@Z 004e6570 f   nafxcwd:olevar.obj
 0001:000e5716       ?Format@COleCurrency@@QBE?AVCString@@KK@Z 004e6716 f   nafxcwd:olevar.obj
 0001:000e58c3       ??6@YGAAVCDumpContext@@AAV0@VCOleCurrency@@@Z 004e68c3 f   nafxcwd:olevar.obj
 0001:000e595f       ??6@YGAAVCArchive@@AAV0@VCOleCurrency@@@Z 004e695f f   nafxcwd:olevar.obj
 0001:000e598a       ??5@YGAAVCArchive@@AAV0@AAVCOleCurrency@@@Z 004e698a f   nafxcwd:olevar.obj
 0001:000e59bb       ?_AfxOleDateFromTm@@YGHGGGGGGAAN@Z 004e69bb f   nafxcwd:olevar.obj
 0001:000e5bd6       ?_AfxTmFromOleDate@@YGHNAAUtm@@@Z 004e6bd6 f   nafxcwd:olevar.obj
 0001:000e5ec2       ?_AfxTmConvertToStandardFormat@@YGXAAUtm@@@Z 004e6ec2 f   nafxcwd:olevar.obj
 0001:000e5f08       ?_AfxDoubleFromDate@@YGNN@Z 004e6f08 f   nafxcwd:olevar.obj
 0001:000e5f45       ?_AfxDateFromDouble@@YGNN@Z 004e6f45 f   nafxcwd:olevar.obj
 0001:000e5f7f       ?GetTickCount@COleDateTime@@SG?AV1@XZ 004e6f7f f   nafxcwd:olevar.obj
 0001:000e5faa       ?GetAsSystemTime@COleDateTime@@QBEHAAU_SYSTEMTIME@@@Z 004e6faa f   nafxcwd:olevar.obj
 0001:000e6044       ?GetYear@COleDateTime@@QBEHXZ 004e7044 f   nafxcwd:olevar.obj
 0001:000e607c       ?GetMonth@COleDateTime@@QBEHXZ 004e707c f   nafxcwd:olevar.obj
 0001:000e60b4       ?GetDay@COleDateTime@@QBEHXZ 004e70b4 f   nafxcwd:olevar.obj
 0001:000e60ec       ?GetHour@COleDateTime@@QBEHXZ 004e70ec f   nafxcwd:olevar.obj
 0001:000e6124       ?GetMinute@COleDateTime@@QBEHXZ 004e7124 f   nafxcwd:olevar.obj
 0001:000e615c       ?GetSecond@COleDateTime@@QBEHXZ 004e715c f   nafxcwd:olevar.obj
 0001:000e6194       ?GetDayOfWeek@COleDateTime@@QBEHXZ 004e7194 f   nafxcwd:olevar.obj
 0001:000e61cc       ?GetDayOfYear@COleDateTime@@QBEHXZ 004e71cc f   nafxcwd:olevar.obj
 0001:000e6204       ??4COleDateTime@@QAEABV0@ABUtagVARIANT@@@Z 004e7204 f   nafxcwd:olevar.obj
 0001:000e6319       ??4COleDateTime@@QAEABV0@N@Z 004e7319 f   nafxcwd:olevar.obj
 0001:000e6341       ??4COleDateTime@@QAEABV0@ABJ@Z 004e7341 f   nafxcwd:olevar.obj
 0001:000e63e7       ??4COleDateTime@@QAEABV0@ABU_SYSTEMTIME@@@Z 004e73e7 f   nafxcwd:olevar.obj
 0001:000e643a       ??4COleDateTime@@QAEABV0@ABU_FILETIME@@@Z 004e743a f   nafxcwd:olevar.obj
 0001:000e64db       ??MCOleDateTime@@QBEHABV0@@Z 004e74db f   nafxcwd:olevar.obj
 0001:000e657a       ??OCOleDateTime@@QBEHABV0@@Z 004e757a f   nafxcwd:olevar.obj
 0001:000e6619       ??NCOleDateTime@@QBEHABV0@@Z 004e7619 f   nafxcwd:olevar.obj
 0001:000e66b8       ??PCOleDateTime@@QBEHABV0@@Z 004e76b8 f   nafxcwd:olevar.obj
 0001:000e6757       ??HCOleDateTime@@QBE?AV0@ABVCOleDateTimeSpan@@@Z 004e7757 f   nafxcwd:olevar.obj
 0001:000e681c       ??GCOleDateTime@@QBE?AV0@ABVCOleDateTimeSpan@@@Z 004e781c f   nafxcwd:olevar.obj
 0001:000e68e1       ??GCOleDateTime@@QBE?AVCOleDateTimeSpan@@ABV0@@Z 004e78e1 f   nafxcwd:olevar.obj
 0001:000e6997       ?SetDateTime@COleDateTime@@QAEHHHHHHH@Z 004e7997 f   nafxcwd:olevar.obj
 0001:000e69dc       ?ParseDateTime@COleDateTime@@QAEHPBDKK@Z 004e79dc f   nafxcwd:olevar.obj
 0001:000e6b7c       ?Format@COleDateTime@@QBE?AVCString@@KK@Z 004e7b7c f   nafxcwd:olevar.obj
 0001:000e6d29       ?Format@COleDateTime@@QBE?AVCString@@PBD@Z 004e7d29 f   nafxcwd:olevar.obj
 0001:000e6e82       ?Format@COleDateTime@@QBE?AVCString@@I@Z 004e7e82 f   nafxcwd:olevar.obj
 0001:000e6f22       ?CheckRange@COleDateTime@@IAEXXZ 004e7f22 f   nafxcwd:olevar.obj
 0001:000e6f5b       ??6@YGAAVCDumpContext@@AAV0@VCOleDateTime@@@Z 004e7f5b f   nafxcwd:olevar.obj
 0001:000e6ff7       ??6@YGAAVCArchive@@AAV0@VCOleDateTime@@@Z 004e7ff7 f   nafxcwd:olevar.obj
 0001:000e701a       ??5@YGAAVCArchive@@AAV0@AAVCOleDateTime@@@Z 004e801a f   nafxcwd:olevar.obj
 0001:000e703c       ?GetHours@COleDateTimeSpan@@QBEJXZ 004e803c f   nafxcwd:olevar.obj
 0001:000e70b4       ?GetMinutes@COleDateTimeSpan@@QBEJXZ 004e80b4 f   nafxcwd:olevar.obj
 0001:000e7133       ?GetSeconds@COleDateTimeSpan@@QBEJXZ 004e8133 f   nafxcwd:olevar.obj
 0001:000e71b8       ??4COleDateTimeSpan@@QAEABV0@N@Z 004e81b8 f   nafxcwd:olevar.obj
 0001:000e71e0       ??4COleDateTimeSpan@@QAEABV0@ABV0@@Z 004e81e0 f   nafxcwd:olevar.obj
 0001:000e720c       ??HCOleDateTimeSpan@@QBE?AV0@ABV0@@Z 004e820c f   nafxcwd:olevar.obj
 0001:000e72b1       ??GCOleDateTimeSpan@@QBE?AV0@ABV0@@Z 004e82b1 f   nafxcwd:olevar.obj
 0001:000e7356       ?SetDateTimeSpan@COleDateTimeSpan@@QAEXJHHH@Z 004e8356 f   nafxcwd:olevar.obj
 0001:000e7396       ?Format@COleDateTimeSpan@@QBE?AVCString@@PBD@Z 004e8396 f   nafxcwd:olevar.obj
 0001:000e7621       ?Format@COleDateTimeSpan@@QBE?AVCString@@I@Z 004e8621 f   nafxcwd:olevar.obj
 0001:000e76c1       ?CheckRange@COleDateTimeSpan@@QAEXXZ 004e86c1 f   nafxcwd:olevar.obj
 0001:000e76fa       ??6@YGAAVCDumpContext@@AAV0@VCOleDateTimeSpan@@@Z 004e86fa f   nafxcwd:olevar.obj
 0001:000e779a       ??6@YGAAVCArchive@@AAV0@VCOleDateTimeSpan@@@Z 004e879a f   nafxcwd:olevar.obj
 0001:000e77bd       ??5@YGAAVCArchive@@AAV0@AAVCOleDateTimeSpan@@@Z 004e87bd f   nafxcwd:olevar.obj
 0001:000e77df       ??0COleSafeArray@@QAE@ABUtagSAFEARRAY@@G@Z 004e87df f   nafxcwd:olevar.obj
 0001:000e783d       ??0COleSafeArray@@QAE@PBUtagSAFEARRAY@@G@Z 004e883d f   nafxcwd:olevar.obj
 0001:000e789b       ??0COleSafeArray@@QAE@ABV0@@Z 004e889b f   nafxcwd:olevar.obj
 0001:000e78dc       ??0COleSafeArray@@QAE@ABUtagVARIANT@@@Z 004e88dc f   nafxcwd:olevar.obj
 0001:000e791d       ??0COleSafeArray@@QAE@PBUtagVARIANT@@@Z 004e891d f   nafxcwd:olevar.obj
 0001:000e795e       ?Attach@COleSafeArray@@QAEXAAUtagVARIANT@@@Z 004e895e f   nafxcwd:olevar.obj
 0001:000e79bf       ?Detach@COleSafeArray@@QAE?AUtagVARIANT@@XZ 004e89bf f   nafxcwd:olevar.obj
 0001:000e7a0d       ??4COleSafeArray@@QAEAAV0@ABV0@@Z 004e8a0d f   nafxcwd:olevar.obj
 0001:000e7a63       ??4COleSafeArray@@QAEAAV0@ABUtagVARIANT@@@Z 004e8a63 f   nafxcwd:olevar.obj
 0001:000e7ab9       ??4COleSafeArray@@QAEAAV0@PBUtagVARIANT@@@Z 004e8ab9 f   nafxcwd:olevar.obj
 0001:000e7b0f       ??4COleSafeArray@@QAEAAV0@ABVCOleVariant@@@Z 004e8b0f f   nafxcwd:olevar.obj
 0001:000e7b65       ??8COleSafeArray@@QBEHABUtagSAFEARRAY@@@Z 004e8b65 f   nafxcwd:olevar.obj
 0001:000e7b82       ??8COleSafeArray@@QBEHPBUtagSAFEARRAY@@@Z 004e8b82 f   nafxcwd:olevar.obj
 0001:000e7b9f       ??8COleSafeArray@@QBEHABV0@@Z 004e8b9f f   nafxcwd:olevar.obj
 0001:000e7bd7       ??8COleSafeArray@@QBEHABUtagVARIANT@@@Z 004e8bd7 f   nafxcwd:olevar.obj
 0001:000e7c0f       ??8COleSafeArray@@QBEHPBUtagVARIANT@@@Z 004e8c0f f   nafxcwd:olevar.obj
 0001:000e7c47       ??8COleSafeArray@@QBEHABVCOleVariant@@@Z 004e8c47 f   nafxcwd:olevar.obj
 0001:000e7c7f       ?_AfxDumpSafeArrayElement@@YAXAAVCDumpContext@@AAVCOleSafeArray@@PAJ@Z 004e8c7f f   nafxcwd:olevar.obj
 0001:000e7f3a       ??6@YGAAVCDumpContext@@AAV0@AAVCOleSafeArray@@@Z 004e8f3a f   nafxcwd:olevar.obj
 0001:000e81ac       ?CreateOneDim@COleSafeArray@@QAEXGKPBXJ@Z 004e91ac f   nafxcwd:olevar.obj
 0001:000e8237       ?GetOneDimSize@COleSafeArray@@QAEKXZ 004e9237 f   nafxcwd:olevar.obj
 0001:000e8296       ?ResizeOneDim@COleSafeArray@@QAEXK@Z 004e9296 f   nafxcwd:olevar.obj
 0001:000e82eb       ?Create@COleSafeArray@@QAEXGKPAK@Z 004e92eb f   nafxcwd:olevar.obj
 0001:000e8414       ?Create@COleSafeArray@@QAEXGKPAUtagSAFEARRAYBOUND@@@Z 004e9414 f   nafxcwd:olevar.obj
 0001:000e8592       ?AccessData@COleSafeArray@@QAEXPAPAX@Z 004e9592 f   nafxcwd:olevar.obj
 0001:000e85b6       ?UnaccessData@COleSafeArray@@QAEXXZ 004e95b6 f   nafxcwd:olevar.obj
 0001:000e85d4       ?AllocData@COleSafeArray@@QAEXXZ 004e95d4 f   nafxcwd:olevar.obj
 0001:000e85f2       ?AllocDescriptor@COleSafeArray@@QAEXK@Z 004e95f2 f   nafxcwd:olevar.obj
 0001:000e8616       ?Copy@COleSafeArray@@QAEXPAPAUtagSAFEARRAY@@@Z 004e9616 f   nafxcwd:olevar.obj
 0001:000e863a       ?GetLBound@COleSafeArray@@QAEXKPAJ@Z 004e963a f   nafxcwd:olevar.obj
 0001:000e8662       ?GetUBound@COleSafeArray@@QAEXKPAJ@Z 004e9662 f   nafxcwd:olevar.obj
 0001:000e868a       ?GetElement@COleSafeArray@@QAEXPAJPAX@Z 004e968a f   nafxcwd:olevar.obj
 0001:000e86b2       ?PtrOfIndex@COleSafeArray@@QAEXPAJPAPAX@Z 004e96b2 f   nafxcwd:olevar.obj
 0001:000e86da       ?PutElement@COleSafeArray@@QAEXPAJPAX@Z 004e96da f   nafxcwd:olevar.obj
 0001:000e8702       ?Redim@COleSafeArray@@QAEXPAUtagSAFEARRAYBOUND@@@Z 004e9702 f   nafxcwd:olevar.obj
 0001:000e8726       ?Lock@COleSafeArray@@QAEXXZ 004e9726 f   nafxcwd:olevar.obj
 0001:000e8744       ?Unlock@COleSafeArray@@QAEXXZ 004e9744 f   nafxcwd:olevar.obj
 0001:000e8762       ?Destroy@COleSafeArray@@QAEXXZ 004e9762 f   nafxcwd:olevar.obj
 0001:000e8780       ?DestroyData@COleSafeArray@@QAEXXZ 004e9780 f   nafxcwd:olevar.obj
 0001:000e879e       ?DestroyDescriptor@COleSafeArray@@QAEXXZ 004e979e f   nafxcwd:olevar.obj
 0001:000e87bc       ?AfxSafeArrayInit@@YGXPAVCOleSafeArray@@@Z 004e97bc f   nafxcwd:olevar.obj
 0001:000e87d3       ?DDX_Text@@YGXPAVCDataExchange@@HAAVCOleDateTime@@@Z 004e97d3 f   nafxcwd:olevar.obj
 0001:000e88db       ?DDX_Text@@YGXPAVCDataExchange@@HAAVCOleCurrency@@@Z 004e98db f   nafxcwd:olevar.obj
 0001:000e89f0       ??_GCOleVariant@@QAEPAXI@Z 004e99f0 f i nafxcwd:olevar.obj
 0001:000e8a20       ?HashKey@@YGIK@Z           004e9a20 f i nafxcwd:olevar.obj
 0001:000e8a30       ?EnableTypeLib@CCmdTarget@@QAEXXZ 004e9a30 f   nafxcwd:oletyplb.obj
 0001:000e8a8a       ?GetTypeInfoOfGuid@CCmdTarget@@QAEJKABU_GUID@@PAPAUITypeInfo@@@Z 004e9a8a f   nafxcwd:oletyplb.obj
 0001:000e8c2e       ?AfxGetTypeLibCache@@YGPAVCTypeLibCache@@PBU_GUID@@@Z 004e9c2e f   nafxcwd:oletyplb.obj
 0001:000e8e31       ?Lock@CTypeLibCache@@QAEXXZ 004e9e31 f   nafxcwd:oletyplb.obj
 0001:000e8e85       ?Lookup@CTypeLibCache@@QAEHKPAPAUITypeLib@@@Z 004e9e85 f   nafxcwd:oletyplb.obj
 0001:000e8efe       ?Cache@CTypeLibCache@@QAEXKPAUITypeLib@@@Z 004e9efe f   nafxcwd:oletyplb.obj
 0001:000e8fb6       ?LookupTypeInfo@CTypeLibCache@@QAEHKABU_GUID@@PAPAUITypeInfo@@@Z 004e9fb6 f   nafxcwd:oletyplb.obj
 0001:000e907e       ?CacheTypeInfo@CTypeLibCache@@QAEXKABU_GUID@@PAUITypeInfo@@@Z 004ea07e f   nafxcwd:oletyplb.obj
 0001:000e9110       ??0CTypeLibCacheMap@@QAE@XZ 004ea110 f i nafxcwd:oletyplb.obj
 0001:000e9140       ??_GCTypeLibCacheMap@@UAEPAXI@Z 004ea140 f i nafxcwd:oletyplb.obj
 0001:000e9140       ??_ECTypeLibCacheMap@@UAEPAXI@Z 004ea140 f i nafxcwd:oletyplb.obj
 0001:000e9170       ??1CTypeLibCacheMap@@UAE@XZ 004ea170 f i nafxcwd:oletyplb.obj
 0001:000e9190       ??0COleControlLock@@QAE@ABU_GUID@@@Z 004ea190 f   nafxcwd:occlock.obj
 0001:000e9275       ??1COleControlLock@@UAE@XZ 004ea275 f   nafxcwd:occlock.obj
 0001:000e92c2       ?AfxOleLockControl@@YGHABU_GUID@@@Z 004ea2c2 f   nafxcwd:occlock.obj
 0001:000e940e       ?AfxOleLockControl@@YGHPBD@Z 004ea40e f   nafxcwd:occlock.obj
 0001:000e943d       ?AfxOleUnlockControl@@YGHPBD@Z 004ea43d f   nafxcwd:occlock.obj
 0001:000e946c       ?AfxOleUnlockControl@@YGHABU_GUID@@@Z 004ea46c f   nafxcwd:occlock.obj
 0001:000e951a       ?AfxOleUnlockAllControls@@YGXXZ 004ea51a f   nafxcwd:occlock.obj
 0001:000e95d0       ??_ECOleControlLock@@UAEPAXI@Z 004ea5d0 f i nafxcwd:occlock.obj
 0001:000e95d0       ??_GCOleControlLock@@UAEPAXI@Z 004ea5d0 f i nafxcwd:occlock.obj
 0001:000e9600       ?IsEmpty@CSimpleList@@QBEHXZ 004ea600 f i nafxcwd:occlock.obj
 0001:000e9620       ?AddHead@?$CTypedSimpleList@PAVCOleControlLock@@@@QAEXPAVCOleControlLock@@@Z 004ea620 f i nafxcwd:occlock.obj
 0001:000e9640       ?Remove@?$CTypedSimpleList@PAVCOleControlLock@@@@QAEHPAVCOleControlLock@@@Z 004ea640 f i nafxcwd:occlock.obj
 0001:000e9660       ??B?$CTypedSimpleList@PAVCOleControlLock@@@@QAEPAVCOleControlLock@@XZ 004ea660 f i nafxcwd:occlock.obj
 0001:000e9680       ?GetRuntimeClass@COleDocObjectItem@@UBEPAUCRuntimeClass@@XZ 004ea680 f   nafxcwd:oledoccl.obj
 0001:000e9690       ?GetInterfaceMap@COleDocObjectItem@@MBEPBUAFX_INTERFACEMAP@@XZ 004ea690 f   nafxcwd:oledoccl.obj
 0001:000e96a0       ??0COleDocObjectItem@@QAE@PAVCOleDocument@@@Z 004ea6a0 f   nafxcwd:oledoccl.obj
 0001:000e972b       ??1COleDocObjectItem@@UAE@XZ 004ea72b f   nafxcwd:oledoccl.obj
 0001:000e97bf       ?AddRef@XOleDocumentSite@COleDocObjectItem@@UAGKXZ 004ea7bf f   nafxcwd:oledoccl.obj
 0001:000e97dc       ?Release@XOleDocumentSite@COleDocObjectItem@@UAGKXZ 004ea7dc f   nafxcwd:oledoccl.obj
 0001:000e97f9       ?QueryInterface@XOleDocumentSite@COleDocObjectItem@@UAGJABU_GUID@@PAPAX@Z 004ea7f9 f   nafxcwd:oledoccl.obj
 0001:000e981e       ?ActivateMe@XOleDocumentSite@COleDocObjectItem@@UAGJPAUIOleDocumentView@@@Z 004ea81e f   nafxcwd:oledoccl.obj
 0001:000e9a1a       ?ActivateAndShow@COleDocObjectItem@@IAEXXZ 004eaa1a f   nafxcwd:oledoccl.obj
 0001:000e9a74       ?OnGetItemPosition@COleDocObjectItem@@MAEXAAVCRect@@@Z 004eaa74 f   nafxcwd:oledoccl.obj
 0001:000e9aea       ?GetActiveView@COleDocObjectItem@@QBEPAUIOleDocumentView@@XZ 004eaaea f   nafxcwd:oledoccl.obj
 0001:000e9afb       ?Release@COleDocObjectItem@@UAEXW4tagOLECLOSE@@@Z 004eaafb f   nafxcwd:oledoccl.obj
 0001:000e9b73       ?ExecCommand@COleDocObjectItem@@QAEJKKPBU_GUID@@@Z 004eab73 f   nafxcwd:oledoccl.obj
 0001:000e9be4       ?SupportsIPrint@COleDocObjectItem@@IAEHXZ 004eabe4 f   nafxcwd:oledoccl.obj
 0001:000e9c73       ?GetPageCount@COleDocObjectItem@@QAEHPAJ0@Z 004eac73 f   nafxcwd:oledoccl.obj
 0001:000e9cda       ?GetHelpMenu@COleDocObjectItem@@MAEPAVCMenu@@AAI@Z 004eacda f   nafxcwd:oledoccl.obj
 0001:000e9d1f       ?OnInsertMenus@COleDocObjectItem@@UAEXPAVCMenu@@PAUtagOleMenuGroupWidths@@@Z 004ead1f f   nafxcwd:oledoccl.obj
 0001:000e9f85       ?OnRemoveMenus@COleDocObjectItem@@UAEXPAVCMenu@@@Z 004eaf85 f   nafxcwd:oledoccl.obj
 0001:000ea00f       ?OnPreparePrinting@COleDocObjectItem@@SAHPAVCView@@PAUCPrintInfo@@H@Z 004eb00f f   nafxcwd:oledoccl.obj
 0001:000ea183       ?OnPrint@COleDocObjectItem@@SAXPAVCView@@PAUCPrintInfo@@H@Z 004eb183 f   nafxcwd:oledoccl.obj
 0001:000ea410       ??_GCOleDocObjectItem@@UAEPAXI@Z 004eb410 f i nafxcwd:oledoccl.obj
 0001:000ea410       ??_ECOleDocObjectItem@@UAEPAXI@Z 004eb410 f i nafxcwd:oledoccl.obj
 0001:000ea440       ??0XOleDocumentSite@COleDocObjectItem@@QAE@XZ 004eb440 f i nafxcwd:oledoccl.obj
 0001:000ea460       ??0IOleDocumentSite@@QAE@XZ 004eb460 f i nafxcwd:oledoccl.obj
 0001:000ea480       ??0COleCmdUI@@QAE@PAU_tagOLECMD@@KPBU_GUID@@@Z 004eb480 f   nafxcwd:oledoctg.obj
 0001:000ea4c7       ?Enable@COleCmdUI@@UAEXH@Z 004eb4c7 f   nafxcwd:oledoctg.obj
 0001:000ea55e       ?SetCheck@COleCmdUI@@UAEXH@Z 004eb55e f   nafxcwd:oledoctg.obj
 0001:000ea617       ?SetText@COleCmdUI@@UAEXPBD@Z 004eb617 f   nafxcwd:oledoctg.obj
 0001:000ea633       ?DoUpdate@COleCmdUI@@UAEHPAVCCmdTarget@@H@Z 004eb633 f   nafxcwd:oledoctg.obj
 0001:000ea7ba       ?AddRef@XOleCommandTarget@CDocObjectServer@@UAGKXZ 004eb7ba f   nafxcwd:oledoctg.obj
 0001:000ea7d8       ?Release@XOleCommandTarget@CDocObjectServer@@UAGKXZ 004eb7d8 f   nafxcwd:oledoctg.obj
 0001:000ea7f6       ?QueryInterface@XOleCommandTarget@CDocObjectServer@@UAGJABU_GUID@@PAPAX@Z 004eb7f6 f   nafxcwd:oledoctg.obj
 0001:000ea81c       ?_AfxQueryStatusOleCommandHelper@@YGJPAVCCmdTarget@@PBU_GUID@@KQAU_tagOLECMD@@PAU_tagOLECMDTEXT@@@Z 004eb81c f   nafxcwd:oledoctg.obj
 0001:000eaa21       ?QueryStatus@XOleCommandTarget@CDocObjectServer@@UAGJPBU_GUID@@KQAU_tagOLECMD@@PAU_tagOLECMDTEXT@@@Z 004eba21 f   nafxcwd:oledoctg.obj
 0001:000eaa6d       ?_AfxExecOleCommandHelper@@YGJPAVCCmdTarget@@PBU_GUID@@KKPAUtagVARIANT@@2@Z 004eba6d f   nafxcwd:oledoctg.obj
 0001:000eab71       ?Exec@XOleCommandTarget@CDocObjectServer@@UAGJPBU_GUID@@KKPAUtagVARIANT@@1@Z 004ebb71 f   nafxcwd:oledoctg.obj
 0001:000eabf0       ??1COleCmdUI@@QAE@XZ       004ebbf0 f i nafxcwd:oledoctg.obj
 0001:000eac10       ?GetRuntimeClass@CDocObjectServer@@UBEPAUCRuntimeClass@@XZ 004ebc10 f   nafxcwd:oledocob.obj
 0001:000eac20       ?GetMessageMap@CDocObjectServer@@MBEPBUAFX_MSGMAP@@XZ 004ebc20 f   nafxcwd:oledocob.obj
 0001:000eac30       ?GetInterfaceMap@CDocObjectServer@@MBEPBUAFX_INTERFACEMAP@@XZ 004ebc30 f   nafxcwd:oledocob.obj
 0001:000eac40       ??0CDocObjectServer@@QAE@PAVCOleServerDoc@@PAUIOleDocumentSite@@@Z 004ebc40 f   nafxcwd:oledocob.obj
 0001:000ead28       ??1CDocObjectServer@@UAE@XZ 004ebd28 f   nafxcwd:oledocob.obj
 0001:000ead79       ?ReleaseDocSite@CDocObjectServer@@QAEXXZ 004ebd79 f   nafxcwd:oledocob.obj
 0001:000eada9       ?SetDocSite@CDocObjectServer@@QAEXPAUIOleDocumentSite@@@Z 004ebda9 f   nafxcwd:oledocob.obj
 0001:000eadc7       ?OnCloseDocument@CDocObjectServer@@UAEXXZ 004ebdc7 f   nafxcwd:oledocob.obj
 0001:000eadee       ?ActivateDocObject@CDocObjectServer@@QAEXXZ 004ebdee f   nafxcwd:oledocob.obj
 0001:000eae62       ?OnExecOleCmd@CDocObjectServer@@IAGJPBU_GUID@@KKPAUtagVARIANT@@1@Z 004ebe62 f   nafxcwd:oledocob.obj
 0001:000eaec7       ?GetControllingFrame@CDocObjectServer@@QBEPAVCOleDocIPFrameWnd@@XZ 004ebec7 f   nafxcwd:oledocob.obj
 0001:000eaf4d       ?DoPreparePrinting@CDocObjectServer@@IAEHPAVCView@@PAUCPrintInfo@@@Z 004ebf4d f   nafxcwd:oledocob.obj
 0001:000eaf6c       ?DoPrepareDC@CDocObjectServer@@IAEXPAVCView@@PAVCDC@@PAUCPrintInfo@@@Z 004ebf6c f   nafxcwd:oledocob.obj
 0001:000eaf8f       ?DoPrint@CDocObjectServer@@IAEXPAVCView@@PAVCDC@@PAUCPrintInfo@@@Z 004ebf8f f   nafxcwd:oledocob.obj
 0001:000eafb2       ?DoBeginPrinting@CDocObjectServer@@IAEXPAVCView@@PAVCDC@@PAUCPrintInfo@@@Z 004ebfb2 f   nafxcwd:oledocob.obj
 0001:000eafd5       ?DoEndPrinting@CDocObjectServer@@IAEXPAVCView@@PAVCDC@@PAUCPrintInfo@@@Z 004ebfd5 f   nafxcwd:oledocob.obj
 0001:000eaff8       ?AddRef@XPrint@CDocObjectServer@@UAGKXZ 004ebff8 f   nafxcwd:oledocob.obj
 0001:000eb016       ?Release@XPrint@CDocObjectServer@@UAGKXZ 004ec016 f   nafxcwd:oledocob.obj
 0001:000eb034       ?QueryInterface@XPrint@CDocObjectServer@@UAGJABU_GUID@@PAPAX@Z 004ec034 f   nafxcwd:oledocob.obj
 0001:000eb057       ?SetInitialPageNum@XPrint@CDocObjectServer@@UAGJJ@Z 004ec057 f   nafxcwd:oledocob.obj
 0001:000eb088       ?GetPageInfo@XPrint@CDocObjectServer@@UAGJPAJ0@Z 004ec088 f   nafxcwd:oledocob.obj
 0001:000eb1e4       ?Print@XPrint@CDocObjectServer@@UAGJKPAPAUtagDVTARGETDEVICE@@PAPAUtagPAGESET@@PAUtagSTGMEDIUM@@PAUIContinueCallback@@JPAJ4@Z 004ec1e4 f   nafxcwd:oledocob.obj
 0001:000ebcdc       ?AddRef@XOleDocument@CDocObjectServer@@UAGKXZ 004eccdc f   nafxcwd:oledocob.obj
 0001:000ebcfa       ?Release@XOleDocument@CDocObjectServer@@UAGKXZ 004eccfa f   nafxcwd:oledocob.obj
 0001:000ebd18       ?QueryInterface@XOleDocument@CDocObjectServer@@UAGJABU_GUID@@PAPAX@Z 004ecd18 f   nafxcwd:oledocob.obj
 0001:000ebd3b       ?CreateView@XOleDocument@CDocObjectServer@@UAGJPAUIOleInPlaceSite@@PAUIStream@@KPAPAUIOleDocumentView@@@Z 004ecd3b f   nafxcwd:oledocob.obj
 0001:000ebe26       ?GetDocMiscStatus@XOleDocument@CDocObjectServer@@UAGJPAK@Z 004ece26 f   nafxcwd:oledocob.obj
 0001:000ebe7d       ?EnumViews@XOleDocument@CDocObjectServer@@UAGJPAPAUIEnumOleDocumentViews@@PAPAUIOleDocumentView@@@Z 004ece7d f   nafxcwd:oledocob.obj
 0001:000ebf0e       ?AddRef@XOleObject@CDocObjectServer@@UAGKXZ 004ecf0e f   nafxcwd:oledocob.obj
 0001:000ebf2c       ?Release@XOleObject@CDocObjectServer@@UAGKXZ 004ecf2c f   nafxcwd:oledocob.obj
 0001:000ebf4a       ?QueryInterface@XOleObject@CDocObjectServer@@UAGJABU_GUID@@PAPAX@Z 004ecf4a f   nafxcwd:oledocob.obj
 0001:000ebf70       ?SetClientSite@XOleObject@CDocObjectServer@@UAGJPAUIOleClientSite@@@Z 004ecf70 f   nafxcwd:oledocob.obj
 0001:000ebff8       ?GetClientSite@XOleObject@CDocObjectServer@@UAGJPAPAUIOleClientSite@@@Z 004ecff8 f   nafxcwd:oledocob.obj
 0001:000ec03e       ?SetHostNames@XOleObject@CDocObjectServer@@UAGJPBG0@Z 004ed03e f   nafxcwd:oledocob.obj
 0001:000ec088       ?Close@XOleObject@CDocObjectServer@@UAGJK@Z 004ed088 f   nafxcwd:oledocob.obj
 0001:000ec0ce       ?SetMoniker@XOleObject@CDocObjectServer@@UAGJKPAUIMoniker@@@Z 004ed0ce f   nafxcwd:oledocob.obj
 0001:000ec118       ?GetMoniker@XOleObject@CDocObjectServer@@UAGJKKPAPAUIMoniker@@@Z 004ed118 f   nafxcwd:oledocob.obj
 0001:000ec165       ?InitFromData@XOleObject@CDocObjectServer@@UAGJPAUIDataObject@@HK@Z 004ed165 f   nafxcwd:oledocob.obj
 0001:000ec1b2       ?GetClipboardData@XOleObject@CDocObjectServer@@UAGJKPAPAUIDataObject@@@Z 004ed1b2 f   nafxcwd:oledocob.obj
 0001:000ec1fc       ?DoVerb@XOleObject@CDocObjectServer@@UAGJJPAUtagMSG@@PAUIOleClientSite@@JPAUHWND__@@PBUtagRECT@@@Z 004ed1fc f   nafxcwd:oledocob.obj
 0001:000ec255       ?EnumVerbs@XOleObject@CDocObjectServer@@UAGJPAPAUIEnumOLEVERB@@@Z 004ed255 f   nafxcwd:oledocob.obj
 0001:000ec29b       ?Update@XOleObject@CDocObjectServer@@UAGJXZ 004ed29b f   nafxcwd:oledocob.obj
 0001:000ec2dc       ?IsUpToDate@XOleObject@CDocObjectServer@@UAGJXZ 004ed2dc f   nafxcwd:oledocob.obj
 0001:000ec31d       ?GetUserClassID@XOleObject@CDocObjectServer@@UAGJPAU_GUID@@@Z 004ed31d f   nafxcwd:oledocob.obj
 0001:000ec363       ?GetUserType@XOleObject@CDocObjectServer@@UAGJKPAPAG@Z 004ed363 f   nafxcwd:oledocob.obj
 0001:000ec3ad       ?SetExtent@XOleObject@CDocObjectServer@@UAGJKPAUtagSIZE@@@Z 004ed3ad f   nafxcwd:oledocob.obj
 0001:000ec40c       ?GetExtent@XOleObject@CDocObjectServer@@UAGJKPAUtagSIZE@@@Z 004ed40c f   nafxcwd:oledocob.obj
 0001:000ec456       ?Advise@XOleObject@CDocObjectServer@@UAGJPAUIAdviseSink@@PAK@Z 004ed456 f   nafxcwd:oledocob.obj
 0001:000ec4a0       ?Unadvise@XOleObject@CDocObjectServer@@UAGJK@Z 004ed4a0 f   nafxcwd:oledocob.obj
 0001:000ec4e6       ?EnumAdvise@XOleObject@CDocObjectServer@@UAGJPAPAUIEnumSTATDATA@@@Z 004ed4e6 f   nafxcwd:oledocob.obj
 0001:000ec52c       ?GetMiscStatus@XOleObject@CDocObjectServer@@UAGJKPAK@Z 004ed52c f   nafxcwd:oledocob.obj
 0001:000ec576       ?SetColorScheme@XOleObject@CDocObjectServer@@UAGJPAUtagLOGPALETTE@@@Z 004ed576 f   nafxcwd:oledocob.obj
 0001:000ec5bc       ?AssertValid@CDocObjectServer@@MBEXXZ 004ed5bc f   nafxcwd:oledocob.obj
 0001:000ec5f8       ?Dump@CDocObjectServer@@MBEXAAVCDumpContext@@@Z 004ed5f8 f   nafxcwd:oledocob.obj
 0001:000ec65f       ?GetRuntimeClass@CDocObjectServerItem@@UBEPAUCRuntimeClass@@XZ 004ed65f f   nafxcwd:oledocob.obj
 0001:000ec66f       ??0CDocObjectServerItem@@IAE@PAVCOleServerDoc@@H@Z 004ed66f f   nafxcwd:oledocob.obj
 0001:000ec698       ??1CDocObjectServerItem@@UAE@XZ 004ed698 f   nafxcwd:oledocob.obj
 0001:000ec6b4       ?OnDoVerb@CDocObjectServerItem@@MAEXJ@Z 004ed6b4 f   nafxcwd:oledocob.obj
 0001:000ec715       ?OnHide@CDocObjectServerItem@@MAEXXZ 004ed715 f   nafxcwd:oledocob.obj
 0001:000ec760       ?OnOpen@CDocObjectServerItem@@MAEXXZ 004ed760 f   nafxcwd:oledocob.obj
 0001:000ec7a9       ?OnShow@CDocObjectServerItem@@MAEXXZ 004ed7a9 f   nafxcwd:oledocob.obj
 0001:000ec7f2       ?AssertValid@CDocObjectServerItem@@UBEXXZ 004ed7f2 f   nafxcwd:oledocob.obj
 0001:000ec805       ?Dump@CDocObjectServerItem@@UBEXAAVCDumpContext@@@Z 004ed805 f   nafxcwd:oledocob.obj
 0001:000ec820       ??_GCDocObjectServer@@UAEPAXI@Z 004ed820 f i nafxcwd:oledocob.obj
 0001:000ec820       ??_ECDocObjectServer@@UAEPAXI@Z 004ed820 f i nafxcwd:oledocob.obj
 0001:000ec850       ??0XOleObject@CDocObjectServer@@QAE@XZ 004ed850 f i nafxcwd:oledocob.obj
 0001:000ec870       ??0XOleDocument@CDocObjectServer@@QAE@XZ 004ed870 f i nafxcwd:oledocob.obj
 0001:000ec890       ??0XOleDocumentView@CDocObjectServer@@QAE@XZ 004ed890 f i nafxcwd:oledocob.obj
 0001:000ec8b0       ??0XOleCommandTarget@CDocObjectServer@@QAE@XZ 004ed8b0 f i nafxcwd:oledocob.obj
 0001:000ec8d0       ??0XPrint@CDocObjectServer@@QAE@XZ 004ed8d0 f i nafxcwd:oledocob.obj
 0001:000ec8f0       ??0IOleObject@@QAE@XZ      004ed8f0 f i nafxcwd:oledocob.obj
 0001:000ec910       ??0IOleDocument@@QAE@XZ    004ed910 f i nafxcwd:oledocob.obj
 0001:000ec930       ??0IOleDocumentView@@QAE@XZ 004ed930 f i nafxcwd:oledocob.obj
 0001:000ec950       ??0IPrint@@QAE@XZ          004ed950 f i nafxcwd:oledocob.obj
 0001:000ec970       ??_GCDocObjectServerItem@@UAEPAXI@Z 004ed970 f i nafxcwd:oledocob.obj
 0001:000ec970       ??_ECDocObjectServerItem@@UAEPAXI@Z 004ed970 f i nafxcwd:oledocob.obj
 0001:000ec9a0       ?GetDocument@CDocObjectServerItem@@QBEPAVCOleServerDoc@@XZ 004ed9a0 f i nafxcwd:oledocob.obj
 0001:000ec9c0       ?OnSaveViewState@CDocObjectServer@@MAEXAAVCArchive@@@Z 004ed9c0 f   nafxcwd:oledocvw.obj
 0001:000ec9cd       ?OnApplyViewState@CDocObjectServer@@MAEXAAVCArchive@@@Z 004ed9cd f   nafxcwd:oledocvw.obj
 0001:000ec9da       ?OnActivateView@CDocObjectServer@@MAEJXZ 004ed9da f   nafxcwd:oledocvw.obj
 0001:000ed22c       ?AddRef@XOleDocumentView@CDocObjectServer@@UAGKXZ 004ee22c f   nafxcwd:oledocvw.obj
 0001:000ed24a       ?Release@XOleDocumentView@CDocObjectServer@@UAGKXZ 004ee24a f   nafxcwd:oledocvw.obj
 0001:000ed268       ?QueryInterface@XOleDocumentView@CDocObjectServer@@UAGJABU_GUID@@PAPAX@Z 004ee268 f   nafxcwd:oledocvw.obj
 0001:000ed28e       ?SetInPlaceSite@XOleDocumentView@CDocObjectServer@@UAGJPAUIOleInPlaceSite@@@Z 004ee28e f   nafxcwd:oledocvw.obj
 0001:000ed320       ?GetInPlaceSite@XOleDocumentView@CDocObjectServer@@UAGJPAPAUIOleInPlaceSite@@@Z 004ee320 f   nafxcwd:oledocvw.obj
 0001:000ed394       ?GetDocument@XOleDocumentView@CDocObjectServer@@UAGJPAPAUIUnknown@@@Z 004ee394 f   nafxcwd:oledocvw.obj
 0001:000ed422       ?OnSetItemRects@CDocObjectServer@@IAEXPAUtagRECT@@0@Z 004ee422 f   nafxcwd:oledocvw.obj
 0001:000ed44b       ?SetRect@XOleDocumentView@CDocObjectServer@@UAGJPAUtagRECT@@@Z 004ee44b f   nafxcwd:oledocvw.obj
 0001:000ed526       ?GetRect@XOleDocumentView@CDocObjectServer@@UAGJPAUtagRECT@@@Z 004ee526 f   nafxcwd:oledocvw.obj
 0001:000ed583       ?SetRectComplex@XOleDocumentView@CDocObjectServer@@UAGJPAUtagRECT@@000@Z 004ee583 f   nafxcwd:oledocvw.obj
 0001:000ed5ae       ?Show@XOleDocumentView@CDocObjectServer@@UAGJH@Z 004ee5ae f   nafxcwd:oledocvw.obj
 0001:000ed615       ?UIActivate@XOleDocumentView@CDocObjectServer@@UAGJH@Z 004ee615 f   nafxcwd:oledocvw.obj
 0001:000ed67c       ?Open@XOleDocumentView@CDocObjectServer@@UAGJXZ 004ee67c f   nafxcwd:oledocvw.obj
 0001:000ed6c9       ?CloseView@XOleDocumentView@CDocObjectServer@@UAGJK@Z 004ee6c9 f   nafxcwd:oledocvw.obj
 0001:000ed713       ?SaveViewState@XOleDocumentView@CDocObjectServer@@UAGJPAUIStream@@@Z 004ee713 f   nafxcwd:oledocvw.obj
 0001:000ed8ae       ?ApplyViewState@XOleDocumentView@CDocObjectServer@@UAGJPAUIStream@@@Z 004ee8ae f   nafxcwd:oledocvw.obj
 0001:000eda49       ?Clone@XOleDocumentView@CDocObjectServer@@UAGJPAUIOleInPlaceSite@@PAPAUIOleDocumentView@@@Z 004eea49 f   nafxcwd:oledocvw.obj
 0001:000eda80       ?CreateObject@COleDocIPFrameWnd@@SGPAVCObject@@XZ 004eea80 f   nafxcwd:oledocip.obj
 0001:000edaee       ?GetRuntimeClass@COleDocIPFrameWnd@@UBEPAUCRuntimeClass@@XZ 004eeaee f   nafxcwd:oledocip.obj
 0001:000edafe       ?GetMessageMap@COleDocIPFrameWnd@@MBEPBUAFX_MSGMAP@@XZ 004eeafe f   nafxcwd:oledocip.obj
 0001:000edb0e       ??0COleDocIPFrameWnd@@QAE@XZ 004eeb0e f   nafxcwd:oledocip.obj
 0001:000edb3a       ??1COleDocIPFrameWnd@@UAE@XZ 004eeb3a f   nafxcwd:oledocip.obj
 0001:000edb56       ?OnRequestPositionChange@COleDocIPFrameWnd@@MAEXPBUtagRECT@@@Z 004eeb56 f   nafxcwd:oledocip.obj
 0001:000edbce       ?RecalcLayout@COleDocIPFrameWnd@@MAEXH@Z 004eebce f   nafxcwd:oledocip.obj
 0001:000ede28       ?BuildSharedMenu@COleDocIPFrameWnd@@MAEHXZ 004eee28 f   nafxcwd:oledocip.obj
 0001:000ee030       ?DestroySharedMenu@COleDocIPFrameWnd@@MAEXXZ 004ef030 f   nafxcwd:oledocip.obj
 0001:000ee1b0       ?AssertValid@COleDocIPFrameWnd@@UBEXXZ 004ef1b0 f   nafxcwd:oledocip.obj
 0001:000ee1c3       ?Dump@COleDocIPFrameWnd@@UBEXAAVCDumpContext@@@Z 004ef1c3 f   nafxcwd:oledocip.obj
 0001:000ee1e0       ??_GCOleDocIPFrameWnd@@UAEPAXI@Z 004ef1e0 f i nafxcwd:oledocip.obj
 0001:000ee1e0       ??_ECOleDocIPFrameWnd@@UAEPAXI@Z 004ef1e0 f i nafxcwd:oledocip.obj
 0001:000ee210       ??_9@$BBAI@AE              004ef210 f i nafxcwd:oleipfrm.obj
 0001:000ee220       ?_JumpToContinuation@@YGXPAXPAUEHRegistrationNode@@@Z 004ef220 f   libcmtd:trnsctrl.obj
 0001:000ee260       ?_CallMemberFunction0@@YGXPAX0@Z 004ef260 f   libcmtd:trnsctrl.obj
 0001:000ee270       ?_CallMemberFunction1@@YGXPAX00@Z 004ef270 f   libcmtd:trnsctrl.obj
 0001:000ee280       ?_CallMemberFunction2@@YGXPAX00H@Z 004ef280 f   libcmtd:trnsctrl.obj
 0001:000ee290       ?_UnwindNestedFrames@@YGXPAUEHRegistrationNode@@PAUEHExceptionRecord@@@Z 004ef290 f   libcmtd:trnsctrl.obj
 0001:000ee2f0       ___CxxFrameHandler         004ef2f0 f   libcmtd:trnsctrl.obj
 0001:000ee330       ___CxxLongjmpUnwind@4      004ef330 f   libcmtd:trnsctrl.obj
 0001:000ee360       ?_CallCatchBlock2@@YAPAXPAUEHRegistrationNode@@PBU_s_FuncInfo@@PAXHK@Z 004ef360 f   libcmtd:trnsctrl.obj
 0001:000ee410       ?_CallSETranslator@@YAHPAUEHExceptionRecord@@PAUEHRegistrationNode@@PAX2PBU_s_FuncInfo@@H1@Z 004ef410 f   libcmtd:trnsctrl.obj
 0001:000ee570       ?_GetRangeOfTrysToCheck@@YAPBU_s_TryBlockMapEntry@@PBU_s_FuncInfo@@HHPAI1@Z 004ef570 f   libcmtd:trnsctrl.obj
 0001:000ee600       __chkesp                   004ef600 f   libcmtd:chkesp.obj
 0001:000ee638       __global_unwind2           004ef638 f   libcmtd:exsup.obj
 0001:000ee67a       __local_unwind2            004ef67a f   libcmtd:exsup.obj
 0001:000ee6d2       __NLG_Return2              004ef6d2 f   libcmtd:exsup.obj
 0001:000ee6e2       __abnormal_termination     004ef6e2 f   libcmtd:exsup.obj
 0001:000ee705       __NLG_Notify1              004ef705 f   libcmtd:exsup.obj
 0001:000ee70e       __NLG_Notify               004ef70e f   libcmtd:exsup.obj
 0001:000ee721       __NLG_Dispatch             004ef721 f   libcmtd:exsup.obj
 0001:000ee730       _strcpy                    004ef730 f   libcmtd:strcat.obj
 0001:000ee740       _strcat                    004ef740 f   libcmtd:strcat.obj
 0001:000ee820       _fclose                    004ef820 f   libcmtd:fclose.obj
 0001:000ee8b0       __fclose_lk                004ef8b0 f   libcmtd:fclose.obj
 0001:000ee970       _fprintf                   004ef970 f   libcmtd:fprintf.obj
 0001:000eea40       __fsopen                   004efa40 f   libcmtd:fopen.obj
 0001:000eeb40       _fopen                     004efb40 f   libcmtd:fopen.obj
 0001:000eeb60       __onexit                   004efb60 f   libcmtd:onexit.obj
 0001:000eec20       _atexit                    004efc20 f   libcmtd:onexit.obj
 0001:000eec40       ___onexitinit              004efc40 f   libcmtd:onexit.obj
 0001:000eec90       __fpmath                   004efc90 f   libcmtd:fpinit.obj
 0001:000eecc0       __fpclear                  004efcc0 f   libcmtd:fpinit.obj
 0001:000eecd0       __cfltcvt_init             004efcd0 f   libcmtd:fpinit.obj
 0001:000eed20       ___setfflag                004efd20 f   libcmtd:fpinit.obj
 0001:000eed40       _memcpy                    004efd40 f   libcmtd:memcpy.obj
 0001:000ef080       _strlen                    004f0080 f   libcmtd:strlen.obj
 0001:000ef100       _memmove                   004f0100 f   libcmtd:memmove.obj
 0001:000ef440       ??0exception@@QAE@XZ       004f0440 f   libcmtd:stdexcpt.obj
 0001:000ef470       ??_Gexception@@UAEPAXI@Z   004f0470 f i libcmtd:stdexcpt.obj
 0001:000ef470       ??_Eexception@@UAEPAXI@Z   004f0470 f i libcmtd:stdexcpt.obj
 0001:000ef4a0       ??0exception@@QAE@ABQBD@Z  004f04a0 f   libcmtd:stdexcpt.obj
 0001:000ef510       ??0exception@@QAE@ABV0@@Z  004f0510 f   libcmtd:stdexcpt.obj
 0001:000ef5a0       ??4exception@@QAEAAV0@ABV0@@Z 004f05a0 f   libcmtd:stdexcpt.obj
 0001:000ef5d0       ??1exception@@UAE@XZ       004f05d0 f   libcmtd:stdexcpt.obj
 0001:000ef610       ?what@exception@@UBEPBDXZ  004f0610 f   libcmtd:stdexcpt.obj
 0001:000ef640       ??1type_info@@UAE@XZ       004f0640 f   libcmtd:typinfo.obj
 0001:000ef680       ??_Etype_info@@UAEPAXI@Z   004f0680 f i libcmtd:typinfo.obj
 0001:000ef680       ??_Gtype_info@@UAEPAXI@Z   004f0680 f i libcmtd:typinfo.obj
 0001:000ef6b0       ??8type_info@@QBEHABV0@@Z  004f06b0 f   libcmtd:typinfo.obj
 0001:000ef6e0       ??9type_info@@QBEHABV0@@Z  004f06e0 f   libcmtd:typinfo.obj
 0001:000ef710       ?before@type_info@@QBEHABV1@@Z 004f0710 f   libcmtd:typinfo.obj
 0001:000ef740       ?raw_name@type_info@@QBEPBDXZ 004f0740 f   libcmtd:typinfo.obj
 0001:000ef760       ??0type_info@@AAE@ABV0@@Z  004f0760 f   libcmtd:typinfo.obj
 0001:000ef780       ??4type_info@@AAEAAV0@ABV0@@Z 004f0780 f   libcmtd:typinfo.obj
 0001:000ef790       __CxxThrowException@8      004f0790 f   libcmtd:throw.obj
 0001:000ef7e0       _sprintf                   004f07e0 f   libcmtd:sprintf.obj
 0001:000ef8e0       _memset                    004f08e0 f   libcmtd:memset.obj
 0001:000ef940       _memchr                    004f0940 f   libcmtd:memchr.obj
 0001:000ef9f0       _localeconv                004f09f0 f   libcmtd:lconv.obj
 0001:000efa00       _strcspn                   004f0a00 f   libcmtd:strcspn.obj
 0001:000efa40       __CItan                    004f0a40 f   libcmtd:tan.obj
 0001:000efa54       _tan                       004f0a54 f   libcmtd:tan.obj
 0001:000efb00       __CIatan                   004f0b00 f   libcmtd:atan.obj
 0001:000efb14       _atan                      004f0b14 f   libcmtd:atan.obj
 0001:000efba0       __CIpow                    004f0ba0 f   libcmtd:pow.obj
 0001:000efbb9       _pow                       004f0bb9 f   libcmtd:pow.obj
 0001:000efdc0       _fabs                      004f0dc0 f   libcmtd:fabs.obj
 0001:000efec0       __CIsin                    004f0ec0 f   libcmtd:sin.obj
 0001:000efed4       _sin                       004f0ed4 f   libcmtd:sin.obj
 0001:000eff70       __CIcos                    004f0f70 f   libcmtd:cos.obj
 0001:000eff84       _cos                       004f0f84 f   libcmtd:cos.obj
 0001:000f0020       _fscanf                    004f1020 f   libcmtd:fscanf.obj
 0001:000f00c0       __cinit                    004f10c0 f   libcmtd:crt0dat.obj
 0001:000f0100       _exit                      004f1100 f   libcmtd:crt0dat.obj
 0001:000f0120       __exit                     004f1120 f   libcmtd:crt0dat.obj
 0001:000f0140       __cexit                    004f1140 f   libcmtd:crt0dat.obj
 0001:000f0160       __c_exit                   004f1160 f   libcmtd:crt0dat.obj
 0001:000f0270       __lockexit                 004f1270 f   libcmtd:crt0dat.obj
 0001:000f0280       __unlockexit               004f1280 f   libcmtd:crt0dat.obj
 0001:000f02c0       __alloca_probe             004f12c0 f   libcmtd:chkstk.obj
 0001:000f02c0       __chkstk                   004f12c0 f   libcmtd:chkstk.obj
 0001:000f02f0       _fgets                     004f12f0 f   libcmtd:fgets.obj
 0001:000f0430       _strcmp                    004f1430 f   libcmtd:strcmp.obj
 0001:000f04b4       __ftol                     004f14b4 f   libcmtd:ftol.obj
 0001:000f04e0       ??_M@YGXPAXIHP6EX0@Z@Z     004f14e0 f   libcmtd:ehvecdtr.obj
 0001:000f0590       ?__ArrayUnwind@@YGXPAXIHP6EX0@Z@Z 004f1590 f   libcmtd:ehvecdtr.obj
 0001:000f0640       ??_L@YGXPAXIHP6EX0@Z1@Z    004f1640 f   libcmtd:ehvecctr.obj
 0001:000f06e0       _exp                       004f16e0 f   libcmtd:87ctran.obj
 0001:000f06ea       __CIexp                    004f16ea f   libcmtd:87ctran.obj
 0001:000f0700       __CIlog10                  004f1700 f   libcmtd:log10.obj
 0001:000f0714       _log10                     004f1714 f   libcmtd:log10.obj
 0001:000f07d0       _atol                      004f17d0 f   libcmtd:atox.obj
 0001:000f08d0       _atoi                      004f18d0 f   libcmtd:atox.obj
 0001:000f08f0       __atoi64                   004f18f0 f   libcmtd:atox.obj
 0001:000f0a20       _malloc                    004f1a20 f   libcmtd:dbgheap.obj
 0001:000f0a40       __malloc_dbg               004f1a40 f   libcmtd:dbgheap.obj
 0001:000f0a70       __nh_malloc                004f1a70 f   libcmtd:dbgheap.obj
 0001:000f0a90       __nh_malloc_dbg            004f1a90 f   libcmtd:dbgheap.obj
 0001:000f0af0       __heap_alloc               004f1af0 f   libcmtd:dbgheap.obj
 0001:000f0b10       __heap_alloc_dbg           004f1b10 f   libcmtd:dbgheap.obj
 0001:000f0e30       _calloc                    004f1e30 f   libcmtd:dbgheap.obj
 0001:000f0e50       __calloc_dbg               004f1e50 f   libcmtd:dbgheap.obj
 0001:000f0eb0       _realloc                   004f1eb0 f   libcmtd:dbgheap.obj
 0001:000f0ed0       __realloc_dbg              004f1ed0 f   libcmtd:dbgheap.obj
 0001:000f1430       __expand                   004f2430 f   libcmtd:dbgheap.obj
 0001:000f1450       __expand_dbg               004f2450 f   libcmtd:dbgheap.obj
 0001:000f1490       _free                      004f2490 f   libcmtd:dbgheap.obj
 0001:000f14b0       __free_lk                  004f24b0 f   libcmtd:dbgheap.obj
 0001:000f14d0       __free_dbg                 004f24d0 f   libcmtd:dbgheap.obj
 0001:000f1500       __free_dbg_lk              004f2500 f   libcmtd:dbgheap.obj
 0001:000f18f0       __msize                    004f28f0 f   libcmtd:dbgheap.obj
 0001:000f1910       __msize_dbg                004f2910 f   libcmtd:dbgheap.obj
 0001:000f1a70       __CrtSetBreakAlloc         004f2a70 f   libcmtd:dbgheap.obj
 0001:000f1a90       __CrtSetDbgBlockType       004f2a90 f   libcmtd:dbgheap.obj
 0001:000f1b30       __CrtSetAllocHook          004f2b30 f   libcmtd:dbgheap.obj
 0001:000f1be0       __CrtCheckMemory           004f2be0 f   libcmtd:dbgheap.obj
 0001:000f1f50       __CrtSetDbgFlag            004f2f50 f   libcmtd:dbgheap.obj
 0001:000f1f80       __CrtDoForAllClientObjects 004f2f80 f   libcmtd:dbgheap.obj
 0001:000f1ff0       __CrtIsValidPointer        004f2ff0 f   libcmtd:dbgheap.obj
 0001:000f2040       __CrtIsValidHeapPointer    004f3040 f   libcmtd:dbgheap.obj
 0001:000f20d0       __CrtIsMemoryBlock         004f30d0 f   libcmtd:dbgheap.obj
 0001:000f21c0       __CrtSetDumpClient         004f31c0 f   libcmtd:dbgheap.obj
 0001:000f21e0       __CrtMemCheckpoint         004f31e0 f   libcmtd:dbgheap.obj
 0001:000f2350       __CrtMemDifference         004f3350 f   libcmtd:dbgheap.obj
 0001:000f2480       __CrtMemDumpAllObjectsSince 004f3480 f   libcmtd:dbgheap.obj
 0001:000f2860       __CrtDumpMemoryLeaks       004f3860 f   libcmtd:dbgheap.obj
 0001:000f28e0       __CrtMemDumpStatistics     004f38e0 f   libcmtd:dbgheap.obj
 0001:000f29b0       _fwrite                    004f39b0 f   libcmtd:fwrite.obj
 0001:000f29f0       __fwrite_lk                004f39f0 f   libcmtd:fwrite.obj
 0001:000f2c10       _fread                     004f3c10 f   libcmtd:fread.obj
 0001:000f2c50       __fread_lk                 004f3c50 f   libcmtd:fread.obj
 0001:000f2e20       _fseek                     004f3e20 f   libcmtd:fseek.obj
 0001:000f2e90       __fseek_lk                 004f3e90 f   libcmtd:fseek.obj
 0001:000f2fc0       __filelength               004f3fc0 f   libcmtd:flength.obj
 0001:000f3080       __CIlog                    004f4080 f   libcmtd:log.obj
 0001:000f3094       _log                       004f4094 f   libcmtd:log.obj
 0001:000f3150       _atof                      004f4150 f   libcmtd:atof.obj
 0001:000f31d0       _srand                     004f41d0 f   libcmtd:rand.obj
 0001:000f31e0       _rand                      004f41e0 f   libcmtd:rand.obj
 0001:000f3220       _time                      004f4220 f   libcmtd:time.obj
 0001:000f33b0       _printf                    004f43b0 f   libcmtd:printf.obj
 0001:000f3450       __purecall                 004f4450 f   libcmtd:purevirt.obj
 0001:000f3460       _WinMainCRTStartup         004f4460 f   libcmtd:wincrt0.obj
 0001:000f35d0       __amsg_exit                004f45d0 f   libcmtd:wincrt0.obj
 0001:000f3630       _memcmp                    004f4630 f   libcmtd:memcmp.obj
 0001:000f36e0       __mbscmp                   004f46e0 f   libcmtd:mbscmp.obj
 0001:000f3850       __mbsicmp                  004f4850 f   libcmtd:mbsicmp.obj
 0001:000f3af0       __mbscoll                  004f4af0 f   libcmtd:mbscoll.obj
 0001:000f3b30       __mbsicoll                 004f4b30 f   libcmtd:mbsicoll.obj
 0001:000f3b70       _strtol                    004f4b70 f   libcmtd:strtol.obj
 0001:000f3ed0       _strtoul                   004f4ed0 f   libcmtd:strtol.obj
 0001:000f3ef0       _wcslen                    004f4ef0 f   libcmtd:wcslen.obj
 0001:000f3f20       __mbschr                   004f4f20 f   libcmtd:mbschr.obj
 0001:000f4010       __mbspbrk                  004f5010 f   libcmtd:mbspbrk.obj
 0001:000f4150       __mbsupr                   004f5150 f   libcmtd:mbsupr.obj
 0001:000f4250       __mbslwr                   004f5250 f   libcmtd:mbslwr.obj
 0001:000f4350       __mbsrev                   004f5350 f   libcmtd:mbsrev.obj
 0001:000f4440       __mbsrchr                  004f5440 f   libcmtd:mbsrchr.obj
 0001:000f4510       __mbsinc                   004f5510 f   libcmtd:mbsinc.obj
 0001:000f4540       __mbsstr                   004f5540 f   libcmtd:mbsstr.obj
 0001:000f4620       __mbsspn                   004f5620 f   libcmtd:mbsspn.obj
 0001:000f4750       __mbscspn                  004f5750 f   libcmtd:mbscspn.obj
 0001:000f4880       _vsprintf                  004f5880 f   libcmtd:vsprintf.obj
 0001:000f4980       __ismbcdigit               004f5980 f   libcmtd:ismbdgt.obj
 0001:000f4a60       __mbsnbcmp                 004f5a60 f   libcmtd:mbsnbcmp.obj
 0001:000f4c50       __mbclen                   004f5c50 f   libcmtd:mbclen.obj
 0001:000f4c80       __ismbcspace               004f5c80 f   libcmtd:ismbspc.obj
 0001:000f4d60       __strdup                   004f5d60 f   libcmtd:strdup.obj
 0001:000f4db0       __beginthreadex            004f5db0 f   libcmtd:threadex.obj
 0001:000f4f40       __endthreadex              004f5f40 f   libcmtd:threadex.obj
 0001:000f4f90       _strtod                    004f5f90 f   libcmtd:strtod.obj
 0001:000f50e0       _abs                       004f60e0 f   libcmtd:abs.obj
 0001:000f5110       __CrtDbgBreak              004f6110 f   libcmtd:dbgrpt.obj
 0001:000f5120       __CrtSetReportMode         004f6120 f   libcmtd:dbgrpt.obj
 0001:000f5180       __CrtSetReportFile         004f6180 f   libcmtd:dbgrpt.obj
 0001:000f5200       __CrtSetReportHook         004f6200 f   libcmtd:dbgrpt.obj
 0001:000f5220       __CrtDbgReport             004f6220 f   libcmtd:dbgrpt.obj
 0001:000f58c0       __vsnprintf                004f68c0 f   libcmtd:vsnprint.obj
 0001:000f59c0       __itoa                     004f69c0 f   libcmtd:xtoa.obj
 0001:000f5ae0       __ltoa                     004f6ae0 f   libcmtd:xtoa.obj
 0001:000f5b20       __ultoa                    004f6b20 f   libcmtd:xtoa.obj
 0001:000f5b40       __i64toa                   004f6b40 f   libcmtd:xtoa.obj
 0001:000f5c90       __ui64toa                  004f6c90 f   libcmtd:xtoa.obj
 0001:000f5cb8       __except_handler3          004f6cb8 f   libcmtd:exsup3.obj
 0001:000f5d75       __seh_longjmp_unwind@4     004f6d75 f   libcmtd:exsup3.obj
 0001:000f5d90       __dosmaperr                004f6d90 f   libcmtd:dosmap.obj
 0001:000f5e30       __errno                    004f6e30 f   libcmtd:dosmap.obj
 0001:000f5e40       ___doserrno                004f6e40 f   libcmtd:dosmap.obj
 0001:000f5e50       _mktime                    004f6e50 f   libcmtd:mktime.obj
 0001:000f5e70       __mkgmtime                 004f6e70 f   libcmtd:mktime.obj
 0001:000f61a0       _gmtime                    004f71a0 f   libcmtd:gmtime.obj
 0001:000f63a0       _localtime                 004f73a0 f   libcmtd:localtim.obj
 0001:000f6600       _ctime                     004f7600 f   libcmtd:ctime.obj
 0001:000f6630       __setmbcp                  004f7630 f   libcmtd:mbctype.obj
 0001:000f6df0       __getmbcp                  004f7df0 f   libcmtd:mbctype.obj
 0001:000f6e10       ___initmbctable            004f7e10 f   libcmtd:mbctype.obj
 0001:000f6e40       __Getdays                  004f7e40 f   libcmtd:strftime.obj
 0001:000f6f70       __Getmonths                004f7f70 f   libcmtd:strftime.obj
 0001:000f70a0       __Gettnames                004f80a0 f   libcmtd:strftime.obj
 0001:000f7410       _strftime                  004f8410 f   libcmtd:strftime.obj
 0001:000f7430       __Strftime                 004f8430 f   libcmtd:strftime.obj
 0001:000f82b0       __mbsdec                   004f92b0 f   libcmtd:mbsdec.obj
 0001:000f8360       _wcscat                    004f9360 f   libcmtd:wcscat.obj
 0001:000f83c0       _wcscpy                    004f93c0 f   libcmtd:wcscat.obj
 0001:000f8400       _wcsncpy                   004f9400 f   libcmtd:wcsncpy.obj
 0001:000f8480       _swprintf                  004f9480 f   libcmtd:swprintf.obj
 0001:000f85d0       _labs                      004f95d0 f   libcmtd:labs.obj
 0001:000f8600       _floor                     004f9600 f   libcmtd:floor.obj
 0001:000f8740       _ceil                      004f9740 f   libcmtd:ceil.obj
 0001:000f8880       _modf                      004f9880 f   libcmtd:modf.obj
 0001:000f8a10       __gcvt                     004f9a10 f   libcmtd:gcvt.obj
 0001:000f8b50       ___InternalCxxFrameHandler 004f9b50 f   libcmtd:frame.obj
 0001:000f90c0       ___FrameUnwindToState      004fa0c0 f   libcmtd:frame.obj
 0001:000f96d0       ?_DestructExceptionObject@@YAXPAUEHExceptionRecord@@E@Z 004fa6d0 f   libcmtd:frame.obj
 0001:000f97b0       __CallSettingFrame@12      004fa7b0 f   libcmtd:lowhelpr.obj
 0001:000f97d7       __NLG_Return               004fa7d7 f   libcmtd:lowhelpr.obj
 0001:000f9800       __mtinit                   004fa800 f   libcmtd:tidtable.obj
 0001:000f9890       __mtterm                   004fa890 f   libcmtd:tidtable.obj
 0001:000f98c0       __initptd                  004fa8c0 f   libcmtd:tidtable.obj
 0001:000f98e0       __getptd                   004fa8e0 f   libcmtd:tidtable.obj
 0001:000f9980       __freeptd                  004fa980 f   libcmtd:tidtable.obj
 0001:000f9a90       ___threadid                004faa90 f   libcmtd:tidtable.obj
 0001:000f9aa0       ___threadhandle            004faaa0 f   libcmtd:tidtable.obj
 0001:000f9ab0       ?terminate@@YAXXZ          004faab0 f   libcmtd:hooks.obj
 0001:000f9b40       ?unexpected@@YAXXZ         004fab40 f   libcmtd:hooks.obj
 0001:000f9b60       ?_inconsistency@@YAXXZ     004fab60 f   libcmtd:hooks.obj
 0001:000f9bf0       ___initstdio               004fabf0 f   libcmtd:_file.obj
 0001:000f9d20       ___endstdio                004fad20 f   libcmtd:_file.obj
 0001:000f9d40       __lock_file                004fad40 f   libcmtd:_file.obj
 0001:000f9d80       __lock_file2               004fad80 f   libcmtd:_file.obj
 0001:000f9db0       __unlock_file              004fadb0 f   libcmtd:_file.obj
 0001:000f9df0       __unlock_file2             004fadf0 f   libcmtd:_file.obj
 0001:000f9e20       __close                    004fae20 f   libcmtd:close.obj
 0001:000f9ea0       __close_lk                 004faea0 f   libcmtd:close.obj
 0001:000f9f50       __freebuf                  004faf50 f   libcmtd:_freebuf.obj
 0001:000f9ff0       _fflush                    004faff0 f   libcmtd:fflush.obj
 0001:000fa040       __fflush_lk                004fb040 f   libcmtd:fflush.obj
 0001:000fa090       __flush                    004fb090 f   libcmtd:fflush.obj
 0001:000fa150       __flushall                 004fb150 f   libcmtd:fflush.obj
 0001:000fa2a0       __stbuf                    004fb2a0 f   libcmtd:_sftbuf.obj
 0001:000fa400       __ftbuf                    004fb400 f   libcmtd:_sftbuf.obj
 0001:000fa4a0       __output                   004fb4a0 f   libcmtd:output.obj
 0001:000fb340       __openfile                 004fc340 f   libcmtd:_open.obj
 0001:000fb6d0       __getstream                004fc6d0 f   libcmtd:stream.obj
 0001:000fb850       __setdefaultprecision      004fc850 f   libcmtd:fp8.obj
 0001:000fb870       __ms_p5_test_fdiv          004fc870 f   libcmtd:testfdiv.obj
 0001:000fb8d0       __ms_p5_mp_test_fdiv       004fc8d0 f   libcmtd:testfdiv.obj
 0001:000fb920       __forcdecpt                004fc920 f   libcmtd:cvt.obj
 0001:000fb9d0       __cropzeros                004fc9d0 f   libcmtd:cvt.obj
 0001:000fbab0       __positive                 004fcab0 f   libcmtd:cvt.obj
 0001:000fbae0       __fassign                  004fcae0 f   libcmtd:cvt.obj
 0001:000fbb30       __cftoe                    004fcb30 f   libcmtd:cvt.obj
 0001:000fbd20       __cftof                    004fcd20 f   libcmtd:cvt.obj
 0001:000fbed0       __cftog                    004fced0 f   libcmtd:cvt.obj
 0001:000fbfc0       __cfltcvt                  004fcfc0 f   libcmtd:cvt.obj
 0001:000fc050       __mtinitlocks              004fd050 f   libcmtd:mlock.obj
 0001:000fc090       __mtdeletelocks            004fd090 f   libcmtd:mlock.obj
 0001:000fc130       __lock                     004fd130 f   libcmtd:mlock.obj
 0001:000fc1d0       __unlock                   004fd1d0 f   libcmtd:mlock.obj
 0001:000fc1f0       __lockerr_exit             004fd1f0 f   libcmtd:mlock.obj
 0001:000fc210       __free_base                004fd210 f   libcmtd:free.obj
 0001:000fc280       ?__CxxUnhandledExceptionFilter@@YGJPAU_EXCEPTION_POINTERS@@@Z 004fd280 f   libcmtd:unhandld.obj
 0001:000fc2e0       ?__CxxSetUnhandledExceptionFilter@@YAXXZ 004fd2e0 f   libcmtd:unhandld.obj
 0001:000fc300       ?__CxxRestoreUnhandledExceptionFilter@@YAXXZ 004fd300 f   libcmtd:unhandld.obj
 0001:000fc320       __flsbuf                   004fd320 f   libcmtd:_flsbuf.obj
 0001:000fc5a0       __trandisp1                004fd5a0 f   libcmtd:87disp.obj
 0001:000fc607       __trandisp2                004fd607 f   libcmtd:87disp.obj
 0001:000fc693       __rttospopde               004fd693 f   libcmtd:87disp.obj
 0001:000fc698       __rttospop                 004fd698 f   libcmtd:87disp.obj
 0001:000fc69a       __rtnospop                 004fd69a f   libcmtd:87disp.obj
 0001:000fc69c       __rttosnpop                004fd69c f   libcmtd:87disp.obj
 0001:000fc69d       __rtnospopde               004fd69d f   libcmtd:87disp.obj
 0001:000fc6a4       __rtzeropop                004fd6a4 f   libcmtd:87disp.obj
 0001:000fc6a6       __rtzeronpop               004fd6a6 f   libcmtd:87disp.obj
 0001:000fc6ab       __rtonepop                 004fd6ab f   libcmtd:87disp.obj
 0001:000fc6ad       __rtonenpop                004fd6ad f   libcmtd:87disp.obj
 0001:000fc6b2       __tosnan1                  004fd6b2 f   libcmtd:87disp.obj
 0001:000fc6dd       __nosnan2                  004fd6dd f   libcmtd:87disp.obj
 0001:000fc6df       __tosnan2                  004fd6df f   libcmtd:87disp.obj
 0001:000fc707       __nan2                     004fd707 f   libcmtd:87disp.obj
 0001:000fc746       __rtindfpop                004fd746 f   libcmtd:87disp.obj
 0001:000fc748       __rtindfnpop               004fd748 f   libcmtd:87disp.obj
 0001:000fc759       __rttosnpopde              004fd759 f   libcmtd:87disp.obj
 0001:000fc763       __rtchsifneg               004fd763 f   libcmtd:87disp.obj
 0001:000fc770       __twoToTOS                 004fd770 f   libcmtd:common.obj
 0001:000fc785       __load_CW                  004fd785 f   libcmtd:common.obj
 0001:000fc79c       __convertTOStoQNaN         004fd79c f   libcmtd:common.obj
 0001:000fc7b5       __fload_withFB             004fd7b5 f   libcmtd:common.obj
 0001:000fc7f8       __checkTOS_withFB          004fd7f8 f   libcmtd:common.obj
 0001:000fc80e       __fast_exit                004fd80e f   libcmtd:common.obj
 0001:000fc81b       __math_exit                004fd81b f   libcmtd:common.obj
 0001:000fc845       __check_overflow_exit      004fd845 f   libcmtd:common.obj
 0001:000fc859       __check_range_exit         004fd859 f   libcmtd:common.obj
 0001:000fc900       __startTwoArgErrorHandling 004fd900 f   libcmtd:genexcep.obj
 0001:000fc917       __startOneArgErrorHandling 004fd917 f   libcmtd:genexcep.obj
 0001:000fc971       __fFEXP                    004fd971 f   libcmtd:87tran.obj
 0001:000fc9d8       __rtinfpopse               004fd9d8 f   libcmtd:87tran.obj
 0001:000fc9da       __rtinfnpopse              004fd9da f   libcmtd:87tran.obj
 0001:000fc9ea       __fFLN                     004fd9ea f   libcmtd:87tran.obj
 0001:000fca9f       __rtinfpop                 004fda9f f   libcmtd:87tran.obj
 0001:000fcaa1       __rtinfnpop                004fdaa1 f   libcmtd:87tran.obj
 0001:000fcabe       __ffexpm1                  004fdabe f   libcmtd:87tran.obj
 0001:000fcb70       __powhlp                   004fdb70 f   libcmtd:powhlp.obj
 0001:000fcde0       __d_inttype                004fdde0 f   libcmtd:powhlp.obj
 0001:000fce60       __handle_qnan1             004fde60 f   libcmtd:fpexcept.obj
 0001:000fcec0       __handle_qnan2             004fdec0 f   libcmtd:fpexcept.obj
 0001:000fcf30       __except1                  004fdf30 f   libcmtd:fpexcept.obj
 0001:000fcff0       __except2                  004fdff0 f   libcmtd:fpexcept.obj
 0001:000fd0c0       __raise_exc                004fe0c0 f   libcmtd:fpexcept.obj
 0001:000fd590       __handle_exc               004fe590 f   libcmtd:fpexcept.obj
 0001:000fd910       __umatherr                 004fe910 f   libcmtd:fpexcept.obj
 0001:000fd9b0       __set_errno                004fe9b0 f   libcmtd:fpexcept.obj
 0001:000fda30       __errcode                  004fea30 f   libcmtd:fpexcept.obj
 0001:000fdab0       __set_exp                  004feab0 f   libcmtd:util.obj
 0001:000fdaf0       __get_exp                  004feaf0 f   libcmtd:util.obj
 0001:000fdb20       __add_exp                  004feb20 f   libcmtd:util.obj
 0001:000fdb60       __set_bexp                 004feb60 f   libcmtd:util.obj
 0001:000fdba0       __sptype                   004feba0 f   libcmtd:util.obj
 0001:000fdc20       __decomp                   004fec20 f   libcmtd:util.obj
 0001:000fdd60       __statfp                   004fed60 f   libcmtd:fpctrl.obj
 0001:000fdd80       __clrfp                    004fed80 f   libcmtd:fpctrl.obj
 0001:000fdda0       __ctrlfp                   004feda0 f   libcmtd:fpctrl.obj
 0001:000fdde0       __set_statfp               004fede0 f   libcmtd:fpctrl.obj
 0001:000fde60       __input                    004fee60 f   libcmtd:input.obj
 0001:000ff360       __filbuf                   00500360 f   libcmtd:_filbuf.obj
 0001:000ff550       __cintrindisp2             00500550 f   libcmtd:87cdisp.obj
 0001:000ff58e       __cintrindisp1             0050058e f   libcmtd:87cdisp.obj
 0001:000ff5cb       __ctrandisp2               005005cb f   libcmtd:87cdisp.obj
 0001:000ff74b       __ctrandisp1               0050074b f   libcmtd:87cdisp.obj
 0001:000ff77e       __fload                    0050077e f   libcmtd:87cdisp.obj
 0001:000ff7c0       __isctype                  005007c0 f   libcmtd:isctype.obj
 0001:000ff880       __allmul                   00500880 f   libcmtd:llmul.obj
 0001:000ff8c0       ?_set_new_handler@@YAP6AHI@ZP6AHI@Z@Z 005008c0 f   libcmtd:handler.obj
 0001:000ff8f0       ?_query_new_handler@@YAP6AHI@ZXZ 005008f0 f   libcmtd:handler.obj
 0001:000ff900       __callnewh                 00500900 f   libcmtd:handler.obj
 0001:000ff930       __malloc_base              00500930 f   libcmtd:malloc.obj
 0001:000ff950       __nh_malloc_base           00500950 f   libcmtd:malloc.obj
 0001:000ff9b0       __heap_alloc_base          005009b0 f   libcmtd:malloc.obj
 0001:000ffa20       __CrtDefaultAllocHook      00500a20 f   libcmtd:dbghook.obj
 0001:000ffa30       __expand_base              00500a30 f   libcmtd:expand.obj
 0001:000ffae0       __realloc_base             00500ae0 f   libcmtd:realloc.obj
 0001:000ffcd0       __heapchk                  00500cd0 f   libcmtd:heapchk.obj
 0001:000ffd50       __heapset                  00500d50 f   libcmtd:heapchk.obj
 0001:000ffd60       __heap_init                00500d60 f   libcmtd:heapinit.obj
 0001:000ffdb0       __heap_term                00500db0 f   libcmtd:heapinit.obj
 0001:000ffe50       __get_sbh_threshold        00500e50 f   libcmtd:sbheap.obj
 0001:000ffe60       __set_sbh_threshold        00500e60 f   libcmtd:sbheap.obj
 0001:000ffe80       ___sbh_heap_init           00500e80 f   libcmtd:sbheap.obj
 0001:000ffee0       ___sbh_find_block          00500ee0 f   libcmtd:sbheap.obj
 0001:000fff40       ___sbh_verify_block        00500f40 f   libcmtd:sbheap.obj
 0001:000fffa0       ___sbh_free_block          00500fa0 f   libcmtd:sbheap.obj
 0001:00100570       ___sbh_alloc_block         00501570 f   libcmtd:sbheap.obj
 0001:00100ab0       ___sbh_alloc_new_region    00501ab0 f   libcmtd:sbheap.obj
 0001:00100bc0       ___sbh_alloc_new_group     00501bc0 f   libcmtd:sbheap.obj
 0001:00100db0       ___sbh_resize_block        00501db0 f   libcmtd:sbheap.obj
 0001:001013a0       ___sbh_heapmin             005023a0 f   libcmtd:sbheap.obj
 0001:001014d0       ___sbh_heap_check          005024d0 f   libcmtd:sbheap.obj
 0001:00101af0       __write                    00502af0 f   libcmtd:write.obj
 0001:00101b80       __write_lk                 00502b80 f   libcmtd:write.obj
 0001:00101e00       __read                     00502e00 f   libcmtd:read.obj
 0001:00101e90       __read_lk                  00502e90 f   libcmtd:read.obj
 0001:001022e0       __lseek                    005032e0 f   libcmtd:lseek.obj
 0001:00102370       __lseek_lk                 00503370 f   libcmtd:lseek.obj
 0001:00102430       _ftell                     00503430 f   libcmtd:ftell.obj
 0001:001024a0       __ftell_lk                 005034a0 f   libcmtd:ftell.obj
 0001:00102740       __alloc_osfhnd             00503740 f   libcmtd:osfinfo.obj
 0001:00102930       __set_osfhnd               00503930 f   libcmtd:osfinfo.obj
 0001:001029f0       __free_osfhnd              005039f0 f   libcmtd:osfinfo.obj
 0001:00102ad0       __get_osfhandle            00503ad0 f   libcmtd:osfinfo.obj
 0001:00102b40       __open_osfhandle           00503b40 f   libcmtd:osfinfo.obj
 0001:00102c50       __lock_fhandle             00503c50 f   libcmtd:osfinfo.obj
 0001:00102ce0       __unlock_fhandle           00503ce0 f   libcmtd:osfinfo.obj
 0001:00102d10       __ioinit                   00503d10 f   libcmtd:ioinit.obj
 0001:00103040       __ioterm                   00504040 f   libcmtd:ioinit.obj
 0001:001030e0       __fltin2                   005040e0 f   libcmtd:cfin.obj
 0001:001031a0       ___loctotime_t             005041a0 f   libcmtd:dtoxtime.obj
 0001:00103290       __XcptFilter               00504290 f   libcmtd:winxfltr.obj
 0001:001034b0       __wincmdln                 005044b0 f   libcmtd:wincmdln.obj
 0001:00103570       __setenvp                  00504570 f   libcmtd:stdenvp.obj
 0001:001036c0       __setargv                  005046c0 f   libcmtd:stdargv.obj
 0001:00103bd0       ___crtGetEnvironmentStringsA 00504bd0 f   libcmtd:a_env.obj
 0001:00103df0       __FF_MSGBANNER             00504df0 f   libcmtd:crt0msg.obj
 0001:00103e40       __NMSG_WRITE               00504e40 f   libcmtd:crt0msg.obj
 0001:00104000       __GET_RTERRMSG             00505000 f   libcmtd:crt0msg.obj
 0001:00104050       ___crtLCMapStringA         00505050 f   libcmtd:a_map.obj
 0001:001043b0       __stricmp                  005053b0 f   libcmtd:stricmp.obj
 0001:001043b0       __strcmpi                  005053b0 f   libcmtd:stricmp.obj
 0001:00104480       ___crtCompareStringA       00505480 f   libcmtd:a_cmp.obj
 0001:001048d0       __toupper                  005058d0 f   libcmtd:toupper.obj
 0001:001048e0       _toupper                   005058e0 f   libcmtd:toupper.obj
 0001:00104980       __toupper_lk               00505980 f   libcmtd:toupper.obj
 0001:00104ac0       _strchr                    00505ac0 f   libcmtd:strchr.obj
 0001:00104ac6       ___from_strstr_to_strchr   00505ac6 f   libcmtd:strchr.obj
 0001:00104b80       _strpbrk                   00505b80 f   libcmtd:strpbrk.obj
 0001:00104bc0       __strrev                   00505bc0 f   libcmtd:strrev.obj
 0001:00104bf0       _strrchr                   00505bf0 f   libcmtd:strrchr.obj
 0001:00104c20       _strstr                    00505c20 f   libcmtd:strstr.obj
 0001:00104ca0       _strspn                    00505ca0 f   libcmtd:strspn.obj
 0001:00104ce0       ___crtGetStringTypeA       00505ce0 f   libcmtd:a_str.obj
 0001:00104ea0       _strncmp                   00505ea0 f   libcmtd:strncmp.obj
 0001:00104ee0       __snprintf                 00505ee0 f   libcmtd:snprintf.obj
 0001:00104fe0       _signal                    00505fe0 f   libcmtd:winsig.obj
 0001:001052b0       _raise                     005062b0 f   libcmtd:winsig.obj
 0001:00105550       ___fpecode                 00506550 f   libcmtd:winsig.obj
 0001:00105560       ___pxcptinfoptrs           00506560 f   libcmtd:winsig.obj
 0001:00105570       ___crtMessageBoxA          00506570 f   libcmtd:crtmbox.obj
 0001:00105630       _strncpy                   00506630 f   libcmtd:strncpy.obj
 0001:00105730       __aulldiv                  00506730 f   libcmtd:ulldiv.obj
 0001:001057a0       __aullrem                  005067a0 f   libcmtd:ullrem.obj
 0001:00105820       ___tzset                   00506820 f   libcmtd:tzset.obj
 0001:00105860       __tzset                    00506860 f   libcmtd:tzset.obj
 0001:00105c30       __isindst                  00506c30 f   libcmtd:tzset.obj
 0001:00106160       _asctime                   00507160 f   libcmtd:asctime.obj
 0001:00106360       _setlocale                 00507360 f   libcmtd:setlocal.obj
 0001:001069f0       __expandlocale             005079f0 f   libcmtd:setlocal.obj
 0001:00106b80       ___init_dummy              00507b80 f   libcmtd:setlocal.obj
 0001:00106b90       __strcats                  00507b90 f   libcmtd:setlocal.obj
 0001:00106be0       ___lc_strtolc              00507be0 f   libcmtd:setlocal.obj
 0001:00106d40       ___lc_lctostr              00507d40 f   libcmtd:setlocal.obj
 0001:00106db0       __woutput                  00507db0 f   libcmtd:woutput.obj
 0001:00107b90       __frnd                     00508b90 f   libcmtd:frnd.obj
 0001:00107bb0       __copysign                 00508bb0 f   libcmtd:ieeemisc.obj
 0001:00107be0       __chgsign                  00508be0 f   libcmtd:ieeemisc.obj
 0001:00107c10       __scalb                    00508c10 f   libcmtd:ieeemisc.obj
 0001:00107c30       __logb                     00508c30 f   libcmtd:ieeemisc.obj
 0001:00107d60       __nextafter                00508d60 f   libcmtd:ieeemisc.obj
 0001:001080a0       __finite                   005090a0 f   libcmtd:ieeemisc.obj
 0001:001080d0       __isnan                    005090d0 f   libcmtd:ieeemisc.obj
 0001:00108120       __fpclass                  00509120 f   libcmtd:ieeemisc.obj
 0001:00108200       __fltout2                  00509200 f   libcmtd:cfout.obj
 0001:00108280       ___dtold                   00509280 f   libcmtd:cfout.obj
 0001:001083f0       ?_ValidateRead@@YAHPBXI@Z  005093f0 f   libcmtd:validate.obj
 0001:00108420       ?_ValidateWrite@@YAHPAXI@Z 00509420 f   libcmtd:validate.obj
 0001:00108450       ?_ValidateExecute@@YAHP6GHXZ@Z 00509450 f   libcmtd:validate.obj
 0001:00108480       _abort                     00509480 f   libcmtd:abort.obj
 0001:001084a0       __fcloseall                005094a0 f   libcmtd:closeall.obj
 0001:00108580       __commit                   00509580 f   libcmtd:commit.obj
 0001:00108660       __isatty                   00509660 f   libcmtd:isatty.obj
 0001:001086a0       _wctomb                    005096a0 f   libcmtd:wctomb.obj
 0001:00108720       __wctomb_lk                00509720 f   libcmtd:wctomb.obj
 0001:001087c0       __open                     005097c0 f   libcmtd:open.obj
 0001:00108800       __sopen                    00509800 f   libcmtd:open.obj
 0001:00108d60       __statusfp                 00509d60 f   libcmtd:ieee87.obj
 0001:00108d80       __clearfp                  00509d80 f   libcmtd:ieee87.obj
 0001:00108da0       __control87                00509da0 f   libcmtd:ieee87.obj
 0001:00108df0       __controlfp                00509df0 f   libcmtd:ieee87.obj
 0001:00108e10       __fpreset                  00509e10 f   libcmtd:ieee87.obj
 0001:00109200       __tolower                  0050a200 f   libcmtd:tolower.obj
 0001:00109210       _tolower                   0050a210 f   libcmtd:tolower.obj
 0001:001092b0       __tolower_lk               0050a2b0 f   libcmtd:tolower.obj
 0001:001093e0       __ZeroTail                 0050a3e0 f   libcmtd:intrncvt.obj
 0001:00109470       __IncMan                   0050a470 f   libcmtd:intrncvt.obj
 0001:00109520       __RoundMan                 0050a520 f   libcmtd:intrncvt.obj
 0001:00109600       __CopyMan                  0050a600 f   libcmtd:intrncvt.obj
 0001:00109650       __FillZeroMan              0050a650 f   libcmtd:intrncvt.obj
 0001:00109680       __IsZeroMan                0050a680 f   libcmtd:intrncvt.obj
 0001:001096c0       __ShrMan                   0050a6c0 f   libcmtd:intrncvt.obj
 0001:001097b0       __ld12cvt                  0050a7b0 f   libcmtd:intrncvt.obj
 0001:00109a00       __ld12tod                  0050aa00 f   libcmtd:intrncvt.obj
 0001:00109a20       __ld12tof                  0050aa20 f   libcmtd:intrncvt.obj
 0001:00109a40       __ld12told                 0050aa40 f   libcmtd:intrncvt.obj
 0001:00109b00       __atodbl                   0050ab00 f   libcmtd:intrncvt.obj
 0001:00109b40       __atoldbl                  0050ab40 f   libcmtd:intrncvt.obj
 0001:00109b80       __atoflt                   0050ab80 f   libcmtd:intrncvt.obj
 0001:00109bc0       __fptostr                  0050abc0 f   libcmtd:_fptostr.obj
 0001:00109cc0       __fptrap                   0050acc0 f   libcmtd:crt0fp.obj
 0001:00109cd0       __getbuf                   0050acd0 f   libcmtd:_getbuf.obj
 0001:00109da0       __87except                 0050ada0 f   libcmtd:87except.obj
 0001:00109f20       _fdiv_main_routine         0050af20 f   libcmtd:adj_fdiv.obj
 0001:0010a037       __adj_fdiv_r               0050b037 f   libcmtd:adj_fdiv.obj
 0001:0010a4d6       __fdivp_sti_st             0050b4d6 f   libcmtd:adj_fdiv.obj
 0001:0010a4e9       __fdivrp_sti_st            0050b4e9 f   libcmtd:adj_fdiv.obj
 0001:0010a4fc       __adj_fdiv_m32             0050b4fc f   libcmtd:adj_fdiv.obj
 0001:0010a548       __adj_fdiv_m64             0050b548 f   libcmtd:adj_fdiv.obj
 0001:0010a594       __adj_fdiv_m16i            0050b594 f   libcmtd:adj_fdiv.obj
 0001:0010a5c8       __adj_fdiv_m32i            0050b5c8 f   libcmtd:adj_fdiv.obj
 0001:0010a5fc       __adj_fdivr_m32            0050b5fc f   libcmtd:adj_fdiv.obj
 0001:0010a648       __adj_fdivr_m64            0050b648 f   libcmtd:adj_fdiv.obj
 0001:0010a694       __adj_fdivr_m16i           0050b694 f   libcmtd:adj_fdiv.obj
 0001:0010a6c8       __adj_fdivr_m32i           0050b6c8 f   libcmtd:adj_fdiv.obj
 0001:0010a6fc       __safe_fdiv                0050b6fc f   libcmtd:adj_fdiv.obj
 0001:0010a711       __safe_fdivr               0050b711 f   libcmtd:adj_fdiv.obj
 0001:0010a726       __fprem_common             0050b726 f   libcmtd:adj_fdiv.obj
 0001:0010a92c       __adj_fprem                0050b92c f   libcmtd:adj_fdiv.obj
 0001:0010a9de       __fprem1_common            0050b9de f   libcmtd:adj_fdiv.obj
 0001:0010abe4       __adj_fprem1               0050bbe4 f   libcmtd:adj_fdiv.obj
 0001:0010ac99       __safe_fprem               0050bc99 f   libcmtd:adj_fdiv.obj
 0001:0010ac9f       __safe_fprem1              0050bc9f f   libcmtd:adj_fdiv.obj
 0001:0010aca5       __adj_fpatan               0050bca5 f   libcmtd:adj_fdiv.obj
 0001:0010aca8       __adj_fptan                0050bca8 f   libcmtd:adj_fdiv.obj
 0001:0010acb0       __matherr                  0050bcb0 f   libcmtd:matherr.obj
 0001:0010acc0       _mbtowc                    0050bcc0 f   libcmtd:mbtowc.obj
 0001:0010ad40       __mbtowc_lk                0050bd40 f   libcmtd:mbtowc.obj
 0001:0010aea0       _isalpha                   0050bea0 f   libcmtd:_ctype.obj
 0001:0010aef0       _isupper                   0050bef0 f   libcmtd:_ctype.obj
 0001:0010af30       _islower                   0050bf30 f   libcmtd:_ctype.obj
 0001:0010af70       _isdigit                   0050bf70 f   libcmtd:_ctype.obj
 0001:0010afb0       _isxdigit                  0050bfb0 f   libcmtd:_ctype.obj
 0001:0010b000       _isspace                   0050c000 f   libcmtd:_ctype.obj
 0001:0010b040       _ispunct                   0050c040 f   libcmtd:_ctype.obj
 0001:0010b080       _isalnum                   0050c080 f   libcmtd:_ctype.obj
 0001:0010b0d0       _isprint                   0050c0d0 f   libcmtd:_ctype.obj
 0001:0010b120       _isgraph                   0050c120 f   libcmtd:_ctype.obj
 0001:0010b170       _iscntrl                   0050c170 f   libcmtd:_ctype.obj
 0001:0010b1b0       ___isascii                 0050c1b0 f   libcmtd:_ctype.obj
 0001:0010b1c0       ___toascii                 0050c1c0 f   libcmtd:_ctype.obj
 0001:0010b1d0       ___iscsymf                 0050c1d0 f   libcmtd:_ctype.obj
 0001:0010b230       ___iscsym                  0050c230 f   libcmtd:_ctype.obj
 0001:0010b290       __allshl                   0050c290 f   libcmtd:llshl.obj
 0001:0010b2b0       _ungetc                    0050c2b0 f   libcmtd:ungetc.obj
 0001:0010b320       __ungetc_lk                0050c320 f   libcmtd:ungetc.obj
 0001:0010b460       ___strgtold12              0050c460 f   libcmtd:strgtold.obj
 0001:0010bf90       ___STRINGTOLD              0050cf90 f   libcmtd:strgtold.obj
 0001:0010bfe0       __ismbbkalnum              0050cfe0 f   libcmtd:ismbbyte.obj
 0001:0010c000       __ismbbkprint              0050d000 f   libcmtd:ismbbyte.obj
 0001:0010c020       __ismbbkpunct              0050d020 f   libcmtd:ismbbyte.obj
 0001:0010c040       __ismbbalnum               0050d040 f   libcmtd:ismbbyte.obj
 0001:0010c060       __ismbbalpha               0050d060 f   libcmtd:ismbbyte.obj
 0001:0010c080       __ismbbgraph               0050d080 f   libcmtd:ismbbyte.obj
 0001:0010c0a0       __ismbbprint               0050d0a0 f   libcmtd:ismbbyte.obj
 0001:0010c0c0       __ismbbpunct               0050d0c0 f   libcmtd:ismbbyte.obj
 0001:0010c0e0       __ismbblead                0050d0e0 f   libcmtd:ismbbyte.obj
 0001:0010c100       __ismbbtrail               0050d100 f   libcmtd:ismbbyte.obj
 0001:0010c120       __ismbbkana                0050d120 f   libcmtd:ismbbyte.obj
 0001:0010c1d0       _getenv                    0050d1d0 f   libcmtd:getenv.obj
 0001:0010c200       __getenv_lk                0050d200 f   libcmtd:getenv.obj
 0001:0010c2d0       ___init_time               0050d2d0 f   libcmtd:inittime.obj
 0001:0010cc50       ___init_numeric            0050dc50 f   libcmtd:initnum.obj
 0001:0010cf80       ___init_monetary           0050df80 f   libcmtd:initmon.obj
 0001:0010d3e0       ___init_ctype              0050e3e0 f   libcmtd:initctyp.obj
 0001:0010d780       ___init_collate            0050e780 f   libcmtd:initcoll.obj
 0001:0010d790       ___get_qualified_locale    0050e790 f   libcmtd:getqloc.obj
 0001:0010e530       _fputwc                    0050f530 f   libcmtd:fputwc.obj
 0001:0010e5b0       __putwc_lk                 0050f5b0 f   libcmtd:fputwc.obj
 0001:0010e7e0       _putwc                     0050f7e0 f   libcmtd:fputwc.obj
 0001:0010e800       _ldexp                     0050f800 f   libcmtd:ldexp.obj
 0001:0010eac0       _$I10_OUTPUT               0050fac0 f   libcmtd:x10fout.obj
 0001:0010efe0       __chsize                   0050ffe0 f   libcmtd:chsize.obj
 0001:0010f060       __chsize_lk                00510060 f   libcmtd:chsize.obj
 0001:0010f290       ___addl                    00510290 f   libcmtd:mantold.obj
 0001:0010f2d0       ___add_12                  005102d0 f   libcmtd:mantold.obj
 0001:0010f380       ___shl_12                  00510380 f   libcmtd:mantold.obj
 0001:0010f3e0       ___shr_12                  005103e0 f   libcmtd:mantold.obj
 0001:0010f450       ___mtold12                 00510450 f   libcmtd:mantold.obj
 0001:0010f590       ___ld12mul                 00510590 f   libcmtd:tenpow.obj
 0001:0010f9d0       ___multtenpow12            005109d0 f   libcmtd:tenpow.obj
 0001:0010faa0       __mbsnbicoll               00510aa0 f   libcmtd:mbsnbico.obj
 0001:0010faf0       ___wtomb_environ           00510af0 f   libcmtd:wtombenv.obj
 0001:0010fba0       ___getlocaleinfo           00510ba0 f   libcmtd:inithelp.obj
 0001:0010fe30       ___crtGetStringTypeW       00510e30 f   libcmtd:w_str.obj
 0001:001100a0       __strnicmp                 005110a0 f   libcmtd:strnicmp.obj
 0001:001101b0       __flswbuf                  005111b0 f   libcmtd:_flswbuf.obj
 0001:00110440       __setmode                  00511440 f   libcmtd:setmode.obj
 0001:001104c0       __setmode_lk               005114c0 f   libcmtd:setmode.obj
 0001:00110590       ___crtsetenv               00511590 f   libcmtd:setenv.obj
 0001:001109e0       ___crtGetLocaleInfoW       005119e0 f   libcmtd:w_loc.obj
 0001:00110b80       ___crtGetLocaleInfoA       00511b80 f   libcmtd:a_loc.obj
 0001:00110d26       _GlobalUnlock@4            00511d26 f   kernel32:KERNEL32.dll
 0001:00110d2c       _GlobalLock@4              00511d2c f   kernel32:KERNEL32.dll
 0001:00110d32       _GlobalAlloc@8             00511d32 f   kernel32:KERNEL32.dll
 0001:00110d38       _FreeResource@4            00511d38 f   kernel32:KERNEL32.dll
 0001:00110d3e       _LoadResource@8            00511d3e f   kernel32:KERNEL32.dll
 0001:00110d44       _FindResourceA@12          00511d44 f   kernel32:KERNEL32.dll
 0001:00110d4a       _LockResource@4            00511d4a f   kernel32:KERNEL32.dll
 0001:00110d50       _GlobalFree@4              00511d50 f   kernel32:KERNEL32.dll
 0001:00110d56       _GetLastError@0            00511d56 f   kernel32:KERNEL32.dll
 0001:00110d5c       _GetProcAddress@8          00511d5c f   kernel32:KERNEL32.dll
 0001:00110d62       _GetModuleHandleA@4        00511d62 f   kernel32:KERNEL32.dll
 0001:00110d68       _lstrcpyA@8                00511d68 f   kernel32:KERNEL32.dll
 0001:00110d6e       _GlobalDeleteAtom@4        00511d6e f   kernel32:KERNEL32.dll
 0001:00110d74       _GlobalFindAtomA@4         00511d74 f   kernel32:KERNEL32.dll
 0001:00110d7a       _GlobalAddAtomA@4          00511d7a f   kernel32:KERNEL32.dll
 0001:00110d80       _lstrcmpiA@8               00511d80 f   kernel32:KERNEL32.dll
 0001:00110d86       _GlobalGetAtomNameA@12     00511d86 f   kernel32:KERNEL32.dll
 0001:00110d8c       _GetCurrentThreadId@0      00511d8c f   kernel32:KERNEL32.dll
 0001:00110d92       _lstrcatA@8                00511d92 f   kernel32:KERNEL32.dll
 0001:00110d98       _lstrlenA@4                00511d98 f   kernel32:KERNEL32.dll
 0001:00110d9e       _GetVersion@0              00511d9e f   kernel32:KERNEL32.dll
 0001:00110da4       _FreeLibrary@4             00511da4 f   kernel32:KERNEL32.dll
 0001:00110daa       _LoadLibraryA@4            00511daa f   kernel32:KERNEL32.dll
 0001:00110db0       _SetThreadPriority@8       00511db0 f   kernel32:KERNEL32.dll
 0001:00110db6       _GetThreadPriority@4       00511db6 f   kernel32:KERNEL32.dll
 0001:00110dbc       _ResumeThread@4            00511dbc f   kernel32:KERNEL32.dll
 0001:00110dc2       _SuspendThread@4           00511dc2 f   kernel32:KERNEL32.dll
 0001:00110dc8       _InterlockedIncrement@4    00511dc8 f   kernel32:KERNEL32.dll
 0001:00110dce       _InterlockedDecrement@4    00511dce f   kernel32:KERNEL32.dll
 0001:00110dd4       _WideCharToMultiByte@32    00511dd4 f   kernel32:KERNEL32.dll
 0001:00110dda       _MultiByteToWideChar@24    00511dda f   kernel32:KERNEL32.dll
 0001:00110de0       _lstrcpynA@12              00511de0 f   kernel32:KERNEL32.dll
 0001:00110de6       _LocalFree@4               00511de6 f   kernel32:KERNEL32.dll
 0001:00110dec       _FormatMessageA@28         00511dec f   kernel32:KERNEL32.dll
 0001:00110df2       _lstrcmpA@8                00511df2 f   kernel32:KERNEL32.dll
 0001:00110df8       _GetCurrentThread@0        00511df8 f   kernel32:KERNEL32.dll
 0001:00110dfe       _GetModuleFileNameA@12     00511dfe f   kernel32:KERNEL32.dll
 0001:00110e04       _CloseHandle@4             00511e04 f   kernel32:KERNEL32.dll
 0001:00110e0a       _WaitForSingleObject@8     00511e0a f   kernel32:KERNEL32.dll
 0001:00110e10       _SetEvent@4                00511e10 f   kernel32:KERNEL32.dll
 0001:00110e16       _CreateEventA@16           00511e16 f   kernel32:KERNEL32.dll
 0001:00110e1c       _GetPrivateProfileIntA@16  00511e1c f   kernel32:KERNEL32.dll
 0001:00110e22       _GetPrivateProfileStringA@24 00511e22 f   kernel32:KERNEL32.dll
 0001:00110e28       _WritePrivateProfileStringA@16 00511e28 f   kernel32:KERNEL32.dll
 0001:00110e2e       _VirtualProtect@16         00511e2e f   kernel32:KERNEL32.dll
 0001:00110e34       _SetLastError@4            00511e34 f   kernel32:KERNEL32.dll
 0001:00110e3a       _MulDiv@12                 00511e3a f   kernel32:KERNEL32.dll
 0001:00110e40       _GetFileAttributesA@4      00511e40 f   kernel32:KERNEL32.dll
 0001:00110e46       _GetTempFileNameA@16       00511e46 f   kernel32:KERNEL32.dll
 0001:00110e4c       _GetFullPathNameA@16       00511e4c f   kernel32:KERNEL32.dll
 0001:00110e52       _SetFileTime@16            00511e52 f   kernel32:KERNEL32.dll
 0001:00110e58       _GetFileTime@16            00511e58 f   kernel32:KERNEL32.dll
 0001:00110e5e       _GetDiskFreeSpaceA@20      00511e5e f   kernel32:KERNEL32.dll
 0001:00110e64       _DuplicateHandle@28        00511e64 f   kernel32:KERNEL32.dll
 0001:00110e6a       _GetCurrentProcess@0       00511e6a f   kernel32:KERNEL32.dll
 0001:00110e70       _CreateFileA@28            00511e70 f   kernel32:KERNEL32.dll
 0001:00110e76       _ReadFile@20               00511e76 f   kernel32:KERNEL32.dll
 0001:00110e7c       _WriteFile@20              00511e7c f   kernel32:KERNEL32.dll
 0001:00110e82       _SetFilePointer@16         00511e82 f   kernel32:KERNEL32.dll
 0001:00110e88       _FlushFileBuffers@4        00511e88 f   kernel32:KERNEL32.dll
 0001:00110e8e       _LockFile@20               00511e8e f   kernel32:KERNEL32.dll
 0001:00110e94       _UnlockFile@20             00511e94 f   kernel32:KERNEL32.dll
 0001:00110e9a       _SetEndOfFile@4            00511e9a f   kernel32:KERNEL32.dll
 0001:00110ea0       _MoveFileA@8               00511ea0 f   kernel32:KERNEL32.dll
 0001:00110ea6       _DeleteFileA@4             00511ea6 f   kernel32:KERNEL32.dll
 0001:00110eac       _FindClose@4               00511eac f   kernel32:KERNEL32.dll
 0001:00110eb2       _FindFirstFileA@8          00511eb2 f   kernel32:KERNEL32.dll
 0001:00110eb8       _GetVolumeInformationA@32  00511eb8 f   kernel32:KERNEL32.dll
 0001:00110ebe       _GetStringTypeExA@20       00511ebe f   kernel32:KERNEL32.dll
 0001:00110ec4       _GetThreadLocale@0         00511ec4 f   kernel32:KERNEL32.dll
 0001:00110eca       _GetShortPathNameA@12      00511eca f   kernel32:KERNEL32.dll
 0001:00110ed0       _GetFileSize@8             00511ed0 f   kernel32:KERNEL32.dll
 0001:00110ed6       _LocalFileTimeToFileTime@8 00511ed6 f   kernel32:KERNEL32.dll
 0001:00110edc       _SystemTimeToFileTime@8    00511edc f   kernel32:KERNEL32.dll
 0001:00110ee2       _SetFileAttributesA@8      00511ee2 f   kernel32:KERNEL32.dll
 0001:00110ee8       _GlobalFlags@4             00511ee8 f   kernel32:KERNEL32.dll
 0001:00110eee       _IsBadStringPtrW@8         00511eee f   kernel32:KERNEL32.dll
 0001:00110ef4       _IsBadStringPtrA@8         00511ef4 f   kernel32:KERNEL32.dll
 0001:00110efa       _IsBadWritePtr@8           00511efa f   kernel32:KERNEL32.dll
 0001:00110f00       _IsBadReadPtr@8            00511f00 f   kernel32:KERNEL32.dll
 0001:00110f06       _SizeofResource@8          00511f06 f   kernel32:KERNEL32.dll
 0001:00110f0c       _GetProcessVersion@4       00511f0c f   kernel32:KERNEL32.dll
 0001:00110f12       _GetCPInfo@8               00511f12 f   kernel32:KERNEL32.dll
 0001:00110f18       _GetOEMCP@0                00511f18 f   kernel32:KERNEL32.dll
 0001:00110f1e       _InitializeCriticalSection@4 00511f1e f   kernel32:KERNEL32.dll
 0001:00110f24       _DeleteCriticalSection@4   00511f24 f   kernel32:KERNEL32.dll
 0001:00110f2a       _LeaveCriticalSection@4    00511f2a f   kernel32:KERNEL32.dll
 0001:00110f30       _EnterCriticalSection@4    00511f30 f   kernel32:KERNEL32.dll
 0001:00110f36       _LocalAlloc@8              00511f36 f   kernel32:KERNEL32.dll
 0001:00110f3c       _TlsAlloc@0                00511f3c f   kernel32:KERNEL32.dll
 0001:00110f42       _GlobalHandle@4            00511f42 f   kernel32:KERNEL32.dll
 0001:00110f48       _TlsFree@4                 00511f48 f   kernel32:KERNEL32.dll
 0001:00110f4e       _GlobalReAlloc@12          00511f4e f   kernel32:KERNEL32.dll
 0001:00110f54       _TlsSetValue@8             00511f54 f   kernel32:KERNEL32.dll
 0001:00110f5a       _LocalReAlloc@12           00511f5a f   kernel32:KERNEL32.dll
 0001:00110f60       _TlsGetValue@4             00511f60 f   kernel32:KERNEL32.dll
 0001:00110f66       _FileTimeToSystemTime@8    00511f66 f   kernel32:KERNEL32.dll
 0001:00110f6c       _FileTimeToLocalFileTime@8 00511f6c f   kernel32:KERNEL32.dll
 0001:00110f72       _GetProfileIntA@12         00511f72 f   kernel32:KERNEL32.dll
 0001:00110f78       _GetCurrentDirectoryA@8    00511f78 f   kernel32:KERNEL32.dll
 0001:00110f7e       _OutputDebugStringA@4      00511f7e f   kernel32:KERNEL32.dll
 0001:00110f84       _SetErrorMode@4            00511f84 f   kernel32:KERNEL32.dll
 0001:00110f8a       _GlobalSize@4              00511f8a f   kernel32:KERNEL32.dll
 0001:00110f90       _CopyFileA@12              00511f90 f   kernel32:KERNEL32.dll
 0001:00110f96       _lstrlenW@4                00511f96 f   kernel32:KERNEL32.dll
 0001:00110f9c       _GetTickCount@0            00511f9c f   kernel32:KERNEL32.dll
 0001:00110fa2       _lstrcpyW@8                00511fa2 f   kernel32:KERNEL32.dll
 0001:00110fa8       _RtlUnwind@16              00511fa8 f   kernel32:KERNEL32.dll
 0001:00110fae       _RaiseException@16         00511fae f   kernel32:KERNEL32.dll
 0001:00110fb4       _ExitProcess@4             00511fb4 f   kernel32:KERNEL32.dll
 0001:00110fba       _TerminateProcess@8        00511fba f   kernel32:KERNEL32.dll
 0001:00110fc0       _HeapValidate@12           00511fc0 f   kernel32:KERNEL32.dll
 0001:00110fc6       _GetTimeZoneInformation@4  00511fc6 f   kernel32:KERNEL32.dll
 0001:00110fcc       _GetSystemTime@4           00511fcc f   kernel32:KERNEL32.dll
 0001:00110fd2       _GetLocalTime@4            00511fd2 f   kernel32:KERNEL32.dll
 0001:00110fd8       _GetStartupInfoA@4         00511fd8 f   kernel32:KERNEL32.dll
 0001:00110fde       _GetCommandLineA@0         00511fde f   kernel32:KERNEL32.dll
 0001:00110fe4       _CreateThread@24           00511fe4 f   kernel32:KERNEL32.dll
 0001:00110fea       _ExitThread@4              00511fea f   kernel32:KERNEL32.dll
 0001:00110ff0       _DebugBreak@0              00511ff0 f   kernel32:KERNEL32.dll
 0001:00110ff6       _GetStdHandle@4            00511ff6 f   kernel32:KERNEL32.dll
 0001:00110ffc       _GetACP@0                  00511ffc f   kernel32:KERNEL32.dll
 0001:00111002       _FatalAppExitA@8           00512002 f   kernel32:KERNEL32.dll
 0001:00111008       _HeapFree@12               00512008 f   kernel32:KERNEL32.dll
 0001:0011100e       _SetUnhandledExceptionFilter@4 0051200e f   kernel32:KERNEL32.dll
 0001:00111014       _HeapAlloc@12              00512014 f   kernel32:KERNEL32.dll
 0001:0011101a       _HeapReAlloc@16            0051201a f   kernel32:KERNEL32.dll
 0001:00111020       _HeapDestroy@4             00512020 f   kernel32:KERNEL32.dll
 0001:00111026       _HeapCreate@12             00512026 f   kernel32:KERNEL32.dll
 0001:0011102c       _VirtualFree@12            0051202c f   kernel32:KERNEL32.dll
 0001:00111032       _VirtualAlloc@16           00512032 f   kernel32:KERNEL32.dll
 0001:00111038       _SetStdHandle@8            00512038 f   kernel32:KERNEL32.dll
 0001:0011103e       _GetFileType@4             0051203e f   kernel32:KERNEL32.dll
 0001:00111044       _SetHandleCount@4          00512044 f   kernel32:KERNEL32.dll
 0001:0011104a       _UnhandledExceptionFilter@4 0051204a f   kernel32:KERNEL32.dll
 0001:00111050       _FreeEnvironmentStringsA@4 00512050 f   kernel32:KERNEL32.dll
 0001:00111056       _FreeEnvironmentStringsW@4 00512056 f   kernel32:KERNEL32.dll
 0001:0011105c       _GetEnvironmentStrings@0   0051205c f   kernel32:KERNEL32.dll
 0001:00111062       _GetEnvironmentStringsW@0  00512062 f   kernel32:KERNEL32.dll
 0001:00111068       _LCMapStringA@24           00512068 f   kernel32:KERNEL32.dll
 0001:0011106e       _LCMapStringW@24           0051206e f   kernel32:KERNEL32.dll
 0001:00111074       _CompareStringA@24         00512074 f   kernel32:KERNEL32.dll
 0001:0011107a       _CompareStringW@24         0051207a f   kernel32:KERNEL32.dll
 0001:00111080       _GetStringTypeA@20         00512080 f   kernel32:KERNEL32.dll
 0001:00111086       _GetStringTypeW@16         00512086 f   kernel32:KERNEL32.dll
 0001:0011108c       _SetConsoleCtrlHandler@8   0051208c f   kernel32:KERNEL32.dll
 0001:00111092       _Sleep@4                   00512092 f   kernel32:KERNEL32.dll
 0001:00111098       _IsBadCodePtr@4            00512098 f   kernel32:KERNEL32.dll
 0001:0011109e       _IsValidLocale@8           0051209e f   kernel32:KERNEL32.dll
 0001:001110a4       _IsValidCodePage@4         005120a4 f   kernel32:KERNEL32.dll
 0001:001110aa       _GetLocaleInfoA@16         005120aa f   kernel32:KERNEL32.dll
 0001:001110b0       _EnumSystemLocalesA@8      005120b0 f   kernel32:KERNEL32.dll
 0001:001110b6       _GetUserDefaultLCID@0      005120b6 f   kernel32:KERNEL32.dll
 0001:001110bc       _GetVersionExA@4           005120bc f   kernel32:KERNEL32.dll
 0001:001110c2       _SetEnvironmentVariableA@8 005120c2 f   kernel32:KERNEL32.dll
 0001:001110c8       _GetLocaleInfoW@16         005120c8 f   kernel32:KERNEL32.dll
 0001:001110ce       _MessageBoxA@16            005120ce f   user32:USER32.dll
 0001:001110d4       _MessageBeep@4             005120d4 f   user32:USER32.dll
 0001:001110da       _SetCursor@4               005120da f   user32:USER32.dll
 0001:001110e0       _IsWindowEnabled@4         005120e0 f   user32:USER32.dll
 0001:001110e6       _GetDlgItem@8              005120e6 f   user32:USER32.dll
 0001:001110ec       _GetWindowLongA@8          005120ec f   user32:USER32.dll
 0001:001110f2       _DestroyWindow@4           005120f2 f   user32:USER32.dll
 0001:001110f8       _CreateDialogIndirectParamA@20 005120f8 f   user32:USER32.dll
 0001:001110fe       _GetSystemMetrics@4        005120fe f   user32:USER32.dll
 0001:00111104       _EnableWindow@8            00512104 f   user32:USER32.dll
 0001:0011110a       _IsWindow@4                0051210a f   user32:USER32.dll
 0001:00111110       _SetActiveWindow@4         00512110 f   user32:USER32.dll
 0001:00111116       _GetActiveWindow@0         00512116 f   user32:USER32.dll
 0001:0011111c       _EndDialog@8               0051211c f   user32:USER32.dll
 0001:00111122       _GetWindowRect@8           00512122 f   user32:USER32.dll
 0001:00111128       _GetWindowPlacement@8      00512128 f   user32:USER32.dll
 0001:0011112e       _IsIconic@4                0051212e f   user32:USER32.dll
 0001:00111134       _SystemParametersInfoA@16  00512134 f   user32:USER32.dll
 0001:0011113a       _IntersectRect@12          0051213a f   user32:USER32.dll
 0001:00111140       _OffsetRect@12             00512140 f   user32:USER32.dll
 0001:00111146       _RegisterWindowMessageA@4  00512146 f   user32:USER32.dll
 0001:0011114c       _SetWindowPos@28           0051214c f   user32:USER32.dll
 0001:00111152       _SetWindowLongA@12         00512152 f   user32:USER32.dll
 0001:00111158       _GetMessagePos@0           00512158 f   user32:USER32.dll
 0001:0011115e       _GetMessageTime@0          0051215e f   user32:USER32.dll
 0001:00111164       _RemovePropA@8             00512164 f   user32:USER32.dll
 0001:0011116a       _CallWindowProcA@20        0051216a f   user32:USER32.dll
 0001:00111170       _GetPropA@8                00512170 f   user32:USER32.dll
 0001:00111176       _UnhookWindowsHookEx@4     00512176 f   user32:USER32.dll
 0001:0011117c       _SetPropA@12               0051217c f   user32:USER32.dll
 0001:00111182       _GetClassLongA@8           00512182 f   user32:USER32.dll
 0001:00111188       _CallNextHookEx@16         00512188 f   user32:USER32.dll
 0001:0011118e       _SetWindowsHookExA@16      0051218e f   user32:USER32.dll
 0001:00111194       _CreateWindowExA@48        00512194 f   user32:USER32.dll
 0001:0011119a       _GetDlgCtrlID@4            0051219a f   user32:USER32.dll
 0001:001111a0       _GetClassNameA@12          005121a0 f   user32:USER32.dll
 0001:001111a6       _DefWindowProcA@16         005121a6 f   user32:USER32.dll
 0001:001111ac       _SendMessageA@16           005121ac f   user32:USER32.dll
 0001:001111b2       _GetKeyState@4             005121b2 f   user32:USER32.dll
 0001:001111b8       _GetWindowTextA@12         005121b8 f   user32:USER32.dll
 0001:001111be       _GetWindowTextLengthA@4    005121be f   user32:USER32.dll
 0001:001111c4       _SetWindowPlacement@8      005121c4 f   user32:USER32.dll
 0001:001111ca       _TrackPopupMenu@28         005121ca f   user32:USER32.dll
 0001:001111d0       _RegisterClassA@4          005121d0 f   user32:USER32.dll
 0001:001111d6       _GetClassInfoA@12          005121d6 f   user32:USER32.dll
 0001:001111dc       _wsprintfA                 005121dc f   user32:USER32.dll
 0001:001111e2       _WinHelpA@16               005121e2 f   user32:USER32.dll
 0001:001111e8       _GetCapture@0              005121e8 f   user32:USER32.dll
 0001:001111ee       _GetWindow@8               005121ee f   user32:USER32.dll
 0001:001111f4       _GetParent@4               005121f4 f   user32:USER32.dll
 0001:001111fa       _IsChild@8                 005121fa f   user32:USER32.dll
 0001:00111200       _GetTopWindow@4            00512200 f   user32:USER32.dll
 0001:00111206       _SetScrollPos@16           00512206 f   user32:USER32.dll
 0001:0011120c       _GetScrollPos@8            0051220c f   user32:USER32.dll
 0001:00111212       _SetScrollRange@20         00512212 f   user32:USER32.dll
 0001:00111218       _GetScrollRange@16         00512218 f   user32:USER32.dll
 0001:0011121e       _SetScrollInfo@16          0051221e f   user32:USER32.dll
 0001:00111224       _GetScrollInfo@12          00512224 f   user32:USER32.dll
 0001:0011122a       _ScrollWindow@20           0051222a f   user32:USER32.dll
 0001:00111230       _EndDeferWindowPos@4       00512230 f   user32:USER32.dll
 0001:00111236       _CopyRect@8                00512236 f   user32:USER32.dll
 0001:0011123c       _BeginDeferWindowPos@4     0051223c f   user32:USER32.dll
 0001:00111242       _DeferWindowPos@32         00512242 f   user32:USER32.dll
 0001:00111248       _EqualRect@8               00512248 f   user32:USER32.dll
 0001:0011124e       _ScreenToClient@8          0051224e f   user32:USER32.dll
 0001:00111254       _AdjustWindowRectEx@16     00512254 f   user32:USER32.dll
 0001:0011125a       _SetFocus@4                0051225a f   user32:USER32.dll
 0001:00111260       _GetFocus@0                00512260 f   user32:USER32.dll
 0001:00111266       _DispatchMessageA@4        00512266 f   user32:USER32.dll
 0001:0011126c       _PeekMessageA@20           0051226c f   user32:USER32.dll
 0001:00111272       _GetSysColor@4             00512272 f   user32:USER32.dll
 0001:00111278       _MapWindowPoints@16        00512278 f   user32:USER32.dll
 0001:0011127e       _GetClientRect@8           0051227e f   user32:USER32.dll
 0001:00111284       _SendDlgItemMessageA@20    00512284 f   user32:USER32.dll
 0001:0011128a       _LoadIconA@8               0051228a f   user32:USER32.dll
 0001:00111290       _CheckDlgButton@12         00512290 f   user32:USER32.dll
 0001:00111296       _CheckRadioButton@16       00512296 f   user32:USER32.dll
 0001:0011129c       _GetDlgItemInt@16          0051229c f   user32:USER32.dll
 0001:001112a2       _GetDlgItemTextA@16        005122a2 f   user32:USER32.dll
 0001:001112a8       _SetDlgItemInt@16          005122a8 f   user32:USER32.dll
 0001:001112ae       _SetDlgItemTextA@12        005122ae f   user32:USER32.dll
 0001:001112b4       _IsDlgButtonChecked@8      005122b4 f   user32:USER32.dll
 0001:001112ba       _ScrollWindowEx@32         005122ba f   user32:USER32.dll
 0001:001112c0       _IsDialogMessageA@8        005122c0 f   user32:USER32.dll
 0001:001112c6       _SetWindowTextA@8          005122c6 f   user32:USER32.dll
 0001:001112cc       _MoveWindow@24             005122cc f   user32:USER32.dll
 0001:001112d2       _ShowWindow@8              005122d2 f   user32:USER32.dll
 0001:001112d8       _PostMessageA@16           005122d8 f   user32:USER32.dll
 0001:001112de       _GetMenu@4                 005122de f   user32:USER32.dll
 0001:001112e4       _SetMenu@8                 005122e4 f   user32:USER32.dll
 0001:001112ea       _DrawMenuBar@4             005122ea f   user32:USER32.dll
 0001:001112f0       _GetSystemMenu@8           005122f0 f   user32:USER32.dll
 0001:001112f6       _HiliteMenuItem@16         005122f6 f   user32:USER32.dll
 0001:001112fc       _IsZoomed@4                005122fc f   user32:USER32.dll
 0001:00111302       _ArrangeIconicWindows@4    00512302 f   user32:USER32.dll
 0001:00111308       _SetWindowRgn@12           00512308 f   user32:USER32.dll
 0001:0011130e       _GetWindowRgn@8            0051230e f   user32:USER32.dll
 0001:00111314       _BringWindowToTop@4        00512314 f   user32:USER32.dll
 0001:0011131a       _ClientToScreen@8          0051231a f   user32:USER32.dll
 0001:00111320       _BeginPaint@8              00512320 f   user32:USER32.dll
 0001:00111326       _EndPaint@8                00512326 f   user32:USER32.dll
 0001:0011132c       _GetDC@4                   0051232c f   user32:USER32.dll
 0001:00111332       _GetWindowDC@4             00512332 f   user32:USER32.dll
 0001:00111338       _ReleaseDC@8               00512338 f   user32:USER32.dll
 0001:0011133e       _UpdateWindow@4            0051233e f   user32:USER32.dll
 0001:00111344       _GetUpdateRect@12          00512344 f   user32:USER32.dll
 0001:0011134a       _GetUpdateRgn@12           0051234a f   user32:USER32.dll
 0001:00111350       _InvalidateRect@12         00512350 f   user32:USER32.dll
 0001:00111356       _InvalidateRgn@12          00512356 f   user32:USER32.dll
 0001:0011135c       _ValidateRect@8            0051235c f   user32:USER32.dll
 0001:00111362       _ValidateRgn@8             00512362 f   user32:USER32.dll
 0001:00111368       _IsWindowVisible@4         00512368 f   user32:USER32.dll
 0001:0011136e       _ShowOwnedPopups@8         0051236e f   user32:USER32.dll
 0001:00111374       _GetDCEx@12                00512374 f   user32:USER32.dll
 0001:0011137a       _LockWindowUpdate@4        0051237a f   user32:USER32.dll
 0001:00111380       _RedrawWindow@16           00512380 f   user32:USER32.dll
 0001:00111386       _EnableScrollBar@12        00512386 f   user32:USER32.dll
 0001:0011138c       _SetTimer@16               0051238c f   user32:USER32.dll
 0001:00111392       _KillTimer@8               00512392 f   user32:USER32.dll
 0001:00111398       _SetCapture@4              00512398 f   user32:USER32.dll
 0001:0011139e       _GetDesktopWindow@0        0051239e f   user32:USER32.dll
 0001:001113a4       _DlgDirListA@20            005123a4 f   user32:USER32.dll
 0001:001113aa       _DlgDirListComboBoxA@20    005123aa f   user32:USER32.dll
 0001:001113b0       _DlgDirSelectExA@16        005123b0 f   user32:USER32.dll
 0001:001113b6       _DlgDirSelectComboBoxExA@16 005123b6 f   user32:USER32.dll
 0001:001113bc       _GetNextDlgGroupItem@12    005123bc f   user32:USER32.dll
 0001:001113c2       _GetNextDlgTabItem@12      005123c2 f   user32:USER32.dll
 0001:001113c8       _ShowScrollBar@12          005123c8 f   user32:USER32.dll
 0001:001113ce       _ChildWindowFromPoint@12   005123ce f   user32:USER32.dll
 0001:001113d4       _ChildWindowFromPointEx@16 005123d4 f   user32:USER32.dll
 0001:001113da       _FindWindowA@8             005123da f   user32:USER32.dll
 0001:001113e0       _GetLastActivePopup@4      005123e0 f   user32:USER32.dll
 0001:001113e6       _SetParent@8               005123e6 f   user32:USER32.dll
 0001:001113ec       _WindowFromPoint@8         005123ec f   user32:USER32.dll
 0001:001113f2       _FlashWindow@8             005123f2 f   user32:USER32.dll
 0001:001113f8       _ChangeClipboardChain@8    005123f8 f   user32:USER32.dll
 0001:001113fe       _SetClipboardViewer@4      005123fe f   user32:USER32.dll
 0001:00111404       _OpenClipboard@4           00512404 f   user32:USER32.dll
 0001:0011140a       _GetOpenClipboardWindow@0  0051240a f   user32:USER32.dll
 0001:00111410       _GetClipboardOwner@0       00512410 f   user32:USER32.dll
 0001:00111416       _GetClipboardViewer@0      00512416 f   user32:USER32.dll
 0001:0011141c       _CreateCaret@16            0051241c f   user32:USER32.dll
 0001:00111422       _GetCaretPos@4             00512422 f   user32:USER32.dll
 0001:00111428       _SetCaretPos@8             00512428 f   user32:USER32.dll
 0001:0011142e       _HideCaret@4               0051242e f   user32:USER32.dll
 0001:00111434       _ShowCaret@4               00512434 f   user32:USER32.dll
 0001:0011143a       _SetForegroundWindow@4     0051243a f   user32:USER32.dll
 0001:00111440       _GetForegroundWindow@0     00512440 f   user32:USER32.dll
 0001:00111446       _SendNotifyMessageA@16     00512446 f   user32:USER32.dll
 0001:0011144c       _SetWindowContextHelpId@8  0051244c f   user32:USER32.dll
 0001:00111452       _GetWindowContextHelpId@4  00512452 f   user32:USER32.dll
 0001:00111458       _MapDialogRect@8           00512458 f   user32:USER32.dll
 0001:0011145e       _PostThreadMessageA@16     0051245e f   user32:USER32.dll
 0001:00111464       _LoadCursorA@8             00512464 f   user32:USER32.dll
 0001:0011146a       _CloseWindow@4             0051246a f   user32:USER32.dll
 0001:00111470       _OpenIcon@4                00512470 f   user32:USER32.dll
 0001:00111476       _SetMenuItemBitmaps@20     00512476 f   user32:USER32.dll
 0001:0011147c       _LoadBitmapA@8             0051247c f   user32:USER32.dll
 0001:00111482       _GetMenuCheckMarkDimensions@0 00512482 f   user32:USER32.dll
 0001:00111488       _TabbedTextOutA@32         00512488 f   user32:USER32.dll
 0001:0011148e       _wvsprintfA@12             0051248e f   user32:USER32.dll
 0001:00111494       _CharToOemA@8              00512494 f   user32:USER32.dll
 0001:0011149a       _OemToCharA@8              0051249a f   user32:USER32.dll
 0001:001114a0       _PostQuitMessage@4         005124a0 f   user32:USER32.dll
 0001:001114a6       _GetCursorPos@4            005124a6 f   user32:USER32.dll
 0001:001114ac       _TranslateMessage@4        005124ac f   user32:USER32.dll
 0001:001114b2       _GetMessageA@16            005124b2 f   user32:USER32.dll
 0001:001114b8       _GetAsyncKeyState@4        005124b8 f   user32:USER32.dll
 0001:001114be       _IsRectEmpty@4             005124be f   user32:USER32.dll
 0001:001114c4       _PtInRect@12               005124c4 f   user32:USER32.dll
 0001:001114ca       _SetRect@20                005124ca f   user32:USER32.dll
 0001:001114d0       _SetRectEmpty@4            005124d0 f   user32:USER32.dll
 0001:001114d6       _InflateRect@12            005124d6 f   user32:USER32.dll
 0001:001114dc       _UnionRect@12              005124dc f   user32:USER32.dll
 0001:001114e2       _SubtractRect@12           005124e2 f   user32:USER32.dll
 0001:001114e8       _GetSysColorBrush@4        005124e8 f   user32:USER32.dll
 0001:001114ee       _WindowFromDC@4            005124ee f   user32:USER32.dll
 0001:001114f4       _ExcludeUpdateRgn@8        005124f4 f   user32:USER32.dll
 0001:001114fa       _FillRect@12               005124fa f   user32:USER32.dll
 0001:00111500       _FrameRect@12              00512500 f   user32:USER32.dll
 0001:00111506       _InvertRect@8              00512506 f   user32:USER32.dll
 0001:0011150c       _DrawIcon@16               0051250c f   user32:USER32.dll
 0001:00111512       _DrawStateA@40             00512512 f   user32:USER32.dll
 0001:00111518       _DrawEdge@16               00512518 f   user32:USER32.dll
 0001:0011151e       _DrawFrameControl@16       0051251e f   user32:USER32.dll
 0001:00111524       _DrawFocusRect@8           00512524 f   user32:USER32.dll
 0001:0011152a       _DrawTextA@20              0051252a f   user32:USER32.dll
 0001:00111530       _GetTabbedTextExtentA@20   00512530 f   user32:USER32.dll
 0001:00111536       _GrayStringA@36            00512536 f   user32:USER32.dll
 0001:0011153c       _ScrollDC@28               0051253c f   user32:USER32.dll
 0001:00111542       _CreateMenu@0              00512542 f   user32:USER32.dll
 0001:00111548       _CreatePopupMenu@0         00512548 f   user32:USER32.dll
 0001:0011154e       _IsMenu@4                  0051254e f   user32:USER32.dll
 0001:00111554       _DeleteMenu@12             00512554 f   user32:USER32.dll
 0001:0011155a       _AppendMenuA@16            0051255a f   user32:USER32.dll
 0001:00111560       _CheckMenuItem@12          00512560 f   user32:USER32.dll
 0001:00111566       _EnableMenuItem@12         00512566 f   user32:USER32.dll
 0001:0011156c       _SetMenuDefaultItem@12     0051256c f   user32:USER32.dll
 0001:00111572       _GetMenuDefaultItem@12     00512572 f   user32:USER32.dll
 0001:00111578       _GetMenuItemCount@4        00512578 f   user32:USER32.dll
 0001:0011157e       _GetMenuItemID@8           0051257e f   user32:USER32.dll
 0001:00111584       _GetMenuState@12           00512584 f   user32:USER32.dll
 0001:0011158a       _GetMenuStringA@20         0051258a f   user32:USER32.dll
 0001:00111590       _GetMenuItemInfoA@16       00512590 f   user32:USER32.dll
 0001:00111596       _GetSubMenu@8              00512596 f   user32:USER32.dll
 0001:0011159c       _InsertMenuA@20            0051259c f   user32:USER32.dll
 0001:001115a2       _ModifyMenuA@20            005125a2 f   user32:USER32.dll
 0001:001115a8       _RemoveMenu@12             005125a8 f   user32:USER32.dll
 0001:001115ae       _LoadMenuA@8               005125ae f   user32:USER32.dll
 0001:001115b4       _LoadMenuIndirectA@4       005125b4 f   user32:USER32.dll
 0001:001115ba       _SetMenuContextHelpId@8    005125ba f   user32:USER32.dll
 0001:001115c0       _GetMenuContextHelpId@4    005125c0 f   user32:USER32.dll
 0001:001115c6       _CheckMenuRadioItem@20     005125c6 f   user32:USER32.dll
 0001:001115cc       _LoadAcceleratorsA@8       005125cc f   user32:USER32.dll
 0001:001115d2       _TranslateAcceleratorA@12  005125d2 f   user32:USER32.dll
 0001:001115d8       _ReleaseCapture@0          005125d8 f   user32:USER32.dll
 0001:001115de       _DestroyMenu@4             005125de f   user32:USER32.dll
 0001:001115e4       _ReuseDDElParam@20         005125e4 f   user32:USER32.dll
 0001:001115ea       _UnpackDDElParam@16        005125ea f   user32:USER32.dll
 0001:001115f0       _CharUpperA@4              005125f0 f   user32:USER32.dll
 0001:001115f6       _WaitMessage@0             005125f6 f   user32:USER32.dll
 0001:001115fc       _GetWindowThreadProcessId@8 005125fc f   user32:USER32.dll
 0001:00111602       _CharNextA@4               00512602 f   user32:USER32.dll
 0001:00111608       _GetDialogBaseUnits@0      00512608 f   user32:USER32.dll
 0001:0011160e       _GetClipboardFormatNameA@12 0051260e f   user32:USER32.dll
 0001:00111614       _SetCursorPos@8            00512614 f   user32:USER32.dll
 0001:0011161a       _DestroyCursor@4           0051261a f   user32:USER32.dll
 0001:00111620       _LoadStringA@16            00512620 f   user32:USER32.dll
 0001:00111626       _DestroyIcon@4             00512626 f   user32:USER32.dll
 0001:0011162c       _CopyAcceleratorTableA@12  0051262c f   user32:USER32.dll
 0001:00111632       _RegisterClipboardFormatA@4 00512632 f   user32:USER32.dll
 0001:00111638       _InSendMessage@0           00512638 f   user32:USER32.dll
 0001:0011163e       _IsClipboardFormatAvailable@4 0051263e f   user32:USER32.dll
 0001:00111644       _GetStockObject@4          00512644 f   gdi32:GDI32.dll
 0001:0011164a       _GetDCOrgEx@8              0051264a f   gdi32:GDI32.dll
 0001:00111650       _GetClipBox@8              00512650 f   gdi32:GDI32.dll
 0001:00111656       _SetTextColor@8            00512656 f   gdi32:GDI32.dll
 0001:0011165c       _SetBkColor@8              0051265c f   gdi32:GDI32.dll
 0001:00111662       _GetObjectA@12             00512662 f   gdi32:GDI32.dll
 0001:00111668       _CreateBitmap@20           00512668 f   gdi32:GDI32.dll
 0001:0011166e       _CreateMetaFileA@4         0051266e f   gdi32:GDI32.dll
 0001:00111674       _CloseMetaFile@4           00512674 f   gdi32:GDI32.dll
 0001:0011167a       _CreateEnhMetaFileA@16     0051267a f   gdi32:GDI32.dll
 0001:00111680       _CloseEnhMetaFile@4        00512680 f   gdi32:GDI32.dll
 0001:00111686       _ExtTextOutA@32            00512686 f   gdi32:GDI32.dll
 0001:0011168c       _UnrealizeObject@4         0051268c f   gdi32:GDI32.dll
 0001:00111692       _GetObjectType@4           00512692 f   gdi32:GDI32.dll
 0001:00111698       _CreatePen@12              00512698 f   gdi32:GDI32.dll
 0001:0011169e       _CreatePenIndirect@4       0051269e f   gdi32:GDI32.dll
 0001:001116a4       _ExtCreatePen@20           005126a4 f   gdi32:GDI32.dll
 0001:001116aa       _CreateSolidBrush@4        005126aa f   gdi32:GDI32.dll
 0001:001116b0       _CreateHatchBrush@8        005126b0 f   gdi32:GDI32.dll
 0001:001116b6       _CreateBrushIndirect@4     005126b6 f   gdi32:GDI32.dll
 0001:001116bc       _CreatePatternBrush@4      005126bc f   gdi32:GDI32.dll
 0001:001116c2       _CreateDIBPatternBrushPt@8 005126c2 f   gdi32:GDI32.dll
 0001:001116c8       _CreateFontIndirectA@4     005126c8 f   gdi32:GDI32.dll
 0001:001116ce       _CreateFontA@56            005126ce f   gdi32:GDI32.dll
 0001:001116d4       _CreateBitmapIndirect@4    005126d4 f   gdi32:GDI32.dll
 0001:001116da       _SetBitmapBits@12          005126da f   gdi32:GDI32.dll
 0001:001116e0       _GetBitmapBits@12          005126e0 f   gdi32:GDI32.dll
 0001:001116e6       _SetBitmapDimensionEx@16   005126e6 f   gdi32:GDI32.dll
 0001:001116ec       _GetBitmapDimensionEx@8    005126ec f   gdi32:GDI32.dll
 0001:001116f2       _CreateCompatibleBitmap@12 005126f2 f   gdi32:GDI32.dll
 0001:001116f8       _CreateDiscardableBitmap@12 005126f8 f   gdi32:GDI32.dll
 0001:001116fe       _CreatePalette@4           005126fe f   gdi32:GDI32.dll
 0001:00111704       _CreateHalftonePalette@4   00512704 f   gdi32:GDI32.dll
 0001:0011170a       _GetPaletteEntries@16      0051270a f   gdi32:GDI32.dll
 0001:00111710       _SetPaletteEntries@16      00512710 f   gdi32:GDI32.dll
 0001:00111716       _AnimatePalette@16         00512716 f   gdi32:GDI32.dll
 0001:0011171c       _GetNearestPaletteIndex@8  0051271c f   gdi32:GDI32.dll
 0001:00111722       _ResizePalette@8           00512722 f   gdi32:GDI32.dll
 0001:00111728       _CreateRectRgn@16          00512728 f   gdi32:GDI32.dll
 0001:0011172e       _CreateRectRgnIndirect@4   0051272e f   gdi32:GDI32.dll
 0001:00111734       _CreateEllipticRgn@16      00512734 f   gdi32:GDI32.dll
 0001:0011173a       _CreateEllipticRgnIndirect@4 0051273a f   gdi32:GDI32.dll
 0001:00111740       _CreatePolygonRgn@12       00512740 f   gdi32:GDI32.dll
 0001:00111746       _CreatePolyPolygonRgn@16   00512746 f   gdi32:GDI32.dll
 0001:0011174c       _CreateRoundRectRgn@24     0051274c f   gdi32:GDI32.dll
 0001:00111752       _PathToRegion@4            00512752 f   gdi32:GDI32.dll
 0001:00111758       _ExtCreateRegion@12        00512758 f   gdi32:GDI32.dll
 0001:0011175e       _GetRegionData@12          0051275e f   gdi32:GDI32.dll
 0001:00111764       _SetRectRgn@20             00512764 f   gdi32:GDI32.dll
 0001:0011176a       _CombineRgn@16             0051276a f   gdi32:GDI32.dll
 0001:00111770       _EqualRgn@8                00512770 f   gdi32:GDI32.dll
 0001:00111776       _OffsetRgn@12              00512776 f   gdi32:GDI32.dll
 0001:0011177c       _GetRgnBox@8               0051277c f   gdi32:GDI32.dll
 0001:00111782       _PtInRegion@12             00512782 f   gdi32:GDI32.dll
 0001:00111788       _RectInRegion@8            00512788 f   gdi32:GDI32.dll
 0001:0011178e       _CreateDCA@16              0051278e f   gdi32:GDI32.dll
 0001:00111794       _CreateICA@16              00512794 f   gdi32:GDI32.dll
 0001:0011179a       _CreateCompatibleDC@4      0051279a f   gdi32:GDI32.dll
 0001:001117a0       _GetDeviceCaps@8           005127a0 f   gdi32:GDI32.dll
 0001:001117a6       _GetBrushOrgEx@8           005127a6 f   gdi32:GDI32.dll
 0001:001117ac       _SetBrushOrgEx@16          005127ac f   gdi32:GDI32.dll
 0001:001117b2       _EnumObjects@16            005127b2 f   gdi32:GDI32.dll
 0001:001117b8       _SelectObject@8            005127b8 f   gdi32:GDI32.dll
 0001:001117be       _GetNearestColor@8         005127be f   gdi32:GDI32.dll
 0001:001117c4       _RealizePalette@4          005127c4 f   gdi32:GDI32.dll
 0001:001117ca       _UpdateColors@4            005127ca f   gdi32:GDI32.dll
 0001:001117d0       _GetBkColor@4              005127d0 f   gdi32:GDI32.dll
 0001:001117d6       _GetBkMode@4               005127d6 f   gdi32:GDI32.dll
 0001:001117dc       _GetPolyFillMode@4         005127dc f   gdi32:GDI32.dll
 0001:001117e2       _GetROP2@4                 005127e2 f   gdi32:GDI32.dll
 0001:001117e8       _GetStretchBltMode@4       005127e8 f   gdi32:GDI32.dll
 0001:001117ee       _GetTextColor@4            005127ee f   gdi32:GDI32.dll
 0001:001117f4       _GetMapMode@4              005127f4 f   gdi32:GDI32.dll
 0001:001117fa       _GetViewportOrgEx@8        005127fa f   gdi32:GDI32.dll
 0001:00111800       _GetViewportExtEx@8        00512800 f   gdi32:GDI32.dll
 0001:00111806       _GetWindowOrgEx@8          00512806 f   gdi32:GDI32.dll
 0001:0011180c       _GetWindowExtEx@8          0051280c f   gdi32:GDI32.dll
 0001:00111812       _DPtoLP@12                 00512812 f   gdi32:GDI32.dll
 0001:00111818       _LPtoDP@12                 00512818 f   gdi32:GDI32.dll
 0001:0011181e       _FillRgn@12                0051281e f   gdi32:GDI32.dll
 0001:00111824       _FrameRgn@20               00512824 f   gdi32:GDI32.dll
 0001:0011182a       _InvertRgn@8               0051282a f   gdi32:GDI32.dll
 0001:00111830       _PaintRgn@8                00512830 f   gdi32:GDI32.dll
 0001:00111836       _PtVisible@12              00512836 f   gdi32:GDI32.dll
 0001:0011183c       _RectVisible@8             0051283c f   gdi32:GDI32.dll
 0001:00111842       _GetCurrentPositionEx@8    00512842 f   gdi32:GDI32.dll
 0001:00111848       _Arc@36                    00512848 f   gdi32:GDI32.dll
 0001:0011184e       _Polyline@12               0051284e f   gdi32:GDI32.dll
 0001:00111854       _Chord@36                  00512854 f   gdi32:GDI32.dll
 0001:0011185a       _Ellipse@20                0051285a f   gdi32:GDI32.dll
 0001:00111860       _Pie@36                    00512860 f   gdi32:GDI32.dll
 0001:00111866       _Polygon@12                00512866 f   gdi32:GDI32.dll
 0001:0011186c       _PolyPolygon@16            0051286c f   gdi32:GDI32.dll
 0001:00111872       _Rectangle@20              00512872 f   gdi32:GDI32.dll
 0001:00111878       _RoundRect@28              00512878 f   gdi32:GDI32.dll
 0001:0011187e       _PatBlt@24                 0051287e f   gdi32:GDI32.dll
 0001:00111884       _BitBlt@36                 00512884 f   gdi32:GDI32.dll
 0001:0011188a       _StretchBlt@44             0051288a f   gdi32:GDI32.dll
 0001:00111890       _GetPixel@12               00512890 f   gdi32:GDI32.dll
 0001:00111896       _SetPixel@16               00512896 f   gdi32:GDI32.dll
 0001:0011189c       _FloodFill@16              0051289c f   gdi32:GDI32.dll
 0001:001118a2       _ExtFloodFill@20           005128a2 f   gdi32:GDI32.dll
 0001:001118a8       _TextOutA@20               005128a8 f   gdi32:GDI32.dll
 0001:001118ae       _GetTextExtentPoint32A@16  005128ae f   gdi32:GDI32.dll
 0001:001118b4       _GetTextAlign@4            005128b4 f   gdi32:GDI32.dll
 0001:001118ba       _GetTextFaceA@12           005128ba f   gdi32:GDI32.dll
 0001:001118c0       _GetTextMetricsA@8         005128c0 f   gdi32:GDI32.dll
 0001:001118c6       _GetTextCharacterExtra@4   005128c6 f   gdi32:GDI32.dll
 0001:001118cc       _GetCharWidthA@16          005128cc f   gdi32:GDI32.dll
 0001:001118d2       _GetAspectRatioFilterEx@8  005128d2 f   gdi32:GDI32.dll
 0001:001118d8       _Escape@20                 005128d8 f   gdi32:GDI32.dll
 0001:001118de       _SetBoundsRect@12          005128de f   gdi32:GDI32.dll
 0001:001118e4       _GetBoundsRect@12          005128e4 f   gdi32:GDI32.dll
 0001:001118ea       _ResetDCA@8                005128ea f   gdi32:GDI32.dll
 0001:001118f0       _GetOutlineTextMetricsA@12 005128f0 f   gdi32:GDI32.dll
 0001:001118f6       _GetCharABCWidthsA@16      005128f6 f   gdi32:GDI32.dll
 0001:001118fc       _GetFontData@20            005128fc f   gdi32:GDI32.dll
 0001:00111902       _GetKerningPairsA@12       00512902 f   gdi32:GDI32.dll
 0001:00111908       _GetGlyphOutlineA@28       00512908 f   gdi32:GDI32.dll
 0001:0011190e       _StartDocA@8               0051290e f   gdi32:GDI32.dll
 0001:00111914       _StartPage@4               00512914 f   gdi32:GDI32.dll
 0001:0011191a       _EndPage@4                 0051291a f   gdi32:GDI32.dll
 0001:00111920       _SetAbortProc@8            00512920 f   gdi32:GDI32.dll
 0001:00111926       _AbortDoc@4                00512926 f   gdi32:GDI32.dll
 0001:0011192c       _EndDoc@4                  0051292c f   gdi32:GDI32.dll
 0001:00111932       _MaskBlt@48                00512932 f   gdi32:GDI32.dll
 0001:00111938       _PlgBlt@40                 00512938 f   gdi32:GDI32.dll
 0001:0011193e       _SetPixelV@16              0051293e f   gdi32:GDI32.dll
 0001:00111944       _AngleArc@24               00512944 f   gdi32:GDI32.dll
 0001:0011194a       _GetArcDirection@4         0051294a f   gdi32:GDI32.dll
 0001:00111950       _PolyPolyline@16           00512950 f   gdi32:GDI32.dll
 0001:00111956       _GetColorAdjustment@8      00512956 f   gdi32:GDI32.dll
 0001:0011195c       _GetCurrentObject@8        0051295c f   gdi32:GDI32.dll
 0001:00111962       _PolyBezier@12             00512962 f   gdi32:GDI32.dll
 0001:00111968       _DrawEscape@16             00512968 f   gdi32:GDI32.dll
 0001:0011196e       _ExtEscape@24              0051296e f   gdi32:GDI32.dll
 0001:00111974       _GetCharABCWidthsFloatA@16 00512974 f   gdi32:GDI32.dll
 0001:0011197a       _GetCharWidthFloatA@16     0051297a f   gdi32:GDI32.dll
 0001:00111980       _AbortPath@4               00512980 f   gdi32:GDI32.dll
 0001:00111986       _BeginPath@4               00512986 f   gdi32:GDI32.dll
 0001:0011198c       _CloseFigure@4             0051298c f   gdi32:GDI32.dll
 0001:00111992       _EndPath@4                 00512992 f   gdi32:GDI32.dll
 0001:00111998       _FillPath@4                00512998 f   gdi32:GDI32.dll
 0001:0011199e       _FlattenPath@4             0051299e f   gdi32:GDI32.dll
 0001:001119a4       _GetMiterLimit@8           005129a4 f   gdi32:GDI32.dll
 0001:001119aa       _GetPath@16                005129aa f   gdi32:GDI32.dll
 0001:001119b0       _SetMiterLimit@12          005129b0 f   gdi32:GDI32.dll
 0001:001119b6       _StrokeAndFillPath@4       005129b6 f   gdi32:GDI32.dll
 0001:001119bc       _StrokePath@4              005129bc f   gdi32:GDI32.dll
 0001:001119c2       _WidenPath@4               005129c2 f   gdi32:GDI32.dll
 0001:001119c8       _GdiComment@12             005129c8 f   gdi32:GDI32.dll
 0001:001119ce       _PlayEnhMetaFile@12        005129ce f   gdi32:GDI32.dll
 0001:001119d4       _DeleteDC@4                005129d4 f   gdi32:GDI32.dll
 0001:001119da       _SaveDC@4                  005129da f   gdi32:GDI32.dll
 0001:001119e0       _RestoreDC@8               005129e0 f   gdi32:GDI32.dll
 0001:001119e6       _SelectPalette@12          005129e6 f   gdi32:GDI32.dll
 0001:001119ec       _SetBkMode@8               005129ec f   gdi32:GDI32.dll
 0001:001119f2       _SetPolyFillMode@8         005129f2 f   gdi32:GDI32.dll
 0001:001119f8       _SetROP2@8                 005129f8 f   gdi32:GDI32.dll
 0001:001119fe       _SetStretchBltMode@8       005129fe f   gdi32:GDI32.dll
 0001:00111a04       _SetMapMode@8              00512a04 f   gdi32:GDI32.dll
 0001:00111a0a       _SetViewportOrgEx@16       00512a0a f   gdi32:GDI32.dll
 0001:00111a10       _OffsetViewportOrgEx@16    00512a10 f   gdi32:GDI32.dll
 0001:00111a16       _SetViewportExtEx@16       00512a16 f   gdi32:GDI32.dll
 0001:00111a1c       _ScaleViewportExtEx@24     00512a1c f   gdi32:GDI32.dll
 0001:00111a22       _SetWindowOrgEx@16         00512a22 f   gdi32:GDI32.dll
 0001:00111a28       _OffsetWindowOrgEx@16      00512a28 f   gdi32:GDI32.dll
 0001:00111a2e       _SetWindowExtEx@16         00512a2e f   gdi32:GDI32.dll
 0001:00111a34       _ScaleWindowExtEx@24       00512a34 f   gdi32:GDI32.dll
 0001:00111a3a       _SelectClipRgn@8           00512a3a f   gdi32:GDI32.dll
 0001:00111a40       _ExcludeClipRect@20        00512a40 f   gdi32:GDI32.dll
 0001:00111a46       _IntersectClipRect@20      00512a46 f   gdi32:GDI32.dll
 0001:00111a4c       _OffsetClipRgn@12          00512a4c f   gdi32:GDI32.dll
 0001:00111a52       _MoveToEx@16               00512a52 f   gdi32:GDI32.dll
 0001:00111a58       _LineTo@12                 00512a58 f   gdi32:GDI32.dll
 0001:00111a5e       _SetTextAlign@8            00512a5e f   gdi32:GDI32.dll
 0001:00111a64       _SetTextJustification@12   00512a64 f   gdi32:GDI32.dll
 0001:00111a6a       _SetTextCharacterExtra@8   00512a6a f   gdi32:GDI32.dll
 0001:00111a70       _SetMapperFlags@8          00512a70 f   gdi32:GDI32.dll
 0001:00111a76       _ArcTo@36                  00512a76 f   gdi32:GDI32.dll
 0001:00111a7c       _SetArcDirection@8         00512a7c f   gdi32:GDI32.dll
 0001:00111a82       _PolyDraw@16               00512a82 f   gdi32:GDI32.dll
 0001:00111a88       _PolylineTo@12             00512a88 f   gdi32:GDI32.dll
 0001:00111a8e       _SetColorAdjustment@8      00512a8e f   gdi32:GDI32.dll
 0001:00111a94       _PolyBezierTo@12           00512a94 f   gdi32:GDI32.dll
 0001:00111a9a       _DeleteObject@4            00512a9a f   gdi32:GDI32.dll
 0001:00111aa0       _GetClipRgn@8              00512aa0 f   gdi32:GDI32.dll
 0001:00111aa6       _SelectClipPath@8          00512aa6 f   gdi32:GDI32.dll
 0001:00111aac       _ExtSelectClipRgn@12       00512aac f   gdi32:GDI32.dll
 0001:00111ab2       _PlayMetaFileRecord@16     00512ab2 f   gdi32:GDI32.dll
 0001:00111ab8       _EnumMetaFile@16           00512ab8 f   gdi32:GDI32.dll
 0001:00111abe       _PlayMetaFile@8            00512abe f   gdi32:GDI32.dll
 0001:00111ac4       _StretchDIBits@52          00512ac4 f   gdi32:GDI32.dll
 0001:00111aca       _CopyMetaFileA@8           00512aca f   gdi32:GDI32.dll
 0001:00111ad0       _DeleteMetaFile@4          00512ad0 f   gdi32:GDI32.dll
 0001:00111ad6       _GetSaveFileNameA@4        00512ad6 f   comdlg32:comdlg32.dll
 0001:00111adc       _GetOpenFileNameA@4        00512adc f   comdlg32:comdlg32.dll
 0001:00111ae2       _CommDlgExtendedError@0    00512ae2 f   comdlg32:comdlg32.dll
 0001:00111ae8       _GetFileTitleA@12          00512ae8 f   comdlg32:comdlg32.dll
 0001:00111aee       _PageSetupDlgA@4           00512aee f   comdlg32:comdlg32.dll
 0001:00111af4       _PrintDlgA@4               00512af4 f   comdlg32:comdlg32.dll
 0001:00111afa       _ChooseColorA@4            00512afa f   comdlg32:comdlg32.dll
 0001:00111b00       _ClosePrinter@4            00512b00 f   winspool:WINSPOOL.DRV
 0001:00111b06       _DocumentPropertiesA@24    00512b06 f   winspool:WINSPOOL.DRV
 0001:00111b0c       _OpenPrinterA@12           00512b0c f   winspool:WINSPOOL.DRV
 0001:00111b12       _RegQueryValueA@16         00512b12 f   advapi32:ADVAPI32.dll
 0001:00111b18       _RegCloseKey@4             00512b18 f   advapi32:ADVAPI32.dll
 0001:00111b1e       _RegEnumKeyA@16            00512b1e f   advapi32:ADVAPI32.dll
 0001:00111b24       _RegOpenKeyA@12            00512b24 f   advapi32:ADVAPI32.dll
 0001:00111b2a       _RegDeleteKeyA@8           00512b2a f   advapi32:ADVAPI32.dll
 0001:00111b30       _RegCreateKeyExA@36        00512b30 f   advapi32:ADVAPI32.dll
 0001:00111b36       _RegOpenKeyExA@20          00512b36 f   advapi32:ADVAPI32.dll
 0001:00111b3c       _RegQueryValueExA@24       00512b3c f   advapi32:ADVAPI32.dll
 0001:00111b42       _RegSetValueExA@24         00512b42 f   advapi32:ADVAPI32.dll
 0001:00111b48       _RegDeleteValueA@8         00512b48 f   advapi32:ADVAPI32.dll
 0001:00111b4e       _SetFileSecurityA@12       00512b4e f   advapi32:ADVAPI32.dll
 0001:00111b54       _GetFileSecurityA@20       00512b54 f   advapi32:ADVAPI32.dll
 0001:00111b5a       _RegCreateKeyA@12          00512b5a f   advapi32:ADVAPI32.dll
 0001:00111b60       _RegSetValueA@20           00512b60 f   advapi32:ADVAPI32.dll
 0001:00111b66       _DragAcceptFiles@8         00512b66 f   shell32:SHELL32.dll
 0001:00111b6c       _DragFinish@4              00512b6c f   shell32:SHELL32.dll
 0001:00111b72       _DragQueryFileA@16         00512b72 f   shell32:SHELL32.dll
 0001:00111b78       _SHGetFileInfoA@20         00512b78 f   shell32:SHELL32.dll
 0001:00111b7e       _ExtractIconA@12           00512b7e f   shell32:SHELL32.dll
 0001:00111b84       _InitCommonControls@0      00512b84 f   comctl32:COMCTL32.dll
 0001:00111b8a       _PropertySheetA@4          00512b8a f   comctl32:COMCTL32.dll
 0001:00111b90       _DestroyPropertySheetPage@4 00512b90 f   comctl32:COMCTL32.dll
 0001:00111b96       _CreatePropertySheetPageA@4 00512b96 f   comctl32:COMCTL32.dll
 0001:00111b9c       _CreateMappedBitmap@20     00512b9c f   comctl32:COMCTL32.dll
 0001:00111ba2       _MakeDragList@4            00512ba2 f   comctl32:COMCTL32.dll
 0001:00111ba8       _ImageList_Destroy@4       00512ba8 f   comctl32:COMCTL32.dll
 0001:00111bae       _ImageList_Create@20       00512bae f   comctl32:COMCTL32.dll
 0001:00111bb4       _ImageList_LoadImageA@28   00512bb4 f   comctl32:COMCTL32.dll
 0001:00111bba       _ImageList_Merge@24        00512bba f   comctl32:COMCTL32.dll
 0001:00111bc0       _ImageList_Read@4          00512bc0 f   comctl32:COMCTL32.dll
 0001:00111bc6       _ImageList_Write@8         00512bc6 f   comctl32:COMCTL32.dll
 0001:00111bcc       _LBItemFromPt@16           00512bcc f   comctl32:COMCTL32.dll
 0001:00111bd2       _ImageList_GetImageCount@4 00512bd2 f   comctl32:COMCTL32.dll
 0001:00111bd8       _ImageList_Add@12          00512bd8 f   comctl32:COMCTL32.dll
 0001:00111bde       _ImageList_AddMasked@12    00512bde f   comctl32:COMCTL32.dll
 0001:00111be4       _ImageList_Remove@8        00512be4 f   comctl32:COMCTL32.dll
 0001:00111bea       _ImageList_Replace@16      00512bea f   comctl32:COMCTL32.dll
 0001:00111bf0       _ImageList_ReplaceIcon@12  00512bf0 f   comctl32:COMCTL32.dll
 0001:00111bf6       _ImageList_GetIcon@12      00512bf6 f   comctl32:COMCTL32.dll
 0001:00111bfc       _ImageList_Draw@24         00512bfc f   comctl32:COMCTL32.dll
 0001:00111c02       _ImageList_SetBkColor@8    00512c02 f   comctl32:COMCTL32.dll
 0001:00111c08       _ImageList_GetBkColor@4    00512c08 f   comctl32:COMCTL32.dll
 0001:00111c0e       _ImageList_SetOverlayImage@12 00512c0e f   comctl32:COMCTL32.dll
 0001:00111c14       _ImageList_GetImageInfo@12 00512c14 f   comctl32:COMCTL32.dll
 0001:00111c1a       _ImageList_BeginDrag@16    00512c1a f   comctl32:COMCTL32.dll
 0001:00111c20       _ImageList_EndDrag@0       00512c20 f   comctl32:COMCTL32.dll
 0001:00111c26       _ImageList_DragMove@8      00512c26 f   comctl32:COMCTL32.dll
 0001:00111c2c       _ImageList_SetDragCursorImage@16 00512c2c f   comctl32:COMCTL32.dll
 0001:00111c32       _ImageList_DragShowNolock@4 00512c32 f   comctl32:COMCTL32.dll
 0001:00111c38       _ImageList_GetDragImage@8  00512c38 f   comctl32:COMCTL32.dll
 0001:00111c3e       _ImageList_DragEnter@12    00512c3e f   comctl32:COMCTL32.dll
 0001:00111c44       _ImageList_DragLeave@4     00512c44 f   comctl32:COMCTL32.dll
 0001:00111c4a       _ImageList_SetImageCount@8 00512c4a f   comctl32:COMCTL32.dll
 0001:00111c50       _ImageList_Copy@20         00512c50 f   comctl32:COMCTL32.dll
 0001:00111c56       _OleUIBusyA@4              00512c56 f   oledlg:oledlg.dll
 0001:00111c5c       _OleUIInsertObjectA@4      00512c5c f   oledlg:oledlg.dll
 0001:00111c62       _OleUIConvertA@4           00512c62 f   oledlg:oledlg.dll
 0001:00111c68       _OleUIChangeIconA@4        00512c68 f   oledlg:oledlg.dll
 0001:00111c6e       _OleUIEditLinksA@4         00512c6e f   oledlg:oledlg.dll
 0001:00111c74       _OleUIUpdateLinksA@16      00512c74 f   oledlg:oledlg.dll
 0001:00111c7a       _OleUIPasteSpecialA@4      00512c7a f   oledlg:oledlg.dll
 0001:00111c80       _CreateStreamOnHGlobal@12  00512c80 f   ole32:ole32.dll
 0001:00111c86       _CLSIDFromProgID@8         00512c86 f   ole32:ole32.dll
 0001:00111c8c       _CLSIDFromString@8         00512c8c f   ole32:ole32.dll
 0001:00111c92       _OleRun@4                  00512c92 f   ole32:ole32.dll
 0001:00111c98       _CoCreateInstance@20       00512c98 f   ole32:ole32.dll
 0001:00111c9e       _CoDisconnectObject@8      00512c9e f   ole32:ole32.dll
 0001:00111ca4       _CoGetClassObject@20       00512ca4 f   ole32:ole32.dll
 0001:00111caa       _StgOpenStorageOnILockBytes@24 00512caa f   ole32:ole32.dll
 0001:00111cb0       _StgCreateDocfileOnILockBytes@16 00512cb0 f   ole32:ole32.dll
 0001:00111cb6       _CreateILockBytesOnHGlobal@12 00512cb6 f   ole32:ole32.dll
 0001:00111cbc       _StringFromGUID2@12        00512cbc f   ole32:ole32.dll
 0001:00111cc2       _CoTaskMemFree@4           00512cc2 f   ole32:ole32.dll
 0001:00111cc8       _CoTaskMemAlloc@4          00512cc8 f   ole32:ole32.dll
 0001:00111cce       _OleDuplicateData@12       00512cce f   ole32:ole32.dll
 0001:00111cd4       _CreateBindCtx@8           00512cd4 f   ole32:ole32.dll
 0001:00111cda       _SetConvertStg@8           00512cda f   ole32:ole32.dll
 0001:00111ce0       _WriteFmtUserTypeStg@12    00512ce0 f   ole32:ole32.dll
 0001:00111ce6       _WriteClassStg@8           00512ce6 f   ole32:ole32.dll
 0001:00111cec       _OleRegGetUserType@12      00512cec f   ole32:ole32.dll
 0001:00111cf2       _ReadFmtUserTypeStg@12     00512cf2 f   ole32:ole32.dll
 0001:00111cf8       _ReadClassStg@8            00512cf8 f   ole32:ole32.dll
 0001:00111cfe       _StringFromCLSID@8         00512cfe f   ole32:ole32.dll
 0001:00111d04       _CoTreatAsClass@8          00512d04 f   ole32:ole32.dll
 0001:00111d0a       _ReleaseStgMedium@4        00512d0a f   ole32:ole32.dll
 0001:00111d10       _OleInitialize@4           00512d10 f   ole32:ole32.dll
 0001:00111d16       _OleUninitialize@0         00512d16 f   ole32:ole32.dll
 0001:00111d1c       _CoFreeUnusedLibraries@0   00512d1c f   ole32:ole32.dll
 0001:00111d22       _CoRegisterMessageFilter@8 00512d22 f   ole32:ole32.dll
 0001:00111d28       _CoRegisterClassObject@20  00512d28 f   ole32:ole32.dll
 0001:00111d2e       _CoRevokeClassObject@4     00512d2e f   ole32:ole32.dll
 0001:00111d34       _OleIsCurrentClipboard@4   00512d34 f   ole32:ole32.dll
 0001:00111d3a       _OleSetClipboard@4         00512d3a f   ole32:ole32.dll
 0001:00111d40       _OleFlushClipboard@0       00512d40 f   ole32:ole32.dll
 0001:00111d46       _CreateItemMoniker@12      00512d46 f   ole32:ole32.dll
 0001:00111d4c       _CreateGenericComposite@12 00512d4c f   ole32:ole32.dll
 0001:00111d52       _CreateFileMoniker@8       00512d52 f   ole32:ole32.dll
 0001:00111d58       _GetClassFile@8            00512d58 f   ole32:ole32.dll
 0001:00111d5e       _CoGetMalloc@8             00512d5e f   ole32:ole32.dll
 0001:00111d64       _StgCreateDocfile@16       00512d64 f   ole32:ole32.dll
 0001:00111d6a       _StgOpenStorage@24         00512d6a f   ole32:ole32.dll
 0001:00111d70       _StgIsStorageFile@4        00512d70 f   ole32:ole32.dll
 0001:00111d76       _OleLockRunning@12         00512d76 f   ole32:ole32.dll
 0001:00111d7c       _OleSetContainedObject@8   00512d7c f   ole32:ole32.dll
 0001:00111d82       _OleCreateFromData@28      00512d82 f   ole32:ole32.dll
 0001:00111d88       _OleCreateLinkFromData@28  00512d88 f   ole32:ole32.dll
 0001:00111d8e       _OleCreateStaticFromData@28 00512d8e f   ole32:ole32.dll
 0001:00111d94       _OleCreateFromFile@32      00512d94 f   ole32:ole32.dll
 0001:00111d9a       _OleCreateLinkToFile@28    00512d9a f   ole32:ole32.dll
 0001:00111da0       _OleCreate@28              00512da0 f   ole32:ole32.dll
 0001:00111da6       _OleLoad@16                00512da6 f   ole32:ole32.dll
 0001:00111dac       _OleSave@12                00512dac f   ole32:ole32.dll
 0001:00111db2       _StgIsStorageILockBytes@4  00512db2 f   ole32:ole32.dll
 0001:00111db8       _GetHGlobalFromILockBytes@8 00512db8 f   ole32:ole32.dll
 0001:00111dbe       _OleGetIconOfClass@12      00512dbe f   ole32:ole32.dll
 0001:00111dc4       _WriteClassStm@8           00512dc4 f   ole32:ole32.dll
 0001:00111dca       _OleSaveToStream@8         00512dca f   ole32:ole32.dll
 0001:00111dd0       _OleIsRunning@4            00512dd0 f   ole32:ole32.dll
 0001:00111dd6       _OleQueryCreateFromData@4  00512dd6 f   ole32:ole32.dll
 0001:00111ddc       _OleQueryLinkFromData@4    00512ddc f   ole32:ole32.dll
 0001:00111de2       _OleGetClipboard@4         00512de2 f   ole32:ole32.dll
 0001:00111de8       _OleSetMenuDescriptor@20   00512de8 f   ole32:ole32.dll
 0001:00111dee       _DoDragDrop@16             00512dee f   ole32:ole32.dll
 0001:00111df4       _OleRegEnumVerbs@8         00512df4 f   ole32:ole32.dll
 0001:00111dfa       _OleRegGetMiscStatus@12    00512dfa f   ole32:ole32.dll
 0001:00111e00       _OleCreateMenuDescriptor@8 00512e00 f   ole32:ole32.dll
 0001:00111e06       _OleDestroyMenuDescriptor@4 00512e06 f   ole32:ole32.dll
 0001:00111e0c       _CreateOleAdviseHolder@4   00512e0c f   ole32:ole32.dll
 0001:00111e12       _CreateDataAdviseHolder@4  00512e12 f   ole32:ole32.dll
 0001:00111e18       _OleTranslateAccelerator@12 00512e18 f   ole32:ole32.dll
 0001:00111e1e       _IsAccelerator@16          00512e1e f   ole32:ole32.dll
 0001:00111e24       _GetRunningObjectTable@8   00512e24 f   ole32:ole32.dll
 0001:00111e2a       _CoLockObjectExternal@12   00512e2a f   ole32:ole32.dll
 0001:00111e30       _OleLoadPicture@20         00512e30 f   olepro32:OLEPRO32.DLL
 0001:00111e36       _OleCreateFontIndirect@12  00512e36 f   olepro32:OLEPRO32.DLL
 0001:00111e3c       _SysFreeString@4           00512e3c f   oleaut32:OLEAUT32.dll
 0001:00111e42       _SysAllocStringLen@8       00512e42 f   oleaut32:OLEAUT32.dll
 0001:00111e48       _VariantChangeType@16      00512e48 f   oleaut32:OLEAUT32.dll
 0001:00111e4e       _VariantClear@4            00512e4e f   oleaut32:OLEAUT32.dll
 0001:00111e54       _SysAllocString@4          00512e54 f   oleaut32:OLEAUT32.dll
 0001:00111e5a       _DosDateTimeToVariantTime@12 00512e5a f   oleaut32:OLEAUT32.dll
 0001:00111e60       _SafeArrayGetDim@4         00512e60 f   oleaut32:OLEAUT32.dll
 0001:00111e66       _SafeArrayGetElemsize@4    00512e66 f   oleaut32:OLEAUT32.dll
 0001:00111e6c       _VariantTimeToSystemTime@12 00512e6c f   oleaut32:OLEAUT32.dll
 0001:00111e72       _SysStringLen@4            00512e72 f   oleaut32:OLEAUT32.dll
 0001:00111e78       _SysAllocStringByteLen@8   00512e78 f   oleaut32:OLEAUT32.dll
 0001:00111e7e       _VariantCopy@8             00512e7e f   oleaut32:OLEAUT32.dll
 0001:00111e84       _SysReAllocStringLen@12    00512e84 f   oleaut32:OLEAUT32.dll
 0001:00111e8a       _SafeArrayUnaccessData@4   00512e8a f   oleaut32:OLEAUT32.dll
 0001:00111e90       _SafeArrayAccessData@8     00512e90 f   oleaut32:OLEAUT32.dll
 0001:00111e96       _SafeArrayGetUBound@12     00512e96 f   oleaut32:OLEAUT32.dll
 0001:00111e9c       _SafeArrayGetLBound@12     00512e9c f   oleaut32:OLEAUT32.dll
 0001:00111ea2       _SafeArrayRedim@8          00512ea2 f   oleaut32:OLEAUT32.dll
 0001:00111ea8       _SafeArrayCreate@12        00512ea8 f   oleaut32:OLEAUT32.dll
 0001:00111eae       _SysStringByteLen@4        00512eae f   oleaut32:OLEAUT32.dll
 0001:00111eb4       _VarCyFromStr@16           00512eb4 f   oleaut32:OLEAUT32.dll
 0001:00111eba       _VarBstrFromCy@20          00512eba f   oleaut32:OLEAUT32.dll
 0001:00111ec0       _VarDateFromStr@16         00512ec0 f   oleaut32:OLEAUT32.dll
 0001:00111ec6       _VarBstrFromDate@20        00512ec6 f   oleaut32:OLEAUT32.dll
 0001:00111ecc       _SafeArrayCopy@8           00512ecc f   oleaut32:OLEAUT32.dll
 0001:00111ed2       _SafeArrayAllocData@4      00512ed2 f   oleaut32:OLEAUT32.dll
 0001:00111ed8       _SafeArrayAllocDescriptor@8 00512ed8 f   oleaut32:OLEAUT32.dll
 0001:00111ede       _SafeArrayGetElement@12    00512ede f   oleaut32:OLEAUT32.dll
 0001:00111ee4       _SafeArrayPtrOfIndex@12    00512ee4 f   oleaut32:OLEAUT32.dll
 0001:00111eea       _SafeArrayPutElement@12    00512eea f   oleaut32:OLEAUT32.dll
 0001:00111ef0       _SafeArrayLock@4           00512ef0 f   oleaut32:OLEAUT32.dll
 0001:00111ef6       _SafeArrayUnlock@4         00512ef6 f   oleaut32:OLEAUT32.dll
 0001:00111efc       _SafeArrayDestroy@4        00512efc f   oleaut32:OLEAUT32.dll
 0001:00111f02       _SafeArrayDestroyData@4    00512f02 f   oleaut32:OLEAUT32.dll
 0001:00111f08       _SafeArrayDestroyDescriptor@4 00512f08 f   oleaut32:OLEAUT32.dll
 0001:00111f0e       _LoadTypeLib@8             00512f0e f   oleaut32:OLEAUT32.dll
 0001:00112040       ??_D?$basic_istream@DU?$char_traits@D@std@@@std@@QAEXXZ 00513040 f i libcpmtd:iostream.obj
 0001:001120d0       ??_D?$basic_ostream@DU?$char_traits@D@std@@@std@@QAEXXZ 005130d0 f i libcpmtd:iostream.obj
 0001:00112220       ??0Init@ios_base@std@@QAE@XZ 00513220 f   libcpmtd:iostream.obj
 0001:00112500       ?setf@ios_base@std@@QAEHH@Z 00513500 f i libcpmtd:iostream.obj
 0001:00112540       ??1Init@ios_base@std@@QAE@XZ 00513540 f   libcpmtd:iostream.obj
 0001:001125b0       ??0?$basic_ostream@DU?$char_traits@D@std@@@std@@QAE@PAV?$basic_streambuf@DU?$char_traits@D@std@@@1@_N1@Z 005135b0 f i libcpmtd:iostream.obj
 0001:00112660       ??0?$basic_ostream@DU?$char_traits@D@std@@@std@@QAE@W4_Uninitialized@1@@Z 00513660 f i libcpmtd:iostream.obj
 0001:001126f0       ??1?$basic_ostream@DU?$char_traits@D@std@@@std@@UAE@XZ 005136f0 f i libcpmtd:iostream.obj
 0001:00112710       ??1?$basic_ios@DU?$char_traits@D@std@@@std@@UAE@XZ 00513710 f i libcpmtd:iostream.obj
 0001:00112730       ?tie@?$basic_ios@DU?$char_traits@D@std@@@std@@QAEPAV?$basic_ostream@DU?$char_traits@D@std@@@2@PAV32@@Z 00513730 f i libcpmtd:iostream.obj
 0001:00112760       ??0?$basic_istream@DU?$char_traits@D@std@@@std@@QAE@PAV?$basic_streambuf@DU?$char_traits@D@std@@@1@_N@Z 00513760 f i libcpmtd:iostream.obj
 0001:00112800       ??0?$basic_istream@DU?$char_traits@D@std@@@std@@QAE@W4_Uninitialized@1@@Z 00513800 f i libcpmtd:iostream.obj
 0001:00112890       ??1?$basic_istream@DU?$char_traits@D@std@@@std@@UAE@XZ 00513890 f i libcpmtd:iostream.obj
 0001:001128b0       ??0?$basic_filebuf@DU?$char_traits@D@std@@@std@@QAE@PAU_iobuf@@@Z 005138b0 f i libcpmtd:iostream.obj
 0001:00112920       ??0locale@std@@QAE@XZ      00513920 f i libcpmtd:iostream.obj
 0001:00112960       ??1?$basic_streambuf@DU?$char_traits@D@std@@@std@@UAE@XZ 00513960 f i libcpmtd:iostream.obj
 0001:00112980       ?overflow@?$basic_streambuf@DU?$char_traits@D@std@@@std@@MAEHH@Z 00513980 f i libcpmtd:iostream.obj
 0001:001129a0       ?pbackfail@?$basic_streambuf@DU?$char_traits@D@std@@@std@@MAEHH@Z 005139a0 f i libcpmtd:iostream.obj
 0001:001129c0       ?showmanyc@?$basic_streambuf@DU?$char_traits@D@std@@@std@@MAEHXZ 005139c0 f i libcpmtd:iostream.obj
 0001:001129d0       ?underflow@?$basic_streambuf@DU?$char_traits@D@std@@@std@@MAEHXZ 005139d0 f i libcpmtd:iostream.obj
 0001:001129e0       ?uflow@?$basic_streambuf@DU?$char_traits@D@std@@@std@@MAEHXZ 005139e0 f i libcpmtd:iostream.obj
 0001:00112a40       ?xsgetn@?$basic_streambuf@DU?$char_traits@D@std@@@std@@MAEHPADH@Z 00513a40 f i libcpmtd:iostream.obj
 0001:00112b40       ?to_char_type@?$char_traits@D@std@@SADABH@Z 00513b40 f i libcpmtd:iostream.obj
 0001:00112b50       ?xsputn@?$basic_streambuf@DU?$char_traits@D@std@@@std@@MAEHPBDH@Z 00513b50 f i libcpmtd:iostream.obj
 0001:00112c50       ?seekoff@?$basic_streambuf@DU?$char_traits@D@std@@@std@@MAE?AV?$fpos@H@2@JW4seekdir@ios_base@2@H@Z 00513c50 f i libcpmtd:iostream.obj
 0001:00112c80       ?seekpos@?$basic_streambuf@DU?$char_traits@D@std@@@std@@MAE?AV?$fpos@H@2@V32@H@Z 00513c80 f i libcpmtd:iostream.obj
 0001:00112cb0       ?setbuf@?$basic_streambuf@DU?$char_traits@D@std@@@std@@MAEPAV12@PADH@Z 00513cb0 f i libcpmtd:iostream.obj
 0001:00112cc0       ?sync@?$basic_streambuf@DU?$char_traits@D@std@@@std@@MAEHXZ 00513cc0 f i libcpmtd:iostream.obj
 0001:00112cd0       ?imbue@?$basic_streambuf@DU?$char_traits@D@std@@@std@@MAEXABVlocale@2@@Z 00513cd0 f i libcpmtd:iostream.obj
 0001:00112ce0       ??0?$basic_filebuf@DU?$char_traits@D@std@@@std@@QAE@W4_Uninitialized@1@@Z 00513ce0 f i libcpmtd:iostream.obj
 0001:00112d40       ??0locale@std@@QAE@W4_Uninitialized@1@@Z 00513d40 f i libcpmtd:iostream.obj
 0001:00112d50       ??1?$basic_filebuf@DU?$char_traits@D@std@@@std@@UAE@XZ 00513d50 f i libcpmtd:iostream.obj
 0001:00112df0       ?overflow@?$basic_filebuf@DU?$char_traits@D@std@@@std@@MAEHH@Z 00513df0 f i libcpmtd:iostream.obj
 0001:00113000       ?not_eof@?$char_traits@D@std@@SAHABH@Z 00514000 f i libcpmtd:iostream.obj
 0001:00113030       ?_Fputc@std@@YA_NDPAU_iobuf@@@Z 00514030 f i libcpmtd:iostream.obj
 0001:00113050       ?pbackfail@?$basic_filebuf@DU?$char_traits@D@std@@@std@@MAEHH@Z 00514050 f i libcpmtd:iostream.obj
 0001:001131d0       ?_Ungetc@std@@YA_NDPAU_iobuf@@@Z 005141d0 f i libcpmtd:iostream.obj
 0001:00113200       ?underflow@?$basic_filebuf@DU?$char_traits@D@std@@@std@@MAEHXZ 00514200 f i libcpmtd:iostream.obj
 0001:00113260       ?uflow@?$basic_filebuf@DU?$char_traits@D@std@@@std@@MAEHXZ 00514260 f i libcpmtd:iostream.obj
 0001:00113400       ?_Fgetc@std@@YA_NAADPAU_iobuf@@@Z 00514400 f i libcpmtd:iostream.obj
 0001:00113430       ?seekoff@?$basic_filebuf@DU?$char_traits@D@std@@@std@@MAE?AV?$fpos@H@2@JW4seekdir@ios_base@2@H@Z 00514430 f i libcpmtd:iostream.obj
 0001:001134c0       ?seekpos@?$basic_filebuf@DU?$char_traits@D@std@@@std@@MAE?AV?$fpos@H@2@V32@H@Z 005144c0 f i libcpmtd:iostream.obj
 0001:001135c0       ?setbuf@?$basic_filebuf@DU?$char_traits@D@std@@@std@@MAEPAV?$basic_streambuf@DU?$char_traits@D@std@@@2@PADH@Z 005145c0 f i libcpmtd:iostream.obj
 0001:00113610       ?sync@?$basic_filebuf@DU?$char_traits@D@std@@@std@@MAEHXZ 00514610 f i libcpmtd:iostream.obj
 0001:00113650       ??_E?$basic_ostream@DU?$char_traits@D@std@@@std@@UAEPAXI@Z 00514650 f i libcpmtd:iostream.obj
 0001:00113650       ??_G?$basic_ostream@DU?$char_traits@D@std@@@std@@UAEPAXI@Z 00514650 f i libcpmtd:iostream.obj
 0001:00113690       ??_G?$basic_ios@DU?$char_traits@D@std@@@std@@UAEPAXI@Z 00514690 f i libcpmtd:iostream.obj
 0001:00113690       ??_E?$basic_ios@DU?$char_traits@D@std@@@std@@UAEPAXI@Z 00514690 f i libcpmtd:iostream.obj
 0001:001136c0       ??_G?$basic_istream@DU?$char_traits@D@std@@@std@@UAEPAXI@Z 005146c0 f i libcpmtd:iostream.obj
 0001:001136c0       ??_E?$basic_istream@DU?$char_traits@D@std@@@std@@UAEPAXI@Z 005146c0 f i libcpmtd:iostream.obj
 0001:00113700       ??_E?$basic_streambuf@DU?$char_traits@D@std@@@std@@UAEPAXI@Z 00514700 f i libcpmtd:iostream.obj
 0001:00113700       ??_G?$basic_streambuf@DU?$char_traits@D@std@@@std@@UAEPAXI@Z 00514700 f i libcpmtd:iostream.obj
 0001:00113730       ??_G?$basic_filebuf@DU?$char_traits@D@std@@@std@@UAEPAXI@Z 00514730 f i libcpmtd:iostream.obj
 0001:00113730       ??_E?$basic_filebuf@DU?$char_traits@D@std@@@std@@UAEPAXI@Z 00514730 f i libcpmtd:iostream.obj
 0001:00113760       ??_G?$basic_string@DU?$char_traits@D@std@@V?$allocator@D@2@@std@@QAEPAXI@Z 00514760 f i libcpmtd:iostream.obj
 0001:00113790       ?begin@?$basic_string@DU?$char_traits@D@std@@V?$allocator@D@2@@std@@QAEPADXZ 00514790 f i libcpmtd:iostream.obj
 0001:001137b0       ?end@?$basic_string@DU?$char_traits@D@std@@V?$allocator@D@2@@std@@QAEPADXZ 005147b0 f i libcpmtd:iostream.obj
 0001:001137e0       ?_Psum@?$basic_string@DU?$char_traits@D@std@@V?$allocator@D@2@@std@@CAPADPADI@Z 005147e0 f i libcpmtd:iostream.obj
 0001:00113810       ?init@?$basic_ios@DU?$char_traits@D@std@@@std@@IAEXPAV?$basic_streambuf@DU?$char_traits@D@std@@@2@_N@Z 00514810 f i libcpmtd:iostream.obj
 0001:00113880       ??0?$basic_ios@DU?$char_traits@D@std@@@std@@IAE@XZ 00514880 f i libcpmtd:iostream.obj
 0001:001138a0       ??0ios_base@std@@IAE@XZ    005148a0 f i libcpmtd:iostream.obj
 0001:001138d0       ??_Eios_base@std@@UAEPAXI@Z 005148d0 f i libcpmtd:iostream.obj
 0001:001138d0       ??_Gios_base@std@@UAEPAXI@Z 005148d0 f i libcpmtd:iostream.obj
 0001:00113900       ??0?$fpos@H@std@@QAE@J@Z   00514900 f i libcpmtd:iostream.obj
 0001:00113950       ??0?$fpos@H@std@@QAE@H_J@Z 00514950 f i libcpmtd:iostream.obj
 0001:00113990       ?state@?$fpos@H@std@@QBEHXZ 00514990 f i libcpmtd:iostream.obj
 0001:001139b0       ?get_fpos_t@?$fpos@H@std@@QBE_JXZ 005149b0 f i libcpmtd:iostream.obj
 0001:001139d0       ??B?$fpos@H@std@@QBEJXZ    005149d0 f i libcpmtd:iostream.obj
 0001:001139f0       ??0?$basic_streambuf@DU?$char_traits@D@std@@@std@@IAE@XZ 005149f0 f i libcpmtd:iostream.obj
 0001:00113a50       ??0?$basic_streambuf@DU?$char_traits@D@std@@@std@@IAE@W4_Uninitialized@1@@Z 00514a50 f i libcpmtd:iostream.obj
 0001:00113a80       ?eback@?$basic_streambuf@DU?$char_traits@D@std@@@std@@IBEPADXZ 00514a80 f i libcpmtd:iostream.obj
 0001:00113aa0       ?gptr@?$basic_streambuf@DU?$char_traits@D@std@@@std@@IBEPADXZ 00514aa0 f i libcpmtd:iostream.obj
 0001:00113ac0       ?egptr@?$basic_streambuf@DU?$char_traits@D@std@@@std@@IBEPADXZ 00514ac0 f i libcpmtd:iostream.obj
 0001:00113ae0       ?gbump@?$basic_streambuf@DU?$char_traits@D@std@@@std@@IAEXH@Z 00514ae0 f i libcpmtd:iostream.obj
 0001:00113b20       ?_Gndec@?$basic_streambuf@DU?$char_traits@D@std@@@std@@IAEPADXZ 00514b20 f i libcpmtd:iostream.obj
 0001:00113b60       ?_Gninc@?$basic_streambuf@DU?$char_traits@D@std@@@std@@IAEPADXZ 00514b60 f i libcpmtd:iostream.obj
 0001:00113ba0       ?pbump@?$basic_streambuf@DU?$char_traits@D@std@@@std@@IAEXH@Z 00514ba0 f i libcpmtd:iostream.obj
 0001:00113be0       ?close@?$basic_filebuf@DU?$char_traits@D@std@@@std@@QAEPAV12@XZ 00514be0 f i libcpmtd:iostream.obj
 0001:00113c20       ?_Init@?$basic_filebuf@DU?$char_traits@D@std@@@std@@IAEXPAU_iobuf@@W4_Initfl@12@@Z 00514c20 f i libcpmtd:iostream.obj
 0001:00113d00       ?in@?$codecvt@DDH@std@@QBEHAAHPBD1AAPBDPAD3AAPAD@Z 00514d00 f i libcpmtd:iostream.obj
 0001:00113d40       ?out@?$codecvt@DDH@std@@QBEHAAHPBD1AAPBDPAD3AAPAD@Z 00514d40 f i libcpmtd:iostream.obj
 0001:00113d80       ?_Freeze@?$basic_string@DU?$char_traits@D@std@@V?$allocator@D@2@@std@@AAEXXZ 00514d80 f i libcpmtd:iostream.obj
 0001:00113e00       ?_Init@?$basic_streambuf@DU?$char_traits@D@std@@@std@@IAEXXZ 00514e00 f i libcpmtd:iostream.obj
 0001:00113e70       ?_Init@?$basic_streambuf@DU?$char_traits@D@std@@@std@@IAEXPAPAD0PAH001@Z 00514e70 f i libcpmtd:iostream.obj
 0001:00113ec0       ?setg@?$basic_streambuf@DU?$char_traits@D@std@@@std@@IAEXPAD00@Z 00514ec0 f i libcpmtd:iostream.obj
 0001:00113f00       ?setp@?$basic_streambuf@DU?$char_traits@D@std@@@std@@IAEXPAD0@Z 00514f00 f i libcpmtd:iostream.obj
 0001:00113f40       ?_Ungetc@std@@YA_NABDPAU_iobuf@@I@Z 00514f40 f i libcpmtd:iostream.obj
 0001:00114000       ?id@?$collate@D@std@@$D    00515000 f i libcpmtd:iostream.obj
 0001:00114050       ?id@?$collate@D@std@@$E    00515050 f i libcpmtd:iostream.obj
 0001:00114280       ??_D?$basic_istream@GU?$char_traits@G@std@@@std@@QAEXXZ 00515280 f i libcpmtd:wiostrea.obj
 0001:00114310       ??_D?$basic_ostream@GU?$char_traits@G@std@@@std@@QAEXXZ 00515310 f i libcpmtd:wiostrea.obj
 0001:00114400       ??0_Winit@std@@QAE@XZ      00515400 f   libcpmtd:wiostrea.obj
 0001:001146e0       ??1_Winit@std@@QAE@XZ      005156e0 f   libcpmtd:wiostrea.obj
 0001:00114750       ??0?$basic_ostream@GU?$char_traits@G@std@@@std@@QAE@PAV?$basic_streambuf@GU?$char_traits@G@std@@@1@_N1@Z 00515750 f i libcpmtd:wiostrea.obj
 0001:00114800       ??0?$basic_ostream@GU?$char_traits@G@std@@@std@@QAE@W4_Uninitialized@1@@Z 00515800 f i libcpmtd:wiostrea.obj
 0001:00114890       ??1?$basic_ostream@GU?$char_traits@G@std@@@std@@UAE@XZ 00515890 f i libcpmtd:wiostrea.obj
 0001:001148b0       ?flush@?$basic_ostream@GU?$char_traits@G@std@@@std@@QAEAAV12@XZ 005158b0 f i libcpmtd:wiostrea.obj
 0001:00114920       ??1?$basic_ios@GU?$char_traits@G@std@@@std@@UAE@XZ 00515920 f i libcpmtd:wiostrea.obj
 0001:00114940       ?setstate@?$basic_ios@GU?$char_traits@G@std@@@std@@QAEXH_N@Z 00515940 f i libcpmtd:wiostrea.obj
 0001:00114970       ?tie@?$basic_ios@GU?$char_traits@G@std@@@std@@QAEPAV?$basic_ostream@GU?$char_traits@G@std@@@2@PAV32@@Z 00515970 f i libcpmtd:wiostrea.obj
 0001:001149a0       ?rdbuf@?$basic_ios@GU?$char_traits@G@std@@@std@@QBEPAV?$basic_streambuf@GU?$char_traits@G@std@@@2@XZ 005159a0 f i libcpmtd:wiostrea.obj
 0001:001149c0       ??0?$basic_istream@GU?$char_traits@G@std@@@std@@QAE@PAV?$basic_streambuf@GU?$char_traits@G@std@@@1@_N@Z 005159c0 f i libcpmtd:wiostrea.obj
 0001:00114a60       ??0?$basic_istream@GU?$char_traits@G@std@@@std@@QAE@W4_Uninitialized@1@@Z 00515a60 f i libcpmtd:wiostrea.obj
 0001:00114af0       ??1?$basic_istream@GU?$char_traits@G@std@@@std@@UAE@XZ 00515af0 f i libcpmtd:wiostrea.obj
 0001:00114b10       ??0?$basic_filebuf@GU?$char_traits@G@std@@@std@@QAE@PAU_iobuf@@@Z 00515b10 f i libcpmtd:wiostrea.obj
 0001:00114b80       ??1?$basic_streambuf@GU?$char_traits@G@std@@@std@@UAE@XZ 00515b80 f i libcpmtd:wiostrea.obj
 0001:00114ba0       ?overflow@?$basic_streambuf@GU?$char_traits@G@std@@@std@@MAEGG@Z 00515ba0 f i libcpmtd:wiostrea.obj
 0001:00114bc0       ?eof@?$char_traits@G@std@@SAGXZ 00515bc0 f i libcpmtd:wiostrea.obj
 0001:00114bd0       ?pbackfail@?$basic_streambuf@GU?$char_traits@G@std@@@std@@MAEGG@Z 00515bd0 f i libcpmtd:wiostrea.obj
 0001:00114bf0       ?showmanyc@?$basic_streambuf@GU?$char_traits@G@std@@@std@@MAEHXZ 00515bf0 f i libcpmtd:wiostrea.obj
 0001:00114c00       ?underflow@?$basic_streambuf@GU?$char_traits@G@std@@@std@@MAEGXZ 00515c00 f i libcpmtd:wiostrea.obj
 0001:00114c10       ?uflow@?$basic_streambuf@GU?$char_traits@G@std@@@std@@MAEGXZ 00515c10 f i libcpmtd:wiostrea.obj
 0001:00114c80       ?to_int_type@?$char_traits@G@std@@SAGABG@Z 00515c80 f i libcpmtd:wiostrea.obj
 0001:00114c90       ?eq_int_type@?$char_traits@G@std@@SA_NABG0@Z 00515c90 f i libcpmtd:wiostrea.obj
 0001:00114cb0       ?xsgetn@?$basic_streambuf@GU?$char_traits@G@std@@@std@@MAEHPAGH@Z 00515cb0 f i libcpmtd:wiostrea.obj
 0001:00114dc0       ?copy@?$char_traits@G@std@@SAPAGPAGPBGI@Z 00515dc0 f i libcpmtd:wiostrea.obj
 0001:00114de0       _wmemcpy                   00515de0 f i libcpmtd:wiostrea.obj
 0001:00114e30       ?to_char_type@?$char_traits@G@std@@SAGABG@Z 00515e30 f i libcpmtd:wiostrea.obj
 0001:00114e40       ?xsputn@?$basic_streambuf@GU?$char_traits@G@std@@@std@@MAEHPBGH@Z 00515e40 f i libcpmtd:wiostrea.obj
 0001:00114f50       ?seekoff@?$basic_streambuf@GU?$char_traits@G@std@@@std@@MAE?AV?$fpos@H@2@JW4seekdir@ios_base@2@H@Z 00515f50 f i libcpmtd:wiostrea.obj
 0001:00114f80       ?seekpos@?$basic_streambuf@GU?$char_traits@G@std@@@std@@MAE?AV?$fpos@H@2@V32@H@Z 00515f80 f i libcpmtd:wiostrea.obj
 0001:00114fb0       ?setbuf@?$basic_streambuf@GU?$char_traits@G@std@@@std@@MAEPAV12@PAGH@Z 00515fb0 f i libcpmtd:wiostrea.obj
 0001:00114fc0       ?sync@?$basic_streambuf@GU?$char_traits@G@std@@@std@@MAEHXZ 00515fc0 f i libcpmtd:wiostrea.obj
 0001:00114fd0       ?imbue@?$basic_streambuf@GU?$char_traits@G@std@@@std@@MAEXABVlocale@2@@Z 00515fd0 f i libcpmtd:wiostrea.obj
 0001:00114fe0       ??0?$basic_filebuf@GU?$char_traits@G@std@@@std@@QAE@W4_Uninitialized@1@@Z 00515fe0 f i libcpmtd:wiostrea.obj
 0001:00115040       ??1?$basic_filebuf@GU?$char_traits@G@std@@@std@@UAE@XZ 00516040 f i libcpmtd:wiostrea.obj
 0001:001150e0       ?overflow@?$basic_filebuf@GU?$char_traits@G@std@@@std@@MAEGG@Z 005160e0 f i libcpmtd:wiostrea.obj
 0001:00115300       ?not_eof@?$char_traits@G@std@@SAGABG@Z 00516300 f i libcpmtd:wiostrea.obj
 0001:00115350       ?out@?$codecvt@GDH@std@@QBEHAAHPBG1AAPBGPAD3AAPAD@Z 00516350 f i libcpmtd:wiostrea.obj
 0001:00115390       ?_Fputc@std@@YA_NGPAU_iobuf@@@Z 00516390 f i libcpmtd:wiostrea.obj
 0001:001153c0       ?pbackfail@?$basic_filebuf@GU?$char_traits@G@std@@@std@@MAEGG@Z 005163c0 f i libcpmtd:wiostrea.obj
 0001:00115550       ?_Ungetc@std@@YA_NGPAU_iobuf@@@Z 00516550 f i libcpmtd:wiostrea.obj
 0001:00115580       ?underflow@?$basic_filebuf@GU?$char_traits@G@std@@@std@@MAEGXZ 00516580 f i libcpmtd:wiostrea.obj
 0001:001155e0       ?uflow@?$basic_filebuf@GU?$char_traits@G@std@@@std@@MAEGXZ 005165e0 f i libcpmtd:wiostrea.obj
 0001:00115780       ?in@?$codecvt@GDH@std@@QBEHAAHPBD1AAPBDPAG3AAPAG@Z 00516780 f i libcpmtd:wiostrea.obj
 0001:001157c0       ?_Fgetc@std@@YA_NAAGPAU_iobuf@@@Z 005167c0 f i libcpmtd:wiostrea.obj
 0001:00115800       ?seekoff@?$basic_filebuf@GU?$char_traits@G@std@@@std@@MAE?AV?$fpos@H@2@JW4seekdir@ios_base@2@H@Z 00516800 f i libcpmtd:wiostrea.obj
 0001:00115890       ?seekpos@?$basic_filebuf@GU?$char_traits@G@std@@@std@@MAE?AV?$fpos@H@2@V32@H@Z 00516890 f i libcpmtd:wiostrea.obj
 0001:00115990       ?setbuf@?$basic_filebuf@GU?$char_traits@G@std@@@std@@MAEPAV?$basic_streambuf@GU?$char_traits@G@std@@@2@PAGH@Z 00516990 f i libcpmtd:wiostrea.obj
 0001:001159e0       ?sync@?$basic_filebuf@GU?$char_traits@G@std@@@std@@MAEHXZ 005169e0 f i libcpmtd:wiostrea.obj
 0001:00115a20       ??_G?$basic_ostream@GU?$char_traits@G@std@@@std@@UAEPAXI@Z 00516a20 f i libcpmtd:wiostrea.obj
 0001:00115a20       ??_E?$basic_ostream@GU?$char_traits@G@std@@@std@@UAEPAXI@Z 00516a20 f i libcpmtd:wiostrea.obj
 0001:00115a60       ??_G?$basic_ios@GU?$char_traits@G@std@@@std@@UAEPAXI@Z 00516a60 f i libcpmtd:wiostrea.obj
 0001:00115a60       ??_E?$basic_ios@GU?$char_traits@G@std@@@std@@UAEPAXI@Z 00516a60 f i libcpmtd:wiostrea.obj
 0001:00115a90       ??_E?$basic_istream@GU?$char_traits@G@std@@@std@@UAEPAXI@Z 00516a90 f i libcpmtd:wiostrea.obj
 0001:00115a90       ??_G?$basic_istream@GU?$char_traits@G@std@@@std@@UAEPAXI@Z 00516a90 f i libcpmtd:wiostrea.obj
 0001:00115ad0       ??_E?$basic_streambuf@GU?$char_traits@G@std@@@std@@UAEPAXI@Z 00516ad0 f i libcpmtd:wiostrea.obj
 0001:00115ad0       ??_G?$basic_streambuf@GU?$char_traits@G@std@@@std@@UAEPAXI@Z 00516ad0 f i libcpmtd:wiostrea.obj
 0001:00115b00       ??_G?$basic_filebuf@GU?$char_traits@G@std@@@std@@UAEPAXI@Z 00516b00 f i libcpmtd:wiostrea.obj
 0001:00115b00       ??_E?$basic_filebuf@GU?$char_traits@G@std@@@std@@UAEPAXI@Z 00516b00 f i libcpmtd:wiostrea.obj
 0001:00115b30       ?clear@?$basic_ios@GU?$char_traits@G@std@@@std@@QAEXH_N@Z 00516b30 f i libcpmtd:wiostrea.obj
 0001:00115b70       ?init@?$basic_ios@GU?$char_traits@G@std@@@std@@IAEXPAV?$basic_streambuf@GU?$char_traits@G@std@@@2@_N@Z 00516b70 f i libcpmtd:wiostrea.obj
 0001:00115be0       ?_Widen@std@@YAGDPAG@Z     00516be0 f i libcpmtd:wiostrea.obj
 0001:00115c00       ??0?$basic_ios@GU?$char_traits@G@std@@@std@@IAE@XZ 00516c00 f i libcpmtd:wiostrea.obj
 0001:00115c20       ??0?$basic_streambuf@GU?$char_traits@G@std@@@std@@IAE@XZ 00516c20 f i libcpmtd:wiostrea.obj
 0001:00115c80       ??0?$basic_streambuf@GU?$char_traits@G@std@@@std@@IAE@W4_Uninitialized@1@@Z 00516c80 f i libcpmtd:wiostrea.obj
 0001:00115cb0       ?pubsync@?$basic_streambuf@GU?$char_traits@G@std@@@std@@QAEHXZ 00516cb0 f i libcpmtd:wiostrea.obj
 0001:00115cd0       ?eback@?$basic_streambuf@GU?$char_traits@G@std@@@std@@IBEPAGXZ 00516cd0 f i libcpmtd:wiostrea.obj
 0001:00115cf0       ?gptr@?$basic_streambuf@GU?$char_traits@G@std@@@std@@IBEPAGXZ 00516cf0 f i libcpmtd:wiostrea.obj
 0001:00115d10       ?pptr@?$basic_streambuf@GU?$char_traits@G@std@@@std@@IBEPAGXZ 00516d10 f i libcpmtd:wiostrea.obj
 0001:00115d30       ?egptr@?$basic_streambuf@GU?$char_traits@G@std@@@std@@IBEPAGXZ 00516d30 f i libcpmtd:wiostrea.obj
 0001:00115d50       ?gbump@?$basic_streambuf@GU?$char_traits@G@std@@@std@@IAEXH@Z 00516d50 f i libcpmtd:wiostrea.obj
 0001:00115d90       ?epptr@?$basic_streambuf@GU?$char_traits@G@std@@@std@@IBEPAGXZ 00516d90 f i libcpmtd:wiostrea.obj
 0001:00115db0       ?_Gndec@?$basic_streambuf@GU?$char_traits@G@std@@@std@@IAEPAGXZ 00516db0 f i libcpmtd:wiostrea.obj
 0001:00115df0       ?_Gninc@?$basic_streambuf@GU?$char_traits@G@std@@@std@@IAEPAGXZ 00516df0 f i libcpmtd:wiostrea.obj
 0001:00115e30       ?pbump@?$basic_streambuf@GU?$char_traits@G@std@@@std@@IAEXH@Z 00516e30 f i libcpmtd:wiostrea.obj
 0001:00115e70       ?_Pninc@?$basic_streambuf@GU?$char_traits@G@std@@@std@@IAEPAGXZ 00516e70 f i libcpmtd:wiostrea.obj
 0001:00115eb0       ?close@?$basic_filebuf@GU?$char_traits@G@std@@@std@@QAEPAV12@XZ 00516eb0 f i libcpmtd:wiostrea.obj
 0001:00115ef0       ?_Init@?$basic_filebuf@GU?$char_traits@G@std@@@std@@IAEXPAU_iobuf@@W4_Initfl@12@@Z 00516ef0 f i libcpmtd:wiostrea.obj
 0001:00115fd0       ?_Init@?$basic_streambuf@GU?$char_traits@G@std@@@std@@IAEXXZ 00516fd0 f i libcpmtd:wiostrea.obj
 0001:00116040       ?_Init@?$basic_streambuf@GU?$char_traits@G@std@@@std@@IAEXPAPAG0PAH001@Z 00517040 f i libcpmtd:wiostrea.obj
 0001:00116090       ?setg@?$basic_streambuf@GU?$char_traits@G@std@@@std@@IAEXPAG00@Z 00517090 f i libcpmtd:wiostrea.obj
 0001:001160d0       ?setp@?$basic_streambuf@GU?$char_traits@G@std@@@std@@IAEXPAG0@Z 005170d0 f i libcpmtd:wiostrea.obj
 0001:00116170       ??0_Lockit@std@@QAE@XZ     00517170 f   libcpmtd:xlock.obj
 0001:00116250       ??1_Lockit@std@@QAE@XZ     00517250 f   libcpmtd:xlock.obj
 0001:00116270       ?_Xlen@std@@YAXXZ          00517270 f   libcpmtd:string.obj
 0001:001162d0       ??0logic_error@std@@QAE@ABV01@@Z 005172d0 f i libcpmtd:string.obj
 0001:00116340       ?what@logic_error@std@@UBEPBDXZ 00517340 f i libcpmtd:string.obj
 0001:00116360       ?_Doraise@logic_error@std@@MBEXXZ 00517360 f i libcpmtd:string.obj
 0001:00116390       ??1logic_error@std@@UAE@XZ 00517390 f i libcpmtd:string.obj
 0001:001163f0       ??_Elogic_error@std@@UAEPAXI@Z 005173f0 f i libcpmtd:string.obj
 0001:001163f0       ??_Glogic_error@std@@UAEPAXI@Z 005173f0 f i libcpmtd:string.obj
 0001:00116420       ??0length_error@std@@QAE@ABV?$basic_string@DU?$char_traits@D@std@@V?$allocator@D@2@@1@@Z 00517420 f i libcpmtd:string.obj
 0001:00116450       ??0logic_error@std@@QAE@ABV?$basic_string@DU?$char_traits@D@std@@V?$allocator@D@2@@1@@Z 00517450 f i libcpmtd:string.obj
 0001:001164c0       ??1length_error@std@@UAE@XZ 005174c0 f i libcpmtd:string.obj
 0001:001164e0       ?_Doraise@length_error@std@@MBEXXZ 005174e0 f i libcpmtd:string.obj
 0001:00116510       ??_Elength_error@std@@UAEPAXI@Z 00517510 f i libcpmtd:string.obj
 0001:00116510       ??_Glength_error@std@@UAEPAXI@Z 00517510 f i libcpmtd:string.obj
 0001:00116540       ??0length_error@std@@QAE@ABV01@@Z 00517540 f i libcpmtd:string.obj
 0001:00116570       ?_Xran@std@@YAXXZ          00517570 f   libcpmtd:string.obj
 0001:001165d0       ??0out_of_range@std@@QAE@ABV?$basic_string@DU?$char_traits@D@std@@V?$allocator@D@2@@1@@Z 005175d0 f i libcpmtd:string.obj
 0001:00116600       ??1out_of_range@std@@UAE@XZ 00517600 f i libcpmtd:string.obj
 0001:00116620       ?_Doraise@out_of_range@std@@MBEXXZ 00517620 f i libcpmtd:string.obj
 0001:00116650       ??_Eout_of_range@std@@UAEPAXI@Z 00517650 f i libcpmtd:string.obj
 0001:00116650       ??_Gout_of_range@std@@UAEPAXI@Z 00517650 f i libcpmtd:string.obj
 0001:00116680       ??0out_of_range@std@@QAE@ABV01@@Z 00517680 f i libcpmtd:string.obj
 0001:00116710       ?clear@ios_base@std@@QAEXH_N@Z 00517710 f   libcpmtd:ios.obj
 0001:001167f0       ??0runtime_error@std@@QAE@ABV01@@Z 005177f0 f i libcpmtd:ios.obj
 0001:00116860       ?what@runtime_error@std@@UBEPBDXZ 00517860 f i libcpmtd:ios.obj
 0001:00116880       ?_Doraise@runtime_error@std@@MBEXXZ 00517880 f i libcpmtd:ios.obj
 0001:001168b0       ??1runtime_error@std@@UAE@XZ 005178b0 f i libcpmtd:ios.obj
 0001:00116910       ??_Gruntime_error@std@@UAEPAXI@Z 00517910 f i libcpmtd:ios.obj
 0001:00116910       ??_Eruntime_error@std@@UAEPAXI@Z 00517910 f i libcpmtd:ios.obj
 0001:00116940       ??0failure@ios_base@std@@QAE@ABV?$basic_string@DU?$char_traits@D@std@@V?$allocator@D@2@@2@@Z 00517940 f i libcpmtd:ios.obj
 0001:00116970       ??0runtime_error@std@@QAE@ABV?$basic_string@DU?$char_traits@D@std@@V?$allocator@D@2@@1@@Z 00517970 f i libcpmtd:ios.obj
 0001:001169e0       ??1failure@ios_base@std@@UAE@XZ 005179e0 f i libcpmtd:ios.obj
 0001:00116a00       ?_Doraise@failure@ios_base@std@@MBEXXZ 00517a00 f i libcpmtd:ios.obj
 0001:00116a30       ??_Gfailure@ios_base@std@@UAEPAXI@Z 00517a30 f i libcpmtd:ios.obj
 0001:00116a30       ??_Efailure@ios_base@std@@UAEPAXI@Z 00517a30 f i libcpmtd:ios.obj
 0001:00116a60       ??0failure@ios_base@std@@QAE@ABV012@@Z 00517a60 f i libcpmtd:ios.obj
 0001:00116a90       ?copyfmt@ios_base@std@@QAEAAV12@ABV12@@Z 00517a90 f   libcpmtd:ios.obj
 0001:00116b70       ??4locale@std@@QAEAAV01@ABV01@@Z 00517b70 f i libcpmtd:ios.obj
 0001:00116be0       ?exceptions@ios_base@std@@QAEXH@Z 00517be0 f i libcpmtd:ios.obj
 0001:00116c10       ?iword@ios_base@std@@QAEAAJH@Z 00517c10 f i libcpmtd:ios.obj
 0001:00116c30       ?pword@ios_base@std@@QAEAAPAXH@Z 00517c30 f i libcpmtd:ios.obj
 0001:00116c50       ?imbue@ios_base@std@@QAE?AVlocale@2@ABV32@@Z 00517c50 f   libcpmtd:ios.obj
 0001:00116ce0       ?register_callback@ios_base@std@@QAEXP6AXW4event@12@AAV12@H@ZH@Z 00517ce0 f   libcpmtd:ios.obj
 0001:00116d70       ??0_Fnarray@ios_base@std@@QAE@HP6AXW4event@12@AAV12@H@ZPAU012@@Z 00517d70 f i libcpmtd:ios.obj
 0001:00116da0       ??1ios_base@std@@UAE@XZ    00517da0 f   libcpmtd:ios.obj
 0001:00116e30       ?_Callfns@ios_base@std@@AAEXW4event@12@@Z 00517e30 f   libcpmtd:ios.obj
 0001:00116e80       ?_Findarr@ios_base@std@@AAEAAU_Iosarray@12@H@Z 00517e80 f   libcpmtd:ios.obj
 0001:00116fb0       ??0_Iosarray@ios_base@std@@QAE@HPAU012@@Z 00517fb0 f i libcpmtd:ios.obj
 0001:00116ff0       ?_Addstd@ios_base@std@@IAEXXZ 00517ff0 f   libcpmtd:ios.obj
 0001:00117080       ?_Init@ios_base@std@@IAEXXZ 00518080 f   libcpmtd:ios.obj
 0001:00117110       ?_Tidy@ios_base@std@@AAEXXZ 00518110 f   libcpmtd:ios.obj
 0001:001171b0       ?uncaught_exception@std@@YA_NXZ 005181b0 f   libcpmtd:uncaught.obj
 0001:00117220       ?classic@locale@std@@SAABV12@XZ 00518220 f   libcpmtd:locale0.obj
 0001:00117250       ?empty@locale@std@@SA?AV12@XZ 00518250 f   libcpmtd:locale0.obj
 0001:001172e0       ??0locale@std@@AAE@PAV_Locimp@01@@Z 005182e0 f i libcpmtd:locale0.obj
 0001:00117300       ?_Getfacet@locale@std@@QBEPBVfacet@12@I_N@Z 00518300 f   libcpmtd:locale0.obj
 0001:001173b0       ?_Iscloc@locale@std@@QBE_NXZ 005183b0 f   libcpmtd:locale0.obj
 0001:00117410       ??8locale@std@@QBE_NABV01@@Z 00518410 f   libcpmtd:locale0.obj
 0001:00117530       ?name@locale@std@@QBE?AV?$basic_string@DU?$char_traits@D@std@@V?$allocator@D@2@@2@XZ 00518530 f i libcpmtd:locale0.obj
 0001:00117570       ?_Init@locale@std@@CAPAV_Locimp@12@XZ 00518570 f   libcpmtd:locale0.obj
 0001:001176a0       ?_Tidy@locale@std@@CAXXZ   005186a0 f   libcpmtd:locale0.obj
 0001:00117730       ??0_Locimp@locale@std@@AAE@_N@Z 00518730 f   libcpmtd:locale0.obj
 0001:001177c0       ??_E_Locimp@locale@std@@UAEPAXI@Z 005187c0 f i libcpmtd:locale0.obj
 0001:001177c0       ??_G_Locimp@locale@std@@UAEPAXI@Z 005187c0 f i libcpmtd:locale0.obj
 0001:001177f0       ??1_Locimp@locale@std@@UAE@XZ 005187f0 f   libcpmtd:locale0.obj
 0001:001178e0       ??4?$basic_string@DU?$char_traits@D@std@@V?$allocator@D@2@@std@@QAEAAV01@PBD@Z 005188e0 f i libcpmtd:locale0.obj
 0001:00117900       ?compare@?$basic_string@DU?$char_traits@D@std@@V?$allocator@D@2@@std@@QBEHABV12@@Z 00518900 f i libcpmtd:locale0.obj
 0001:00117930       ?compare@?$basic_string@DU?$char_traits@D@std@@V?$allocator@D@2@@std@@QBEHPBD@Z 00518930 f i libcpmtd:locale0.obj
 0001:00117960       ?compare@?$basic_string@DU?$char_traits@D@std@@V?$allocator@D@2@@std@@QBEHIIPBDI@Z 00518960 f i libcpmtd:locale0.obj
 0001:00117a10       ?compare@?$char_traits@D@std@@SAHPBD0I@Z 00518a10 f i libcpmtd:locale0.obj
 0001:00117a90       ??0locale@std@@QAE@ABV01@0H@Z 00518a90 f   libcpmtd:locale.obj
 0001:00117b80       ??0locale@std@@QAE@PBDH@Z  00518b80 f   libcpmtd:locale.obj
 0001:00117cf0       ?_Getname@_Locinfo@std@@QBE?AV?$basic_string@DU?$char_traits@D@std@@V?$allocator@D@2@@2@XZ 00518cf0 f i libcpmtd:locale.obj
 0001:00117d30       ??0locale@std@@QAE@ABV01@PBDH@Z 00518d30 f   libcpmtd:locale.obj
 0001:00117ec0       ?_Addfac@locale@std@@QAEAAV12@PAVfacet@12@II@Z 00518ec0 f   libcpmtd:locale.obj
 0001:00117f80       ?global@locale@std@@SA?AV12@ABV12@@Z 00518f80 f   libcpmtd:locale.obj
 0001:00118100       ?_Makeloc@_Locimp@locale@std@@CAPAV123@ABV_Locinfo@3@HPAV123@PBV23@@Z 00519100 f   libcpmtd:locale.obj
 0001:001184c0       ??0?$ctype@D@std@@QAE@ABV_Locinfo@1@I@Z 005194c0 f i libcpmtd:locale.obj
 0001:00118520       ??0ctype_base@std@@QAE@I@Z 00519520 f i libcpmtd:locale.obj
 0001:00118550       ??_Ectype_base@std@@UAEPAXI@Z 00519550 f i libcpmtd:locale.obj
 0001:00118550       ??_Gctype_base@std@@UAEPAXI@Z 00519550 f i libcpmtd:locale.obj
 0001:00118580       ??1ctype_base@std@@UAE@XZ  00519580 f i libcpmtd:locale.obj
 0001:001185a0       ?_Getcat@?$ctype@D@std@@SAIXZ 005195a0 f i libcpmtd:locale.obj
 0001:001185b0       ?_Init@?$ctype@D@std@@IAEXABV_Locinfo@2@@Z 005195b0 f i libcpmtd:locale.obj
 0001:00118650       ?_Getctype@_Locinfo@std@@QBE?AU_Ctypevec@@XZ 00519650 f i libcpmtd:locale.obj
 0001:001186a0       ?_Term@?$ctype@D@std@@KAXXZ 005196a0 f i libcpmtd:locale.obj
 0001:001186c0       ?do_tolower@?$ctype@D@std@@MBEDD@Z 005196c0 f i libcpmtd:locale.obj
 0001:001186f0       ?do_tolower@?$ctype@D@std@@MBEPBDPADPBD@Z 005196f0 f i libcpmtd:locale.obj
 0001:00118730       ?do_toupper@?$ctype@D@std@@MBEDD@Z 00519730 f i libcpmtd:locale.obj
 0001:00118760       ?do_toupper@?$ctype@D@std@@MBEPBDPADPBD@Z 00519760 f i libcpmtd:locale.obj
 0001:001187a0       ??_G?$ctype@D@std@@UAEPAXI@Z 005197a0 f i libcpmtd:locale.obj
 0001:001187a0       ??_E?$ctype@D@std@@UAEPAXI@Z 005197a0 f i libcpmtd:locale.obj
 0001:001187d0       ??1?$ctype@D@std@@UAE@XZ   005197d0 f i libcpmtd:locale.obj
 0001:00118810       ??0_Locimp@locale@std@@AAE@ABV012@@Z 00519810 f   libcpmtd:locale.obj
 0001:001189a0       ?_Addfac@_Locimp@locale@std@@AAEXPAVfacet@23@I@Z 005199a0 f   libcpmtd:locale.obj
 0001:00118ad0       ??0_Locinfo@std@@QAE@PBD@Z 00519ad0 f   libcpmtd:locale.obj
 0001:00118bb0       ??0_Locinfo@std@@QAE@HPBD@Z 00519bb0 f   libcpmtd:locale.obj
 0001:00118c50       ??1_Locinfo@std@@QAE@XZ    00519c50 f   libcpmtd:locale.obj
 0001:00118cf0       ?_Addcats@_Locinfo@std@@QAEAAV12@HPBD@Z 00519cf0 f   libcpmtd:locale.obj
 0001:00118da0       ??0?$codecvt@DDH@std@@QAE@ABV_Locinfo@1@I@Z 00519da0 f i libcpmtd:locale.obj
 0001:00118e00       ??0codecvt_base@std@@QAE@I@Z 00519e00 f i libcpmtd:locale.obj
 0001:00118e30       ?do_always_noconv@codecvt_base@std@@MBE_NXZ 00519e30 f i libcpmtd:locale.obj
 0001:00118e40       ?do_max_length@codecvt_base@std@@MBEHXZ 00519e40 f i libcpmtd:locale.obj
 0001:00118e50       ?do_encoding@codecvt_base@std@@MBEHXZ 00519e50 f i libcpmtd:locale.obj
 0001:00118e60       ??_Gcodecvt_base@std@@UAEPAXI@Z 00519e60 f i libcpmtd:locale.obj
 0001:00118e60       ??_Ecodecvt_base@std@@UAEPAXI@Z 00519e60 f i libcpmtd:locale.obj
 0001:00118e90       ??1codecvt_base@std@@UAE@XZ 00519e90 f i libcpmtd:locale.obj
 0001:00118eb0       ?_Getcat@?$codecvt@DDH@std@@SAIXZ 00519eb0 f i libcpmtd:locale.obj
 0001:00118ec0       ?do_in@?$codecvt@DDH@std@@MBEHAAHPBD1AAPBDPAD3AAPAD@Z 00519ec0 f i libcpmtd:locale.obj
 0001:00118ef0       ?do_out@?$codecvt@DDH@std@@MBEHAAHPBD1AAPBDPAD3AAPAD@Z 00519ef0 f i libcpmtd:locale.obj
 0001:00118f20       ?do_length@?$codecvt@DDH@std@@MBEHAAHPBD1I@Z 00519f20 f i libcpmtd:locale.obj
 0001:00118f50       ?_Getcat@?$num_get@DV?$istreambuf_iterator@DU?$char_traits@D@std@@@std@@@std@@SAIXZ 00519f50 f i libcpmtd:locale.obj
 0001:00118f60       ??0?$num_get@DV?$istreambuf_iterator@DU?$char_traits@D@std@@@std@@@std@@QAE@ABV_Locinfo@1@I@Z 00519f60 f i libcpmtd:locale.obj
 0001:00118fc0       ?do_get@?$num_get@DV?$istreambuf_iterator@DU?$char_traits@D@std@@@std@@@std@@MBE?AV?$istreambuf_iterator@DU?$char_traits@D@std@@@2@V32@0AAVios_base@2@AAHAA_N@Z 00519fc0 f i libcpmtd:locale.obj
 0001:00119210       ?do_get@?$num_get@DV?$istreambuf_iterator@DU?$char_traits@D@std@@@std@@@std@@MBE?AV?$istreambuf_iterator@DU?$char_traits@D@std@@@2@V32@0AAVios_base@2@AAHAAG@Z 0051a210 f i libcpmtd:locale.obj
 0001:00119350       ?do_get@?$num_get@DV?$istreambuf_iterator@DU?$char_traits@D@std@@@std@@@std@@MBE?AV?$istreambuf_iterator@DU?$char_traits@D@std@@@2@V32@0AAVios_base@2@AAHAAI@Z 0051a350 f i libcpmtd:locale.obj
 0001:00119490       ?do_get@?$num_get@DV?$istreambuf_iterator@DU?$char_traits@D@std@@@std@@@std@@MBE?AV?$istreambuf_iterator@DU?$char_traits@D@std@@@2@V32@0AAVios_base@2@AAHAAJ@Z 0051a490 f i libcpmtd:locale.obj
 0001:00119590       ?do_get@?$num_get@DV?$istreambuf_iterator@DU?$char_traits@D@std@@@std@@@std@@MBE?AV?$istreambuf_iterator@DU?$char_traits@D@std@@@2@V32@0AAVios_base@2@AAHAAK@Z 0051a590 f i libcpmtd:locale.obj
 0001:00119690       ?do_get@?$num_get@DV?$istreambuf_iterator@DU?$char_traits@D@std@@@std@@@std@@MBE?AV?$istreambuf_iterator@DU?$char_traits@D@std@@@2@V32@0AAVios_base@2@AAHAAM@Z 0051a690 f i libcpmtd:locale.obj
 0001:00119790       ?do_get@?$num_get@DV?$istreambuf_iterator@DU?$char_traits@D@std@@@std@@@std@@MBE?AV?$istreambuf_iterator@DU?$char_traits@D@std@@@2@V32@0AAVios_base@2@AAHAAN@Z 0051a790 f i libcpmtd:locale.obj
 0001:00119890       ?do_get@?$num_get@DV?$istreambuf_iterator@DU?$char_traits@D@std@@@std@@@std@@MBE?AV?$istreambuf_iterator@DU?$char_traits@D@std@@@2@V32@0AAVios_base@2@AAHAAO@Z 0051a890 f i libcpmtd:locale.obj
 0001:00119990       ?do_get@?$num_get@DV?$istreambuf_iterator@DU?$char_traits@D@std@@@std@@@std@@MBE?AV?$istreambuf_iterator@DU?$char_traits@D@std@@@2@V32@0AAVios_base@2@AAHAAPAX@Z 0051a990 f i libcpmtd:locale.obj
 0001:00119b10       ?_Getcat@?$num_put@DV?$ostreambuf_iterator@DU?$char_traits@D@std@@@std@@@std@@SAIXZ 0051ab10 f i libcpmtd:locale.obj
 0001:00119b20       ??0?$num_put@DV?$ostreambuf_iterator@DU?$char_traits@D@std@@@std@@@std@@QAE@ABV_Locinfo@1@I@Z 0051ab20 f i libcpmtd:locale.obj
 0001:00119b80       ??0?$numpunct@D@std@@QAE@ABV_Locinfo@1@I@Z 0051ab80 f i libcpmtd:locale.obj
 0001:00119be0       ?_Getcat@?$numpunct@D@std@@SAIXZ 0051abe0 f i libcpmtd:locale.obj
 0001:00119bf0       ??_G?$codecvt@DDH@std@@UAEPAXI@Z 0051abf0 f i libcpmtd:locale.obj
 0001:00119bf0       ??_E?$codecvt@DDH@std@@UAEPAXI@Z 0051abf0 f i libcpmtd:locale.obj
 0001:00119c20       ??1?$codecvt@DDH@std@@UAE@XZ 0051ac20 f i libcpmtd:locale.obj
 0001:00119c40       ??_E?$num_get@DV?$istreambuf_iterator@DU?$char_traits@D@std@@@std@@@std@@UAEPAXI@Z 0051ac40 f i libcpmtd:locale.obj
 0001:00119c40       ??_G?$num_get@DV?$istreambuf_iterator@DU?$char_traits@D@std@@@std@@@std@@UAEPAXI@Z 0051ac40 f i libcpmtd:locale.obj
 0001:00119c70       ??1?$num_get@DV?$istreambuf_iterator@DU?$char_traits@D@std@@@std@@@std@@UAE@XZ 0051ac70 f i libcpmtd:locale.obj
 0001:00119c90       ??0?$basic_string@DU?$char_traits@D@std@@V?$allocator@D@2@@std@@QAE@IDABV?$allocator@D@1@@Z 0051ac90 f i libcpmtd:locale.obj
 0001:00119cd0       ??Y?$basic_string@DU?$char_traits@D@std@@V?$allocator@D@2@@std@@QAEAAV01@ABV01@@Z 0051acd0 f i libcpmtd:locale.obj
 0001:00119cf0       ??Y?$basic_string@DU?$char_traits@D@std@@V?$allocator@D@2@@std@@QAEAAV01@D@Z 0051acf0 f i libcpmtd:locale.obj
 0001:00119d10       ?_Init@?$codecvt@DDH@std@@IAEXABV_Locinfo@2@@Z 0051ad10 f i libcpmtd:locale.obj
 0001:00119d40       ?_Getcvt@_Locinfo@std@@QBE?AU_Cvtvec@@XZ 0051ad40 f i libcpmtd:locale.obj
 0001:00119d70       ?_Init@?$num_get@DV?$istreambuf_iterator@DU?$char_traits@D@std@@@std@@@std@@IAEXABV_Locinfo@2@@Z 0051ad70 f i libcpmtd:locale.obj
 0001:00119d80       ?_Getifld@?$num_get@DV?$istreambuf_iterator@DU?$char_traits@D@std@@@std@@@std@@CAHPADAAV?$istreambuf_iterator@DU?$char_traits@D@std@@@2@1HABVlocale@2@@Z 0051ad80 f i libcpmtd:locale.obj
 0001:0011a220       ?_Getffld@?$num_get@DV?$istreambuf_iterator@DU?$char_traits@D@std@@@std@@@std@@CAHPADAAV?$istreambuf_iterator@DU?$char_traits@D@std@@@2@1ABVlocale@2@@Z 0051b220 f i libcpmtd:locale.obj
 0001:0011a700       ??D?$istreambuf_iterator@DU?$char_traits@D@std@@@std@@QBEABDXZ 0051b700 f i libcpmtd:locale.obj
 0001:0011a730       ??E?$istreambuf_iterator@DU?$char_traits@D@std@@@std@@QAEAAV01@XZ 0051b730 f i libcpmtd:locale.obj
 0001:0011a750       ?append@?$basic_string@DU?$char_traits@D@std@@V?$allocator@D@2@@std@@QAEAAV12@ABV12@@Z 0051b750 f i libcpmtd:locale.obj
 0001:0011a780       ?assign@?$basic_string@DU?$char_traits@D@std@@V?$allocator@D@2@@std@@QAEAAV12@ID@Z 0051b780 f i libcpmtd:locale.obj
 0001:0011a7e0       ??A?$basic_string@DU?$char_traits@D@std@@V?$allocator@D@2@@std@@QAEAADI@Z 0051b7e0 f i libcpmtd:locale.obj
 0001:0011a820       ?_Inc@?$istreambuf_iterator@DU?$char_traits@D@std@@@std@@AAEXXZ 0051b820 f i libcpmtd:locale.obj
 0001:0011a880       ?sbumpc@?$basic_streambuf@DU?$char_traits@D@std@@@std@@QAEHXZ 0051b880 f i libcpmtd:locale.obj
 0001:0011a8e0       ?_Peek@?$istreambuf_iterator@DU?$char_traits@D@std@@@std@@AAEDXZ 0051b8e0 f i libcpmtd:locale.obj
 0001:0011a950       ?sgetc@?$basic_streambuf@DU?$char_traits@D@std@@@std@@QAEHXZ 0051b950 f i libcpmtd:locale.obj
 0001:0011a9b0       ?append@?$basic_string@DU?$char_traits@D@std@@V?$allocator@D@2@@std@@QAEAAV12@ABV12@II@Z 0051b9b0 f i libcpmtd:locale.obj
 0001:0011aa60       ?use_facet@std@@YAABV?$ctype@D@1@ABVlocale@1@PBV21@_N@Z 0051ba60 f i libcpmtd:locale.obj
 0001:0011ab80       ??0?$ctype@D@std@@QAE@PBF_NI@Z 0051bb80 f i libcpmtd:locale.obj
 0001:0011ac70       ?use_facet@std@@YAABV?$num_get@DV?$istreambuf_iterator@DU?$char_traits@D@std@@@std@@@1@ABVlocale@1@PBV21@_N@Z 0051bc70 f i libcpmtd:locale.obj
 0001:0011ad90       ?use_facet@std@@YAABV?$codecvt@DDH@1@ABVlocale@1@PBV21@_N@Z 0051bd90 f i libcpmtd:locale.obj
 0001:0011aeb0       ?_Getloctxt@std@@YAHAAV?$istreambuf_iterator@DU?$char_traits@D@std@@@1@0IPBD@Z 0051beb0 f i libcpmtd:locale.obj
 0001:0011b0e0       ??8std@@YA_NABV?$istreambuf_iterator@DU?$char_traits@D@std@@@0@0@Z 0051c0e0 f i libcpmtd:locale.obj
 0001:0011b100       ??9std@@YA_NABV?$istreambuf_iterator@DU?$char_traits@D@std@@@0@0@Z 0051c100 f i libcpmtd:locale.obj
 0001:0011b120       ?_Narrow@std@@YAHD@Z       0051c120 f i libcpmtd:locale.obj
 0001:0011b130       ?isdigit@std@@YA_NDABVlocale@1@@Z 0051c130 f i libcpmtd:locale.obj
 0001:0011b160       ?is@?$ctype@D@std@@QBE_NFD@Z 0051c160 f i libcpmtd:locale.obj
 0001:0011b190       ??0?$codecvt@DDH@std@@QAE@I@Z 0051c190 f i libcpmtd:locale.obj
 0001:0011b220       ??0?$num_get@DV?$istreambuf_iterator@DU?$char_traits@D@std@@@std@@@std@@QAE@I@Z 0051c220 f i libcpmtd:locale.obj
 0001:0011b2b0       ?equal@?$istreambuf_iterator@DU?$char_traits@D@std@@@std@@QBE_NABV12@@Z 0051c2b0 f i libcpmtd:locale.obj
 0001:0011b320       ?_Save@?$_Tidyfac@V?$ctype@D@std@@@std@@SAPAV?$ctype@D@2@PAV32@@Z 0051c320 f i libcpmtd:locale.obj
 0001:0011b390       ?_Save@?$_Tidyfac@V?$num_get@DV?$istreambuf_iterator@DU?$char_traits@D@std@@@std@@@std@@@std@@SAPAV?$num_get@DV?$istreambuf_iterator@DU?$char_traits@D@std@@@std@@@2@PAV32@@Z 0051c390 f i libcpmtd:locale.obj
 0001:0011b400       ?_Save@?$_Tidyfac@V?$codecvt@DDH@std@@@std@@SAPAV?$codecvt@DDH@2@PAV32@@Z 0051c400 f i libcpmtd:locale.obj
 0001:0011b470       ?_Tidy@?$_Tidyfac@V?$ctype@D@std@@@std@@SAXXZ 0051c470 f i libcpmtd:locale.obj
 0001:0011b500       ?_Tidy@?$_Tidyfac@V?$num_get@DV?$istreambuf_iterator@DU?$char_traits@D@std@@@std@@@std@@@std@@SAXXZ 0051c500 f i libcpmtd:locale.obj
 0001:0011b590       ?_Tidy@?$_Tidyfac@V?$codecvt@DDH@std@@@std@@SAXXZ 0051c590 f i libcpmtd:locale.obj
 0001:0011b680       __Mbrtowc                  0051c680 f   libcpmtd:xmbtowc.obj
 0001:0011b920       _btowc                     0051c920 f   libcpmtd:xmbtowc.obj
 0001:0011b980       _mbrlen                    0051c980 f   libcpmtd:xmbtowc.obj
 0001:0011ba20       _mbrtowc                   0051ca20 f   libcpmtd:xmbtowc.obj
 0001:0011bb00       _mbsrtowcs                 0051cb00 f   libcpmtd:xmbtowc.obj
 0001:0011bc90       ?_Nomemory@std@@YAXXZ      0051cc90 f   libcpmtd:nomemory.obj
 0001:0011bcf0       ??0bad_alloc@std@@QAE@PBD@Z 0051ccf0 f i libcpmtd:nomemory.obj
 0001:0011bd20       ??1bad_alloc@std@@UAE@XZ   0051cd20 f i libcpmtd:nomemory.obj
 0001:0011bd40       ?_Doraise@bad_alloc@std@@MBEXXZ 0051cd40 f i libcpmtd:nomemory.obj
 0001:0011bd70       ??_Ebad_alloc@std@@UAEPAXI@Z 0051cd70 f i libcpmtd:nomemory.obj
 0001:0011bd70       ??_Gbad_alloc@std@@UAEPAXI@Z 0051cd70 f i libcpmtd:nomemory.obj
 0001:0011bda0       ??0bad_alloc@std@@QAE@ABV01@@Z 0051cda0 f i libcpmtd:nomemory.obj
 0001:0011bde0       ?_Makewloc@_Locimp@locale@std@@CAXABV_Locinfo@3@HPAV123@PBV23@@Z 0051cde0 f   libcpmtd:wlocale.obj
 0001:0011c660       ??0?$codecvt@GDH@std@@QAE@ABV_Locinfo@1@I@Z 0051d660 f i libcpmtd:wlocale.obj
 0001:0011c6c0       ?_Getcat@?$codecvt@GDH@std@@SAIXZ 0051d6c0 f i libcpmtd:wlocale.obj
 0001:0011c6d0       ?_Init@?$codecvt@GDH@std@@IAEXABV_Locinfo@2@@Z 0051d6d0 f i libcpmtd:wlocale.obj
