 DNDC93

 Timestamp is 4896693b (Sun Aug 03 22:28:11 2008)

 Preferred load address is 00400000

 Start         Length     Name                   Class
 0001:00000000 00122af8H .text                   CODE
 0001:00122b00 00005ed3H .text$AFX_AUX           CODE
 0001:001289e0 0000b25bH .text$AFX_CMNCTL        CODE
 0001:00133c40 00006efbH .text$AFX_COL1          CODE
 0001:0013ab40 000045a2H .text$AFX_COL2          CODE
 0001:0013f0f0 00013b27H .text$AFX_CORE1         CODE
 0001:00152c20 0000d22bH .text$AFX_CORE2         CODE
 0001:0015fe50 000156caH .text$AFX_CORE3         CODE
 0001:00175520 0000effbH .text$AFX_CORE4         CODE
 0001:00184520 00004b49H .text$AFX_DBG1          CODE
 0001:00189070 0000cabbH .text$AFX_DBG2          CODE
 0001:00195b30 0000ac30H .text$AFX_INIT          CODE
 0001:001a0760 0000d8caH .text$AFX_OLE1          CODE
 0001:001ae030 00007a26H .text$AFX_OLE2          CODE
 0001:001b5a60 00006ae6H .text$AFX_OLE3          CODE
 0001:001bc550 0000b4cbH .text$AFX_OLE4          CODE
 0001:001c7a20 00003dc1H .text$AFX_OLE5          CODE
 0001:001cb7f0 0000248bH .text$AFX_PRNT          CODE
 0001:001cdc80 0000050dH .text$AFX_TERM          CODE
 0001:001ce190 00011ee3H .text$x                 CODE
 0002:00000000 000142f0H .rdata                  DATA
 0002:000142f0 000058ecH .rdata$r                DATA
 0002:00019be0 00016988H .xdata$x                DATA
 0002:00030568 00000000H .edata                  DATA
 0003:00000000 00000004H .CRT$XCA                DATA
 0003:00000004 00000008H .CRT$XCC                DATA
 0003:0000000c 00000020H .CRT$XCL                DATA
 0003:0000002c 00000138H .CRT$XCU                DATA
 0003:00000164 00000004H .CRT$XCZ                DATA
 0003:00000168 00000004H .CRT$XIA                DATA
 0003:0000016c 0000000cH .CRT$XIC                DATA
 0003:00000178 00000004H .CRT$XIY                DATA
 0003:0000017c 00000004H .CRT$XIZ                DATA
 0003:00000180 00000004H .CRT$XPA                DATA
 0003:00000184 00000008H .CRT$XPX                DATA
 0003:0000018c 00000004H .CRT$XPZ                DATA
 0003:00000190 00000004H .CRT$XTA                DATA
 0003:00000194 00000004H .CRT$XTB                DATA
 0003:00000198 00000004H .CRT$XTZ                DATA
 0003:000001a0 0002f83cH .data                   DATA
 0003:0002f9e0 00049488H .bss                    DATA
 0004:00000000 00000104H .idata$2                DATA
 0004:00000104 00000014H .idata$3                DATA
 0004:00000118 00000c64H .idata$4                DATA
 0004:00000d7c 00000c64H .idata$5                DATA
 0004:000019e0 00003280H .idata$6                DATA
 0005:00000000 00001cc0H .rsrc$01                DATA
 0005:00001cc0 0001e710H .rsrc$02                DATA

  Address         Publics by Value              Rva+Base     Lib:Object

 0001:00000000       ??0Asia@@QAE@PAVCWnd@@@Z   00401000 f   Asia.obj
 0001:00000073       ?DoDataExchange@Asia@@MAEXPAVCDataExchange@@@Z 00401073 f   Asia.obj
 0001:000000b2       ?GetMessageMap@Asia@@MBEPBUAFX_MSGMAP@@XZ 004010b2 f   Asia.obj
 0001:000000c9       ?OnSelchangeAsiaCountry@Asia@@IAEXXZ 004010c9 f   Asia.obj
 0001:000001e4       ?OnOK@Asia@@MAEXXZ         004011e4 f   Asia.obj
 0001:00000ee0       ??_EAsia@@UAEPAXI@Z        00401ee0 f i Asia.obj
 0001:00000ee0       ??_GAsia@@UAEPAXI@Z        00401ee0 f i Asia.obj
 0001:00000f20       ??1Asia@@UAE@XZ            00401f20 f i Asia.obj
 0001:00000f80       ??1ChinaProvince@@UAE@XZ   00401f80 f i Asia.obj
 0001:00000fe0       ??1IndiaState@@UAE@XZ      00401fe0 f i Asia.obj
 0001:00001040       ??0BatchRun@@QAE@PAVCWnd@@@Z 00402040 f   BatchRun.obj
 0001:000010b3       ?DoDataExchange@BatchRun@@MAEXPAVCDataExchange@@@Z 004020b3 f   BatchRun.obj
 0001:000010f2       ?GetMessageMap@BatchRun@@MBEPBUAFX_MSGMAP@@XZ 004020f2 f   BatchRun.obj
 0001:00001109       ?OnSelectFile@BatchRun@@IAEXXZ 00402109 f   BatchRun.obj
 0001:0000137c       ?OnOK@BatchRun@@MAEXXZ     0040237c f   BatchRun.obj
 0001:00001480       ??_GBatchRun@@UAEPAXI@Z    00402480 f i BatchRun.obj
 0001:00001480       ??_EBatchRun@@UAEPAXI@Z    00402480 f i BatchRun.obj
 0001:000014c0       ??1BatchRun@@UAE@XZ        004024c0 f i BatchRun.obj
 0001:00001520       ??1CFileDialog@@UAE@XZ     00402520 f i BatchRun.obj
 0001:00001580       ??1CCommonDialog@@UAE@XZ   00402580 f i BatchRun.obj
 0001:00001666       ??0ElkhornData@@QAE@W4ElkhornDataType@@V?$basic_string@DU?$char_traits@D@std@@V?$allocator@D@2@@std@@@Z 00402666 f   data_set.obj
 0001:00001716       ??0DataSet@@QAE@XZ         00402716 f   data_set.obj
 0001:00001aed       ??0ElkhornBinData@@QAE@HNN@Z 00402aed f   data_set.obj
 0001:00001b4c       ??4ElkhornBinData@@QAEAAV0@ABV0@@Z 00402b4c f   data_set.obj
 0001:00001bb5       ??6@YAAAV?$basic_ostream@DU?$char_traits@D@std@@@std@@AAV01@ABVElkhornBinData@@@Z 00402bb5 f   data_set.obj
 0001:00001ca6       ??6@YAAAV?$basic_ostream@DU?$char_traits@D@std@@@std@@AAV01@ABVElkhornData@@@Z 00402ca6 f   data_set.obj
 0001:00001d30       ??1ElkhornData@@QAE@XZ     00402d30 f i data_set.obj
 0001:00001da0       ??4ElkhornData@@QAEAAV0@ABV0@@Z 00402da0 f i data_set.obj
 0001:00001e00       ??0?$basic_string@DU?$char_traits@D@std@@V?$allocator@D@2@@std@@QAE@ABV?$allocator@D@1@@Z 00402e00 f i data_set.obj
 0001:00001e40       ??0?$basic_string@DU?$char_traits@D@std@@V?$allocator@D@2@@std@@QAE@PBDABV?$allocator@D@1@@Z 00402e40 f i data_set.obj
 0001:00001e90       ??1?$basic_string@DU?$char_traits@D@std@@V?$allocator@D@2@@std@@QAE@XZ 00402e90 f i data_set.obj
 0001:00001ec0       ??4?$basic_string@DU?$char_traits@D@std@@V?$allocator@D@2@@std@@QAEAAV01@ABV01@@Z 00402ec0 f i data_set.obj
 0001:00001ef0       ??6?$basic_ostream@DU?$char_traits@D@std@@@std@@QAEAAV01@H@Z 00402ef0 f i data_set.obj
 0001:000020e0       ??1locale@std@@QAE@XZ      004030e0 f i data_set.obj
 0001:00002150       ?_Decref@facet@locale@std@@QAEPAV123@XZ 00403150 f i data_set.obj
 0001:000021d0       ?flags@ios_base@std@@QBEHXZ 004031d0 f i data_set.obj
 0001:000021f0       ?getloc@ios_base@std@@QBE?AVlocale@2@XZ 004031f0 f i data_set.obj
 0001:00002240       ??0locale@std@@QAE@ABV01@@Z 00403240 f i data_set.obj
 0001:00002280       ?_Incref@facet@locale@std@@QAEXXZ 00403280 f i data_set.obj
 0001:000022d0       ??6?$basic_ostream@DU?$char_traits@D@std@@@std@@QAEAAV01@I@Z 004032d0 f i data_set.obj
 0001:00002480       ??6?$basic_ostream@DU?$char_traits@D@std@@@std@@QAEAAV01@N@Z 00403480 f i data_set.obj
 0001:00002630       ?setstate@?$basic_ios@DU?$char_traits@D@std@@@std@@QAEXH_N@Z 00403630 f i data_set.obj
 0001:00002670       ?rdstate@ios_base@std@@QBEHXZ 00403670 f i data_set.obj
 0001:00002690       ?rdbuf@?$basic_ios@DU?$char_traits@D@std@@@std@@QBEPAV?$basic_streambuf@DU?$char_traits@D@std@@@2@XZ 00403690 f i data_set.obj
 0001:000026b0       ??0?$vector@NV?$allocator@N@std@@@std@@QAE@ABV?$allocator@N@1@@Z 004036b0 f i data_set.obj
 0001:000026f0       ??1?$vector@NV?$allocator@N@std@@@std@@QAE@XZ 004036f0 f i data_set.obj
 0001:00002760       ??4?$vector@NV?$allocator@N@std@@@std@@QAEAAV01@ABV01@@Z 00403760 f i data_set.obj
 0001:00002910       ?size@?$vector@NV?$allocator@N@std@@@std@@QBEIXZ 00403910 f i data_set.obj
 0001:00002960       ??0?$vector@VElkhornBinData@@V?$allocator@VElkhornBinData@@@std@@@std@@QAE@ABV?$allocator@VElkhornBinData@@@1@@Z 00403960 f i data_set.obj
 0001:000029a0       ??1?$vector@VElkhornBinData@@V?$allocator@VElkhornBinData@@@std@@@std@@QAE@XZ 004039a0 f i data_set.obj
 0001:00002a20       ??4?$vector@VElkhornBinData@@V?$allocator@VElkhornBinData@@@std@@@std@@QAEAAV01@ABV01@@Z 00403a20 f i data_set.obj
 0001:00002be0       ??0?$vector@VElkhornData@@V?$allocator@VElkhornData@@@std@@@std@@QAE@ABV?$allocator@VElkhornData@@@1@@Z 00403be0 f i data_set.obj
 0001:00002c20       ??1?$vector@VElkhornData@@V?$allocator@VElkhornData@@@std@@@std@@QAE@XZ 00403c20 f i data_set.obj
 0001:00002ca0       ?resize@?$vector@VElkhornData@@V?$allocator@VElkhornData@@@std@@@std@@QAEXIABVElkhornData@@@Z 00403ca0 f i data_set.obj
 0001:00002d20       ??A?$vector@VElkhornData@@V?$allocator@VElkhornData@@@std@@@std@@QAEAAVElkhornData@@I@Z 00403d20 f i data_set.obj
 0001:00002d50       ?assign@?$basic_string@DU?$char_traits@D@std@@V?$allocator@D@2@@std@@QAEAAV12@ABV12@@Z 00403d50 f i data_set.obj
 0001:00002d90       ?assign@?$basic_string@DU?$char_traits@D@std@@V?$allocator@D@2@@std@@QAEAAV12@ABV12@II@Z 00403d90 f i data_set.obj
 0001:00002f10       ?copy@?$char_traits@D@std@@SAPADPADPBDI@Z 00403f10 f i data_set.obj
 0001:00002f30       ?c_str@?$basic_string@DU?$char_traits@D@std@@V?$allocator@D@2@@std@@QBEPBDXZ 00403f30 f i data_set.obj
 0001:00002f80       ?size@?$basic_string@DU?$char_traits@D@std@@V?$allocator@D@2@@std@@QBEIXZ 00403f80 f i data_set.obj
 0001:00002fa0       ?assign@?$basic_string@DU?$char_traits@D@std@@V?$allocator@D@2@@std@@QAEAAV12@PBD@Z 00403fa0 f i data_set.obj
 0001:00002fe0       ?length@?$char_traits@D@std@@SAIPBD@Z 00403fe0 f i data_set.obj
 0001:00003000       ?_Nullstr@?$basic_string@DU?$char_traits@D@std@@V?$allocator@D@2@@std@@CAPBDXZ 00404000 f i data_set.obj
 0001:00003010       ?_Tidy@?$basic_string@DU?$char_traits@D@std@@V?$allocator@D@2@@std@@AAEX_N@Z 00404010 f i data_set.obj
 0001:000030e0       ?clear@?$basic_ios@DU?$char_traits@D@std@@@std@@QAEXH_N@Z 004040e0 f i data_set.obj
 0001:00003140       ?fill@?$basic_ios@DU?$char_traits@D@std@@@std@@QBEDXZ 00404140 f i data_set.obj
 0001:00003160       ??0sentry@?$basic_ostream@DU?$char_traits@D@std@@@std@@QAE@AAV12@@Z 00404160 f i data_set.obj
 0001:000031a0       ??1sentry@?$basic_ostream@DU?$char_traits@D@std@@@std@@QAE@XZ 004041a0 f i data_set.obj
 0001:000031e0       ??Bsentry@?$basic_ostream@DU?$char_traits@D@std@@@std@@QBE_NXZ 004041e0 f i data_set.obj
 0001:00003200       ?capacity@?$vector@NV?$allocator@N@std@@@std@@QBEIXZ 00404200 f i data_set.obj
 0001:00003250       ?begin@?$vector@NV?$allocator@N@std@@@std@@QBEPBNXZ 00404250 f i data_set.obj
 0001:00003270       ?end@?$vector@NV?$allocator@N@std@@@std@@QBEPBNXZ 00404270 f i data_set.obj
 0001:00003290       ?_Destroy@?$vector@NV?$allocator@N@std@@@std@@IAEXPAN0@Z 00404290 f i data_set.obj
 0001:000032d0       ?_Ucopy@?$vector@NV?$allocator@N@std@@@std@@IAEPANPBN0PAN@Z 004042d0 f i data_set.obj
 0001:00003320       ?allocate@?$allocator@N@std@@QAEPANIPBX@Z 00404320 f i data_set.obj
 0001:00003350       ?deallocate@?$allocator@N@std@@QAEXPAXI@Z 00404350 f i data_set.obj
 0001:00003380       ?capacity@?$vector@VElkhornBinData@@V?$allocator@VElkhornBinData@@@std@@@std@@QBEIXZ 00404380 f i data_set.obj
 0001:000033d0       ?begin@?$vector@VElkhornBinData@@V?$allocator@VElkhornBinData@@@std@@@std@@QBEPBVElkhornBinData@@XZ 004043d0 f i data_set.obj
 0001:000033f0       ?end@?$vector@VElkhornBinData@@V?$allocator@VElkhornBinData@@@std@@@std@@QBEPBVElkhornBinData@@XZ 004043f0 f i data_set.obj
 0001:00003410       ?size@?$vector@VElkhornBinData@@V?$allocator@VElkhornBinData@@@std@@@std@@QBEIXZ 00404410 f i data_set.obj
 0001:00003460       ?_Destroy@?$vector@VElkhornBinData@@V?$allocator@VElkhornBinData@@@std@@@std@@IAEXPAVElkhornBinData@@0@Z 00404460 f i data_set.obj
 0001:000034a0       ?_Ucopy@?$vector@VElkhornBinData@@V?$allocator@VElkhornBinData@@@std@@@std@@IAEPAVElkhornBinData@@PBV3@0PAV3@@Z 004044a0 f i data_set.obj
 0001:000034f0       ?allocate@?$allocator@VElkhornBinData@@@std@@QAEPAVElkhornBinData@@IPBX@Z 004044f0 f i data_set.obj
 0001:00003520       ?deallocate@?$allocator@VElkhornBinData@@@std@@QAEXPAXI@Z 00404520 f i data_set.obj
 0001:00003550       ?begin@?$vector@VElkhornData@@V?$allocator@VElkhornData@@@std@@@std@@QAEPAVElkhornData@@XZ 00404550 f i data_set.obj
 0001:00003570       ?end@?$vector@VElkhornData@@V?$allocator@VElkhornData@@@std@@@std@@QAEPAVElkhornData@@XZ 00404570 f i data_set.obj
 0001:00003590       ?size@?$vector@VElkhornData@@V?$allocator@VElkhornData@@@std@@@std@@QBEIXZ 00404590 f i data_set.obj
 0001:000035e0       ?insert@?$vector@VElkhornData@@V?$allocator@VElkhornData@@@std@@@std@@QAEXPAVElkhornData@@IABV3@@Z 004045e0 f i data_set.obj
 0001:00003840       ?erase@?$vector@VElkhornData@@V?$allocator@VElkhornData@@@std@@@std@@QAEPAVElkhornData@@PAV3@0@Z 00404840 f i data_set.obj
 0001:000038b0       ?_Destroy@?$vector@VElkhornData@@V?$allocator@VElkhornData@@@std@@@std@@IAEXPAVElkhornData@@0@Z 004048b0 f i data_set.obj
 0001:000038f0       ?deallocate@?$allocator@VElkhornData@@@std@@QAEXPAXI@Z 004048f0 f i data_set.obj
 0001:00003920       ?put@?$num_put@DV?$ostreambuf_iterator@DU?$char_traits@D@std@@@std@@@std@@QBE?AV?$ostreambuf_iterator@DU?$char_traits@D@std@@@2@V32@AAVios_base@2@DJ@Z 00404920 f i data_set.obj
 0001:00003990       ?put@?$num_put@DV?$ostreambuf_iterator@DU?$char_traits@D@std@@@std@@@std@@QBE?AV?$ostreambuf_iterator@DU?$char_traits@D@std@@@2@V32@AAVios_base@2@DK@Z 00404990 f i data_set.obj
 0001:00003a00       ?put@?$num_put@DV?$ostreambuf_iterator@DU?$char_traits@D@std@@@std@@@std@@QBE?AV?$ostreambuf_iterator@DU?$char_traits@D@std@@@2@V32@AAVios_base@2@DN@Z 00404a00 f i data_set.obj
 0001:00003a70       ??0?$ostreambuf_iterator@DU?$char_traits@D@std@@@std@@QAE@PAV?$basic_streambuf@DU?$char_traits@D@std@@@1@@Z 00404a70 f i data_set.obj
 0001:00003aa0       ?failed@?$ostreambuf_iterator@DU?$char_traits@D@std@@@std@@QBE_NXZ 00404aa0 f i data_set.obj
 0001:00003ac0       ?assign@?$basic_string@DU?$char_traits@D@std@@V?$allocator@D@2@@std@@QAEAAV12@PBDI@Z 00404ac0 f i data_set.obj
 0001:00003b20       ?erase@?$basic_string@DU?$char_traits@D@std@@V?$allocator@D@2@@std@@QAEAAV12@II@Z 00404b20 f i data_set.obj
 0001:00003be0       ?move@?$char_traits@D@std@@SAPADPADPBDI@Z 00404be0 f i data_set.obj
 0001:00003c00       ?capacity@?$basic_string@DU?$char_traits@D@std@@V?$allocator@D@2@@std@@QBEIXZ 00404c00 f i data_set.obj
 0001:00003c20       ?_Eos@?$basic_string@DU?$char_traits@D@std@@V?$allocator@D@2@@std@@AAEXI@Z 00404c20 f i data_set.obj
 0001:00003c70       ?assign@?$char_traits@D@std@@SAXAADABD@Z 00404c70 f i data_set.obj
 0001:00003c80       ?_Grow@?$basic_string@DU?$char_traits@D@std@@V?$allocator@D@2@@std@@AAE_NI_N@Z 00404c80 f i data_set.obj
 0001:00003de0       ?_Refcnt@?$basic_string@DU?$char_traits@D@std@@V?$allocator@D@2@@std@@AAEAAEPBD@Z 00404de0 f i data_set.obj
 0001:00003e00       ?deallocate@?$allocator@D@std@@QAEXPAXI@Z 00404e00 f i data_set.obj
 0001:00003e30       ?opfx@?$basic_ostream@DU?$char_traits@D@std@@@std@@QAE_NXZ 00404e30 f i data_set.obj
 0001:00003eb0       ?good@ios_base@std@@QBE_NXZ 00404eb0 f i data_set.obj
 0001:00003ee0       ?flush@?$basic_ostream@DU?$char_traits@D@std@@@std@@QAEAAV12@XZ 00404ee0 f i data_set.obj
 0001:00003f70       ?fail@ios_base@std@@QBE_NXZ 00404f70 f i data_set.obj
 0001:00003fa0       ?pubsync@?$basic_streambuf@DU?$char_traits@D@std@@@std@@QAEHXZ 00404fa0 f i data_set.obj
 0001:00003fe0       ?osfx@?$basic_ostream@DU?$char_traits@D@std@@@std@@QAEXXZ 00404fe0 f i data_set.obj
 0001:00004020       ?tie@?$basic_ios@DU?$char_traits@D@std@@@std@@QBEPAV?$basic_ostream@DU?$char_traits@D@std@@@2@XZ 00405020 f i data_set.obj
 0001:00004040       ?construct@?$allocator@N@std@@QAEXPANABN@Z 00405040 f i data_set.obj
 0001:00004070       ?destroy@?$allocator@N@std@@QAEXPAN@Z 00405070 f i data_set.obj
 0001:000040a0       ?construct@?$allocator@VElkhornBinData@@@std@@QAEXPAVElkhornBinData@@ABV3@@Z 004050a0 f i data_set.obj
 0001:000040d0       ?destroy@?$allocator@VElkhornBinData@@@std@@QAEXPAVElkhornBinData@@@Z 004050d0 f i data_set.obj
 0001:00004100       ?_Ucopy@?$vector@VElkhornData@@V?$allocator@VElkhornData@@@std@@@std@@IAEPAVElkhornData@@PBV3@0PAV3@@Z 00405100 f i data_set.obj
 0001:00004150       ?_Ufill@?$vector@VElkhornData@@V?$allocator@VElkhornData@@@std@@@std@@IAEXPAVElkhornData@@IABV3@@Z 00405150 f i data_set.obj
 0001:000041a0       ?allocate@?$allocator@VElkhornData@@@std@@QAEPAVElkhornData@@IPBX@Z 004051a0 f i data_set.obj
 0001:000041d0       ?destroy@?$allocator@VElkhornData@@@std@@QAEXPAVElkhornData@@@Z 004051d0 f i data_set.obj
 0001:00004200       ?max_size@?$basic_string@DU?$char_traits@D@std@@V?$allocator@D@2@@std@@QBEIXZ 00405200 f i data_set.obj
 0001:00004260       ?_Copy@?$basic_string@DU?$char_traits@D@std@@V?$allocator@D@2@@std@@AAEXI@Z 00405260 f i data_set.obj
 0001:000043c0       ?_Split@?$basic_string@DU?$char_traits@D@std@@V?$allocator@D@2@@std@@AAEXXZ 004053c0 f i data_set.obj
 0001:00004440       ?construct@?$allocator@VElkhornData@@@std@@QAEXPAVElkhornData@@ABV3@@Z 00405440 f i data_set.obj
 0001:00004470       ?allocate@?$allocator@D@std@@QAEPADIPBX@Z 00405470 f i data_set.obj
 0001:000044a0       ?max_size@?$allocator@D@std@@QBEIXZ 004054a0 f i data_set.obj
 0001:000044f0       ??6std@@YAAAV?$basic_ostream@DU?$char_traits@D@std@@@0@AAV10@PBD@Z 004054f0 f i data_set.obj
 0001:000047c0       ?eq_int_type@?$char_traits@D@std@@SA_NABH0@Z 004057c0 f i data_set.obj
 0001:000047e0       ?eof@?$char_traits@D@std@@SAHXZ 004057e0 f i data_set.obj
 0001:000047f0       ?width@ios_base@std@@QBEHXZ 004057f0 f i data_set.obj
 0001:00004810       ?width@ios_base@std@@QAEHH@Z 00405810 f i data_set.obj
 0001:00004850       ?sputc@?$basic_streambuf@DU?$char_traits@D@std@@@std@@QAEHD@Z 00405850 f i data_set.obj
 0001:000048f0       ?to_int_type@?$char_traits@D@std@@SAHABD@Z 004058f0 f i data_set.obj
 0001:00004900       ?pptr@?$basic_streambuf@DU?$char_traits@D@std@@@std@@IBEPADXZ 00405900 f i data_set.obj
 0001:00004920       ?epptr@?$basic_streambuf@DU?$char_traits@D@std@@@std@@IBEPADXZ 00405920 f i data_set.obj
 0001:00004950       ?_Pninc@?$basic_streambuf@DU?$char_traits@D@std@@@std@@IAEPADXZ 00405950 f i data_set.obj
 0001:00004990       ?use_facet@std@@YAABV?$num_put@DV?$ostreambuf_iterator@DU?$char_traits@D@std@@@std@@@1@ABVlocale@1@PBV21@_N@Z 00405990 f i data_set.obj
 0001:00004ad0       ??0bad_cast@std@@QAE@PBD@Z 00405ad0 f i data_set.obj
 0001:00004b10       ??1bad_cast@std@@UAE@XZ    00405b10 f i data_set.obj
 0001:00004b40       ?_Doraise@bad_cast@std@@MBEXXZ 00405b40 f i data_set.obj
 0001:00004b90       ??_Gbad_cast@std@@UAEPAXI@Z 00405b90 f i data_set.obj
 0001:00004b90       ??_Ebad_cast@std@@UAEPAXI@Z 00405b90 f i data_set.obj
 0001:00004bd0       ??0bad_cast@std@@QAE@ABV01@@Z 00405bd0 f i data_set.obj
 0001:00004c10       ??Bid@locale@std@@QAEIXZ   00405c10 f i data_set.obj
 0001:00004c80       ?copy@std@@YAPANPBN0PAN@Z  00405c80 f i data_set.obj
 0001:00004cc0       ?copy@std@@YAPAVElkhornBinData@@PBV2@0PAV2@@Z 00405cc0 f i data_set.obj
 0001:00004d00       ??8std@@YA_NABV?$allocator@D@0@0@Z 00405d00 f i data_set.obj
 0001:00004d10       ?_Allocate@std@@YAPANHPAN@Z 00405d10 f i data_set.obj
 0001:00004d40       ?_Allocate@std@@YAPAVElkhornBinData@@HPAV2@@Z 00405d40 f i data_set.obj
 0001:00004d70       ?fill@std@@YAXPAVElkhornData@@0ABV2@@Z 00405d70 f i data_set.obj
 0001:00004da0       ?copy_backward@std@@YAPAVElkhornData@@PAV2@00@Z 00405da0 f i data_set.obj
 0001:00004de0       ?copy@std@@YAPAVElkhornData@@PAV2@00@Z 00405de0 f i data_set.obj
 0001:00004e20       ?_Construct@std@@YAXPANABN@Z 00405e20 f i data_set.obj
 0001:00004e80       ??2@YAPAXIPAX@Z            00405e80 f i data_set.obj
 0001:00004e90       ?_Destroy@std@@YAXPAN@Z    00405e90 f i data_set.obj
 0001:00004ea0       ?_Construct@std@@YAXPAVElkhornBinData@@ABV2@@Z 00405ea0 f i data_set.obj
 0001:00004f30       ??3@YAXPAX0@Z              00405f30 f i data_set.obj
 0001:00004f40       ?_Destroy@std@@YAXPAVElkhornBinData@@@Z 00405f40 f i data_set.obj
 0001:00004f60       ?_Allocate@std@@YAPAVElkhornData@@HPAV2@@Z 00405f60 f i data_set.obj
 0001:00004f90       ?_Destroy@std@@YAXPAVElkhornData@@@Z 00405f90 f i data_set.obj
 0001:00004fb0       ?_Construct@std@@YAXPAVElkhornData@@ABV2@@Z 00405fb0 f i data_set.obj
 0001:00005040       ?_Allocate@std@@YAPADHPAD@Z 00406040 f i data_set.obj
 0001:00005070       ??0ElkhornBinData@@QAE@ABV0@@Z 00406070 f i data_set.obj
 0001:000050e0       ??_GElkhornBinData@@QAEPAXI@Z 004060e0 f i data_set.obj
 0001:00005120       ??_GElkhornData@@QAEPAXI@Z 00406120 f i data_set.obj
 0001:00005160       ??0ElkhornData@@QAE@ABV0@@Z 00406160 f i data_set.obj
 0001:000051f0       ??0?$basic_string@DU?$char_traits@D@std@@V?$allocator@D@2@@std@@QAE@ABV01@@Z 004061f0 f i data_set.obj
 0001:00005240       ??1ElkhornBinData@@QAE@XZ  00406240 f i data_set.obj
 0001:00005270       ?sputn@?$basic_streambuf@DU?$char_traits@D@std@@@std@@QAEHPBDH@Z 00406270 f i data_set.obj
 0001:000052b0       ??0?$vector@NV?$allocator@N@std@@@std@@QAE@ABV01@@Z 004062b0 f i data_set.obj
 0001:00005330       ??0?$vector@VElkhornBinData@@V?$allocator@VElkhornBinData@@@std@@@std@@QAE@ABV01@@Z 00406330 f i data_set.obj
 0001:000053b0       ??0?$num_put@DV?$ostreambuf_iterator@DU?$char_traits@D@std@@@std@@@std@@QAE@I@Z 004063b0 f i data_set.obj
 0001:00005460       ??1facet@locale@std@@UAE@XZ 00406460 f i data_set.obj
 0001:00005480       ??0facet@locale@std@@IAE@I@Z 00406480 f i data_set.obj
 0001:000054b0       ??_Gfacet@locale@std@@UAEPAXI@Z 004064b0 f i data_set.obj
 0001:000054b0       ??_Efacet@locale@std@@UAEPAXI@Z 004064b0 f i data_set.obj
 0001:000054f0       ?do_put@?$num_put@DV?$ostreambuf_iterator@DU?$char_traits@D@std@@@std@@@std@@MBE?AV?$ostreambuf_iterator@DU?$char_traits@D@std@@@2@V32@AAVios_base@2@D_N@Z 004064f0 f i data_set.obj
 0001:00005750       ?do_put@?$num_put@DV?$ostreambuf_iterator@DU?$char_traits@D@std@@@std@@@std@@MBE?AV?$ostreambuf_iterator@DU?$char_traits@D@std@@@2@V32@AAVios_base@2@DJ@Z 00406750 f i data_set.obj
 0001:000057e0       ?do_put@?$num_put@DV?$ostreambuf_iterator@DU?$char_traits@D@std@@@std@@@std@@MBE?AV?$ostreambuf_iterator@DU?$char_traits@D@std@@@2@V32@AAVios_base@2@DK@Z 004067e0 f i data_set.obj
 0001:00005870       ?do_put@?$num_put@DV?$ostreambuf_iterator@DU?$char_traits@D@std@@@std@@@std@@MBE?AV?$ostreambuf_iterator@DU?$char_traits@D@std@@@2@V32@AAVios_base@2@DN@Z 00406870 f i data_set.obj
 0001:00005960       ?precision@ios_base@std@@QBEHXZ 00406960 f i data_set.obj
 0001:00005980       ?do_put@?$num_put@DV?$ostreambuf_iterator@DU?$char_traits@D@std@@@std@@@std@@MBE?AV?$ostreambuf_iterator@DU?$char_traits@D@std@@@2@V32@AAVios_base@2@DO@Z 00406980 f i data_set.obj
 0001:00005a70       ?do_put@?$num_put@DV?$ostreambuf_iterator@DU?$char_traits@D@std@@@std@@@std@@MBE?AV?$ostreambuf_iterator@DU?$char_traits@D@std@@@2@V32@AAVios_base@2@DPBX@Z 00406a70 f i data_set.obj
 0001:00005ba0       ??_E?$num_put@DV?$ostreambuf_iterator@DU?$char_traits@D@std@@@std@@@std@@UAEPAXI@Z 00406ba0 f i data_set.obj
 0001:00005ba0       ??_G?$num_put@DV?$ostreambuf_iterator@DU?$char_traits@D@std@@@std@@@std@@UAEPAXI@Z 00406ba0 f i data_set.obj
 0001:00005be0       ??1?$num_put@DV?$ostreambuf_iterator@DU?$char_traits@D@std@@@std@@@std@@UAE@XZ 00406be0 f i data_set.obj
 0001:00005c10       ?append@?$basic_string@DU?$char_traits@D@std@@V?$allocator@D@2@@std@@QAEAAV12@ID@Z 00406c10 f i data_set.obj
 0001:00005cb0       ?assign@?$char_traits@D@std@@SAPADPADIABD@Z 00406cb0 f i data_set.obj
 0001:00005ce0       ?_Ffmt@?$num_put@DV?$ostreambuf_iterator@DU?$char_traits@D@std@@@std@@@std@@KAPADPADDH@Z 00406ce0 f i data_set.obj
 0001:00005dd0       ?_Fput@?$num_put@DV?$ostreambuf_iterator@DU?$char_traits@D@std@@@std@@@std@@KA?AV?$ostreambuf_iterator@DU?$char_traits@D@std@@@2@V32@AAVios_base@2@DPBDII@Z 00406dd0 f i data_set.obj
 0001:000061a0       ?_Ifmt@?$num_put@DV?$ostreambuf_iterator@DU?$char_traits@D@std@@@std@@@std@@KAPADPADDH@Z 004071a0 f i data_set.obj
 0001:00006280       ?_Iput@?$num_put@DV?$ostreambuf_iterator@DU?$char_traits@D@std@@@std@@@std@@KA?AV?$ostreambuf_iterator@DU?$char_traits@D@std@@@2@V32@AAVios_base@2@DPADI@Z 00407280 f i data_set.obj
 0001:00006680       ?_Put@?$num_put@DV?$ostreambuf_iterator@DU?$char_traits@D@std@@@std@@@std@@KA?AV?$ostreambuf_iterator@DU?$char_traits@D@std@@@2@V32@PBDI@Z 00407680 f i data_set.obj
 0001:000066e0       ?_Putc@?$num_put@DV?$ostreambuf_iterator@DU?$char_traits@D@std@@@std@@@std@@KA?AV?$ostreambuf_iterator@DU?$char_traits@D@std@@@2@V32@PBDI@Z 004076e0 f i data_set.obj
 0001:00006750       ?_Rep@?$num_put@DV?$ostreambuf_iterator@DU?$char_traits@D@std@@@std@@@std@@KA?AV?$ostreambuf_iterator@DU?$char_traits@D@std@@@2@V32@DI@Z 00407750 f i data_set.obj
 0001:000067a0       ?falsename@?$numpunct@D@std@@QBE?AV?$basic_string@DU?$char_traits@D@std@@V?$allocator@D@2@@2@XZ 004077a0 f i data_set.obj
 0001:00006800       ?truename@?$numpunct@D@std@@QBE?AV?$basic_string@DU?$char_traits@D@std@@V?$allocator@D@2@@2@XZ 00407800 f i data_set.obj
 0001:00006860       ??4?$ostreambuf_iterator@DU?$char_traits@D@std@@@std@@QAEAAV01@D@Z 00407860 f i data_set.obj
 0001:000068e0       ??D?$ostreambuf_iterator@DU?$char_traits@D@std@@@std@@QAEAAV01@XZ 004078e0 f i data_set.obj
 0001:00006900       ??E?$ostreambuf_iterator@DU?$char_traits@D@std@@@std@@QAEAAV01@XZ 00407900 f i data_set.obj
 0001:00006920       ?decimal_point@?$numpunct@D@std@@QBEDXZ 00407920 f i data_set.obj
 0001:00006960       ?thousands_sep@?$numpunct@D@std@@QBEDXZ 00407960 f i data_set.obj
 0001:000069a0       ?grouping@?$numpunct@D@std@@QBE?AV?$basic_string@DU?$char_traits@D@std@@V?$allocator@D@2@@2@XZ 004079a0 f i data_set.obj
 0001:00006a00       ?use_facet@std@@YAABV?$numpunct@D@1@ABVlocale@1@PBV21@_N@Z 00407a00 f i data_set.obj
 0001:00006b40       ?_Widen@std@@YADDPAD@Z     00407b40 f i data_set.obj
 0001:00006b50       ??0?$numpunct@D@std@@QAE@I@Z 00407b50 f i data_set.obj
 0001:00006c00       ?do_decimal_point@?$numpunct@D@std@@MBEDXZ 00407c00 f i data_set.obj
 0001:00006c20       ?do_thousands_sep@?$numpunct@D@std@@MBEDXZ 00407c20 f i data_set.obj
 0001:00006c40       ?do_grouping@?$numpunct@D@std@@MBE?AV?$basic_string@DU?$char_traits@D@std@@V?$allocator@D@2@@2@XZ 00407c40 f i data_set.obj
 0001:00006ca0       ?do_falsename@?$numpunct@D@std@@MBE?AV?$basic_string@DU?$char_traits@D@std@@V?$allocator@D@2@@2@XZ 00407ca0 f i data_set.obj
 0001:00006d00       ?do_truename@?$numpunct@D@std@@MBE?AV?$basic_string@DU?$char_traits@D@std@@V?$allocator@D@2@@2@XZ 00407d00 f i data_set.obj
 0001:00006d60       ??_E?$numpunct@D@std@@UAEPAXI@Z 00407d60 f i data_set.obj
 0001:00006d60       ??_G?$numpunct@D@std@@UAEPAXI@Z 00407d60 f i data_set.obj
 0001:00006da0       ??1?$numpunct@D@std@@UAE@XZ 00407da0 f i data_set.obj
 0001:00006e20       ?_Save@?$_Tidyfac@V?$num_put@DV?$ostreambuf_iterator@DU?$char_traits@D@std@@@std@@@std@@@std@@SAPAV?$num_put@DV?$ostreambuf_iterator@DU?$char_traits@D@std@@@std@@@2@PAV32@@Z 00407e20 f i data_set.obj
 0001:00006eb0       ?_Save@?$_Tidyfac@V?$numpunct@D@std@@@std@@SAPAV?$numpunct@D@2@PAV32@@Z 00407eb0 f i data_set.obj
 0001:00006f40       ?_Init@?$num_put@DV?$ostreambuf_iterator@DU?$char_traits@D@std@@@std@@@std@@IAEXABV_Locinfo@2@@Z 00407f40 f i data_set.obj
 0001:00006f60       ?_Init@?$numpunct@D@std@@IAEXABV_Locinfo@2@@Z 00407f60 f i data_set.obj
 0001:00007010       ?_Getlconv@_Locinfo@std@@QBEPBUlconv@@XZ 00408010 f i data_set.obj
 0001:00007040       ?_Getfalse@_Locinfo@std@@QBEPBDXZ 00408040 f i data_set.obj
 0001:00007060       ?_Gettrue@_Locinfo@std@@QBEPBDXZ 00408060 f i data_set.obj
 0001:00007080       ?_Tidy@?$_Tidyfac@V?$num_put@DV?$ostreambuf_iterator@DU?$char_traits@D@std@@@std@@@std@@@std@@SAXXZ 00408080 f i data_set.obj
 0001:00007130       ?_Tidy@?$_Tidyfac@V?$numpunct@D@std@@@std@@SAXXZ 00408130 f i data_set.obj
 0001:000071e0       ?_Maklocstr@std@@YAPADPBDPAD@Z 004081e0 f i data_set.obj
 0001:00007270       ?id@?$ctype@G@std@@$D      00408270 f i data_set.obj
 0001:000072a0       ?id@?$num_put@DV?$ostreambuf_iterator@DU?$char_traits@D@std@@@$D 004082a0 f i data_set.obj
 0001:000072d0       ?id@?$numpunct@D@std@@$D   004082d0 f i data_set.obj
 0001:00007300       ?id@?$numpunct@D@std@@$E   00408300 f i data_set.obj
 0001:00007310       ?id@?$num_put@DV?$ostreambuf_iterator@DU?$char_traits@D@std@@@$E 00408310 f i data_set.obj
 0001:00007320       ?id@?$ctype@G@std@@$E      00408320 f i data_set.obj
 0001:00007330       ?GetMessageMap@graphexApp@@MBEPBUAFX_MSGMAP@@XZ 00408330 f   dndc71.obj
 0001:00007347       ??0graphexApp@@QAE@XZ      00408347 f   dndc71.obj
 0001:00007645       ?InitInstance@graphexApp@@UAEHXZ 00408645 f   dndc71.obj
 0001:00007793       ??0CAboutDlg@@QAE@XZ       00408793 f   dndc71.obj
 0001:000077c7       ?DoDataExchange@CAboutDlg@@MAEXPAVCDataExchange@@@Z 004087c7 f   dndc71.obj
 0001:000077f1       ?GetMessageMap@CAboutDlg@@MBEPBUAFX_MSGMAP@@XZ 004087f1 f   dndc71.obj
 0001:00007808       ?OnAppAbout@graphexApp@@QAEXXZ 00408808 f   dndc71.obj
 0001:00007877       ?OnLButtonDown@CAboutDlg@@IAEXIVCPoint@@@Z 00408877 f   dndc71.obj
 0001:000078c0       ??_GgraphexApp@@UAEPAXI@Z  004088c0 f i dndc71.obj
 0001:000078c0       ??_EgraphexApp@@UAEPAXI@Z  004088c0 f i dndc71.obj
 0001:00007900       ??1graphexApp@@UAE@XZ      00408900 f i dndc71.obj
 0001:00007930       ??_GCAboutDlg@@UAEPAXI@Z   00408930 f i dndc71.obj
 0001:00007930       ??_ECAboutDlg@@UAEPAXI@Z   00408930 f i dndc71.obj
 0001:00007970       ??1CAboutDlg@@UAE@XZ       00408970 f i dndc71.obj
 0001:000079a0       ?JulianDay@@YAHHH@Z        004089a0 f   dndc_climate.obj
 0001:00007a6f       ?day_par@@YAMHMPAM@Z       00408a6f f   dndc_climate.obj
 0001:00007e70       ?SaveDatatoFile@@YAXPADH@Z 00408e70 f   dndc_InputFile.obj
 0001:0000a180       ?map_county@dndc74@@QAEXPAVCGraphexDoc@@PAD1JHHHH@Z 0040b180 f   dndc_map.obj
 0001:0000a749       ?map_scale@dndc74@@QAEXHHHPAM00@Z 0040b749 f   dndc_map.obj
 0001:0000b41b       ?map_state@dndc74@@QAEXPAVCGraphexDoc@@PAD1HHHH@Z 0040c41b f   dndc_map.obj
 0001:0000b5ec       ?MappingCountry@dndc74@@QAEXPAVCGraphexDoc@@PAD1HHH@Z 0040c5ec f   dndc_map.obj
 0001:0000bc40       ??_H@YGXPAXIHP6EX0@Z@Z     0040cc40 f i dndc_map.obj
 0001:0000bc80       ??0DNDC_Map@@QAE@PAVCWnd@@@Z 0040cc80 f   DNDC_Map1.obj
 0001:0000bd05       ?DoDataExchange@DNDC_Map@@MAEXPAVCDataExchange@@@Z 0040cd05 f   DNDC_Map1.obj
 0001:0000bd5b       ?GetMessageMap@DNDC_Map@@MBEPBUAFX_MSGMAP@@XZ 0040cd5b f   DNDC_Map1.obj
 0001:0000bd72       ?OnSelectDNDCFile@DNDC_Map@@IAEXXZ 0040cd72 f   DNDC_Map1.obj
 0001:0000bf8f       ?OnOK@DNDC_Map@@MAEXXZ     0040cf8f f   DNDC_Map1.obj
 0001:0000c5ec       ?OnDblclkDndcFileList@DNDC_Map@@IAEXXZ 0040d5ec f   DNDC_Map1.obj
 0001:0000c690       ??_EDNDC_Map@@UAEPAXI@Z    0040d690 f i DNDC_Map1.obj
 0001:0000c690       ??_GDNDC_Map@@UAEPAXI@Z    0040d690 f i DNDC_Map1.obj
 0001:0000c6d0       ??1DNDC_Map@@UAE@XZ        0040d6d0 f i DNDC_Map1.obj
 0001:0000c740       ?dndc_region@dndc74@@QAEXPAVCGraphexDoc@@@Z 0040d740 f   dndc_region.obj
 0001:0000cf62       ?ES_region@dndc74@@QAEXPAVCGraphexDoc@@@Z 0040df62 f   dndc_region.obj
 0001:0000d959       ?PaintGrid@dndc74@@QAEXPADPAVCGraphexDoc@@H@Z 0040e959 f   dndc_region.obj
 0001:0000dff2       ?Record_summary@dndc74@@QAEXXZ 0040eff2 f   dndc_region.obj
 0001:0000fdd3       ??0dndc74@@QAE@XZ          00410dd3 f   dndc_site.obj
 0001:00010025       ??1dndc74@@QAE@XZ          00411025 f   dndc_site.obj
 0001:0001005b       ?dndc_site@dndc74@@QAEXPAVCGraphexDoc@@@Z 0041105b f   dndc_site.obj
 0001:00010170       ?sopen@@YAPAU_iobuf@@PAD0@Z 00411170 f   dndc_tool.obj
 0001:0001023a       ?sopen@@YAPAU_iobuf@@PADH@Z 0041123a f   dndc_tool.obj
 0001:00010350       ?read_scale@CGraphexView@@QAEXH@Z 00411350 f   dndc_uncertainty.obj
 0001:000103eb       ?draw_county1@CGraphexView@@QAEXPAVCGraphexDoc@@H@Z 004113eb f   dndc_uncertainty.obj
 0001:000107f9       ?draw_states@CGraphexView@@QAEXPAVCGraphexDoc@@@Z 004117f9 f   dndc_uncertainty.obj
 0001:00010ad7       ?draw_a_state@CGraphexView@@QAEXPAVCGraphexDoc@@H@Z 00411ad7 f   dndc_uncertainty.obj
 0001:00010fb6       ?Find_Grid@CGraphexView@@QAEXHHHH@Z 00411fb6 f   dndc_uncertainty.obj
 0001:0001144a       ?draw_a_county@CGraphexView@@QAEXPAVCGraphexDoc@@H@Z 0041244a f   dndc_uncertainty.obj
 0001:00011a50       ?County_data@CGraphexView@@QAEXHH@Z 00412a50 f   dndc_wizard.obj
 0001:00011ff1       ?DrawCbalance@CGraphexView@@QAEXPAVCGraphexDoc@@@Z 00412ff1 f   dndc_wizard.obj
 0001:00012c55       ?DrawNbalance@CGraphexView@@QAEXPAVCGraphexDoc@@@Z 00413c55 f   dndc_wizard.obj
 0001:00014111       ?GWP@CGraphexView@@QAEXPAVCGraphexDoc@@@Z 00415111 f   dndc_wizard.obj
 0001:00014af8       ?RunWizardMonteCarlo@CGraphexView@@QAEXH@Z 00415af8 f   dndc_wizard.obj
 0001:00015262       ?WizardRandomGenerator@@YAHH@Z 00416262 f   dndc_wizard.obj
 0001:000152b5       ?draw_LandUse@CGraphexView@@QAEXPAVCGraphexDoc@@HH@Z 004162b5 f   dndc_wizard.obj
 0001:00015c92       ?landuse_color@@YAXMPAH00@Z 00416c92 f   dndc_wizard.obj
 0001:00015d7b       ?find_ha@@YAMJH@Z          00416d7b f   dndc_wizard.obj
 0001:000161d0       ??0Europe@@QAE@PAVCWnd@@@Z 004171d0 f   Europe.obj
 0001:00016243       ?DoDataExchange@Europe@@MAEXPAVCDataExchange@@@Z 00417243 f   Europe.obj
 0001:00016282       ?GetMessageMap@Europe@@MBEPBUAFX_MSGMAP@@XZ 00417282 f   Europe.obj
 0001:00016299       ?OnSelchangeEuropeCountry@Europe@@IAEXXZ 00417299 f   Europe.obj
 0001:000162d0       ?OnOK@Europe@@MAEXXZ       004172d0 f   Europe.obj
 0001:00016570       ??_GEurope@@UAEPAXI@Z      00417570 f i Europe.obj
 0001:00016570       ??_EEurope@@UAEPAXI@Z      00417570 f i Europe.obj
 0001:000165b0       ??1Europe@@UAE@XZ          004175b0 f i Europe.obj
 0001:00016610       ??0ExtractData@@QAE@PAVCWnd@@@Z 00417610 f   ExtractData.obj
 0001:000166aa       ?DoDataExchange@ExtractData@@MAEXPAVCDataExchange@@@Z 004176aa f   ExtractData.obj
 0001:00016730       ?GetMessageMap@ExtractData@@MBEPBUAFX_MSGMAP@@XZ 00417730 f   ExtractData.obj
 0001:00016747       ?OnSelectFile@ExtractData@@IAEXXZ 00417747 f   ExtractData.obj
 0001:00016be4       ?OnOK@ExtractData@@MAEXXZ  00417be4 f   ExtractData.obj
 0001:000177a2       ?ReadWrite2@@YAXPADVCString@@11HPAU_iobuf@@H@Z 004187a2 f   ExtractData.obj
 0001:00017ac2       ?Glean_Stringk@@YAXPADHH0@Z 00418ac2 f   ExtractData.obj
 0001:00017b5d       ?ReadWrite@ExtractData@@QAEXXZ 00418b5d f   ExtractData.obj
 0001:00018220       ??_GExtractData@@UAEPAXI@Z 00419220 f i ExtractData.obj
 0001:00018220       ??_EExtractData@@UAEPAXI@Z 00419220 f i ExtractData.obj
 0001:00018260       ??1ExtractData@@UAE@XZ     00419260 f i ExtractData.obj
 0001:000182c0       ??0GasFlux@@QAE@PAVCWnd@@@Z 004192c0 f   GasFlux.obj
 0001:00018376       ?DoDataExchange@GasFlux@@MAEXPAVCDataExchange@@@Z 00419376 f   GasFlux.obj
 0001:000183fc       ?GetMessageMap@GasFlux@@MBEPBUAFX_MSGMAP@@XZ 004193fc f   GasFlux.obj
 0001:00018413       ?OnOK@GasFlux@@MAEXXZ      00419413 f   GasFlux.obj
 0001:00018568       ?draw_flux@GasFlux@@QAEXPAVCGraphexDoc@@HHHHPAD@Z 00419568 f   GasFlux.obj
 0001:000191b5       ?flux_color@@YAXMPAH00@Z   0041a1b5 f   GasFlux.obj
 0001:0001932b       ?read_scale@@YAXH@Z        0041a32b f   GasFlux.obj
 0001:000193a0       ?find_flux@@YAMHHHHPADPAM1@Z 0041a3a0 f   GasFlux.obj
 0001:00019f41       ?OnSelectDataset@GasFlux@@IAEXXZ 0041af41 f   GasFlux.obj
 0001:0001a180       ??_EGasFlux@@UAEPAXI@Z     0041b180 f i GasFlux.obj
 0001:0001a180       ??_GGasFlux@@UAEPAXI@Z     0041b180 f i GasFlux.obj
 0001:0001a1c0       ??1GasFlux@@UAE@XZ         0041b1c0 f i GasFlux.obj
 0001:0001a230       ??0GlobeData@@QAE@PAVCWnd@@@Z 0041b230 f   GlobeData.obj
 0001:0001a2b8       ?DoDataExchange@GlobeData@@MAEXPAVCDataExchange@@@Z 0041b2b8 f   GlobeData.obj
 0001:0001a311       ?GetMessageMap@GlobeData@@MBEPBUAFX_MSGMAP@@XZ 0041b311 f   GlobeData.obj
 0001:0001a328       ?OnDataFile@GlobeData@@IAEXXZ 0041b328 f   GlobeData.obj
 0001:0001a7a1       ?OnDataCalculate@GlobeData@@IAEXXZ 0041b7a1 f   GlobeData.obj
 0001:0001aa45       ?N2O_flux@GlobeData@@QAEMMMMMMMMMM@Z 0041ba45 f   GlobeData.obj
 0001:0001ac31       ?Glean_StringW@@YAXPADHH0@Z 0041bc31 f   GlobeData.obj
 0001:0001accc       ?OnSelchangeContinent@GlobeData@@IAEXXZ 0041bccc f   GlobeData.obj
 0001:0001acfe       ?OnOK@GlobeData@@MAEXXZ    0041bcfe f   GlobeData.obj
 0001:0001bf0c       ?FileCopyX@@YAHPAD0@Z      0041cf0c f   GlobeData.obj
 0001:0001c0c0       ??_EGlobeData@@UAEPAXI@Z   0041d0c0 f i GlobeData.obj
 0001:0001c0c0       ??_GGlobeData@@UAEPAXI@Z   0041d0c0 f i GlobeData.obj
 0001:0001c100       ??1GlobeData@@UAE@XZ       0041d100 f i GlobeData.obj
 0001:0001c243       ??0GlobeMap@@QAE@PAVCWnd@@@Z 0041d243 f   GlobeMap.obj
 0001:0001c301       ?DoDataExchange@GlobeMap@@MAEXPAVCDataExchange@@@Z 0041d301 f   GlobeMap.obj
 0001:0001c3b6       ?GetMessageMap@GlobeMap@@MBEPBUAFX_MSGMAP@@XZ 0041d3b6 f   GlobeMap.obj
 0001:0001c3cd       ?WorldMapping@GlobeMap@@QAEXHHH@Z 0041d3cd f   GlobeMap.obj
 0001:0001d102       ?CountryColor@@YAXHPAH00@Z 0041e102 f   GlobeMap.obj
 0001:0001d47b       ?CropColor@@YAXHMPAH00@Z   0041e47b f   GlobeMap.obj
 0001:0001d5f2       ?SoilColor@@YAXHMPAH00@Z   0041e5f2 f   GlobeMap.obj
 0001:0001d7de       ?Color1@@YAXMPAH00H@Z      0041e7de f   GlobeMap.obj
 0001:0001d9f7       ?CheckLimit@@YAXPAH00@Z    0041e9f7 f   GlobeMap.obj
 0001:0001da6b       ?RandomGeneratorA@@YAHH@Z  0041ea6b f   GlobeMap.obj
 0001:0001dabe       ?SoilConvert@@YAXMMMM@Z    0041eabe f   GlobeMap.obj
 0001:0001dd29       ?OnSelMapFile@GlobeMap@@IAEXXZ 0041ed29 f   GlobeMap.obj
 0001:0001df3a       ?DrawMap@GlobeMap@@QAEXXZ  0041ef3a f   GlobeMap.obj
 0001:0001e453       ?OnDblclkMapFileList@GlobeMap@@IAEXXZ 0041f453 f   GlobeMap.obj
 0001:0001e502       ?ConvertGlobalClimateToCountry@@YAXHVCString@@@Z 0041f502 f   GlobeMap.obj
 0001:0001e73b       ?CalculateSoilDensity@@YAMMM@Z 0041f73b f   GlobeMap.obj
 0001:0001e7d1       ?OnRadio1@GlobeMap@@IAEXXZ 0041f7d1 f   GlobeMap.obj
 0001:0001e7fb       ?OnRadio2@GlobeMap@@IAEXXZ 0041f7fb f   GlobeMap.obj
 0001:0001e825       ?OnRadio3@GlobeMap@@IAEXXZ 0041f825 f   GlobeMap.obj
 0001:0001e84f       ?OnRadio4@GlobeMap@@IAEXXZ 0041f84f f   GlobeMap.obj
 0001:0001e879       ?OnRadio5@GlobeMap@@IAEXXZ 0041f879 f   GlobeMap.obj
 0001:0001e8a3       ?OnRadio6@GlobeMap@@IAEXXZ 0041f8a3 f   GlobeMap.obj
 0001:0001e8cd       ?OnRadio7@GlobeMap@@IAEXXZ 0041f8cd f   GlobeMap.obj
 0001:0001e8f7       ?OnSelchangeItem@GlobeMap@@IAEXXZ 0041f8f7 f   GlobeMap.obj
 0001:0001e954       ?OnSelchangeSelectSoil@GlobeMap@@IAEXXZ 0041f954 f   GlobeMap.obj
 0001:0001e9b0       ??_GGlobeMap@@UAEPAXI@Z    0041f9b0 f i GlobeMap.obj
 0001:0001e9b0       ??_EGlobeMap@@UAEPAXI@Z    0041f9b0 f i GlobeMap.obj
 0001:0001e9f0       ??1GlobeMap@@UAE@XZ        0041f9f0 f i GlobeMap.obj
 0001:0001ea70       ?CreateObject@CGraphexDoc@@SGPAVCObject@@XZ 0041fa70 f   graphexDoc.obj
 0001:0001eafd       ?GetRuntimeClass@CGraphexDoc@@UBEPAUCRuntimeClass@@XZ 0041fafd f   graphexDoc.obj
 0001:0001eb14       ?GetMessageMap@CGraphexDoc@@MBEPBUAFX_MSGMAP@@XZ 0041fb14 f   graphexDoc.obj
 0001:0001eb2b       ??0CGraphexDoc@@IAE@XZ     0041fb2b f   graphexDoc.obj
 0001:0001ecbe       ??1CGraphexDoc@@UAE@XZ     0041fcbe f   graphexDoc.obj
 0001:0001ee0d       ?OnNewDocument@CGraphexDoc@@UAEHXZ 0041fe0d f   graphexDoc.obj
 0001:0001f9c6       ?Serialize@CGraphexDoc@@UAEXAAVCArchive@@@Z 004209c6 f   graphexDoc.obj
 0001:0001f9ec       ?DeleteContents@CGraphexDoc@@UAEXXZ 004209ec f   graphexDoc.obj
 0001:0001fa10       ?ClearAct@CGraphexDoc@@QAEHXZ 00420a10 f   graphexDoc.obj
 0001:0001fab7       ?AssertValid@CGraphexDoc@@UBEXXZ 00420ab7 f   graphexDoc.obj
 0001:0001fadb       ?Dump@CGraphexDoc@@UBEXAAVCDumpContext@@@Z 00420adb f   graphexDoc.obj
 0001:0001fb05       ?OnEditUndo@CGraphexDoc@@IAEXXZ 00420b05 f   graphexDoc.obj
 0001:0001fba5       ?OnUpdateEditUndo@CGraphexDoc@@IAEXPAVCCmdUI@@@Z 00420ba5 f   graphexDoc.obj
 0001:0001fbe4       ?IfStop@CGraphexDoc@@QAEXXZ 00420be4 f   graphexDoc.obj
 0001:0001fc9b       ?SaveModified@CGraphexDoc@@MAEHXZ 00420c9b f   graphexDoc.obj
 0001:0001fcc0       ?Pause@CGraphexDoc@@QAEHXZ 00420cc0 f   graphexDoc.obj
 0001:0001fd4a       ?DoOneTime@CGraphexDoc@@QAEHXZ 00420d4a f   graphexDoc.obj
 0001:0001fd90       ??_ECGraphexDoc@@UAEPAXI@Z 00420d90 f i graphexDoc.obj
 0001:0001fd90       ??_GCGraphexDoc@@UAEPAXI@Z 00420d90 f i graphexDoc.obj
 0001:0001ffa1       ?CreateObject@CGraphexView@@SGPAVCObject@@XZ 00420fa1 f   graphexView.obj
 0001:00020031       ?GetRuntimeClass@CGraphexView@@UBEPAUCRuntimeClass@@XZ 00421031 f   graphexView.obj
 0001:00020048       ?GetMessageMap@CGraphexView@@MBEPBUAFX_MSGMAP@@XZ 00421048 f   graphexView.obj
 0001:0002005f       ??0CGraphexView@@IAE@XZ    0042105f f   graphexView.obj
 0001:0002023b       ??1CGraphexView@@UAE@XZ    0042123b f   graphexView.obj
 0001:000203c9       ?PreCreateWindow@CGraphexView@@UAEHAAUtagCREATESTRUCTA@@@Z 004213c9 f   graphexView.obj
 0001:000205d0       ?OnPrepareDC@CGraphexView@@MAEXPAVCDC@@PAUCPrintInfo@@@Z 004215d0 f   graphexView.obj
 0001:00020671       ?OnDraw@CGraphexView@@UAEXPAVCDC@@@Z 00421671 f   graphexView.obj
 0001:00020dba       ?AssertValid@CGraphexView@@UBEXXZ 00421dba f   graphexView.obj
 0001:00020dde       ?Dump@CGraphexView@@UBEXAAVCDumpContext@@@Z 00421dde f   graphexView.obj
 0001:00020e08       ?GetDocument@CGraphexView@@QAEPAVCGraphexDoc@@XZ 00421e08 f   graphexView.obj
 0001:00020e5e       ?OnMouseMove@CGraphexView@@IAEXIVCPoint@@@Z 00421e5e f   graphexView.obj
 0001:00020e72       ?OnLButtonUp@CGraphexView@@IAEXIVCPoint@@@Z 00421e72 f   graphexView.obj
 0001:00020e86       ?OnIfRedarwAll@CGraphexView@@IAEXXZ 00421e86 f   graphexView.obj
 0001:00020f04       ?OnUpdateIfRedarwAll@CGraphexView@@IAEXPAVCCmdUI@@@Z 00421f04 f   graphexView.obj
 0001:00020f6c       ?OnKeyDown@CGraphexView@@IAEXIII@Z 00421f6c f   graphexView.obj
 0001:00020fdc       ?OnIfStop@CGraphexView@@IAEXXZ 00421fdc f   graphexView.obj
 0001:00021037       ?OnIfPause@CGraphexView@@IAEXXZ 00422037 f   graphexView.obj
 0001:000210d1       ?OnUpdateIfPause@CGraphexView@@IAEXPAVCCmdUI@@@Z 004220d1 f   graphexView.obj
 0001:00021139       ?OnIfDoOneTime@CGraphexView@@IAEXXZ 00422139 f   graphexView.obj
 0001:0002118b       ?OnInputSite@CGraphexView@@IAEXXZ 0042218b f   graphexView.obj
 0001:000216d1       ?OnSize@CGraphexView@@IAEXIHH@Z 004226d1 f   graphexView.obj
 0001:0002185e       ?OnViewModifycolorscale@CGraphexView@@IAEXXZ 0042285e f   graphexView.obj
 0001:00021870       ?OnCropPropertyDB@CGraphexView@@IAEXXZ 00422870 f   graphexView.obj
 0001:00021882       ?OnRButtonDown@CGraphexView@@IAEXIVCPoint@@@Z 00422882 f   graphexView.obj
 0001:000218c1       ?OnInputRegion@CGraphexView@@IAEXXZ 004228c1 f   graphexView.obj
 0001:00021947       ?OnRunSite@CGraphexView@@IAEXH@Z 00422947 f   graphexView.obj
 0001:00021b9f       ?OnRunRegion@CGraphexView@@IAEXXZ 00422b9f f   graphexView.obj
 0001:00021c48       ?OnMapping@CGraphexView@@IAEXXZ 00422c48 f   graphexView.obj
 0001:00021c5a       ?OnSelectState@CGraphexView@@IAEXXZ 00422c5a f   graphexView.obj
 0001:00021ce4       ?OnSelectCounty@CGraphexView@@IAEXXZ 00422ce4 f   graphexView.obj
 0001:00021df0       ?OnSelectCrop@CGraphexView@@IAEXXZ 00422df0 f   graphexView.obj
 0001:00021e7a       ?OnMonteCarlo@CGraphexView@@IAEXXZ 00422e7a f   graphexView.obj
 0001:00021f00       ?OnDrawFlux@CGraphexView@@IAEXXZ 00422f00 f   graphexView.obj
 0001:00021f86       ?OnRegion@CGraphexView@@IAEXXZ 00422f86 f   graphexView.obj
 0001:0002200c       ?OnDrawMap@CGraphexView@@IAEXXZ 0042300c f   graphexView.obj
 0001:000221fa       ?OnMCresult@CGraphexView@@IAEXXZ 004231fa f   graphexView.obj
 0001:00022617       ?find_sector@CGraphexView@@QAEXHM@Z 00423617 f   graphexView.obj
 0001:00022734       ?DrawFrequency@CGraphexView@@QAEXPAVCGraphexDoc@@@Z 00423734 f   graphexView.obj
 0001:00022b58       ?OnExit@CGraphexView@@IAEXXZ 00423b58 f   graphexView.obj
 0001:00022b7b       ?OnWizardSelectCounty@CGraphexView@@IAEXXZ 00423b7b f   graphexView.obj
 0001:00022c98       ?OnMapCrops@CGraphexView@@IAEXXZ 00423c98 f   graphexView.obj
 0001:00022d00       ?OnMapCorn@CGraphexView@@IAEXXZ 00423d00 f   graphexView.obj
 0001:00022d68       ?OnWWheat@CGraphexView@@IAEXXZ 00423d68 f   graphexView.obj
 0001:00022dd0       ?OnSWheat@CGraphexView@@IAEXXZ 00423dd0 f   graphexView.obj
 0001:00022e38       ?OnSunflower@CGraphexView@@IAEXXZ 00423e38 f   graphexView.obj
 0001:00022ea0       ?OnSugarcane@CGraphexView@@IAEXXZ 00423ea0 f   graphexView.obj
 0001:00022f08       ?OnSoybean@CGraphexView@@IAEXXZ 00423f08 f   graphexView.obj
 0001:00022f70       ?OnSorghum@CGraphexView@@IAEXXZ 00423f70 f   graphexView.obj
 0001:00022fd8       ?OnBarley@CGraphexView@@IAEXXZ 00423fd8 f   graphexView.obj
 0001:00023040       ?OnBeet@CGraphexView@@IAEXXZ 00424040 f   graphexView.obj
 0001:000230a8       ?OnCotton@CGraphexView@@IAEXXZ 004240a8 f   graphexView.obj
 0001:00023110       ?OnLegumeHay@CGraphexView@@IAEXXZ 00424110 f   graphexView.obj
 0001:00023178       ?OnNonlegumehay@CGraphexView@@IAEXXZ 00424178 f   graphexView.obj
 0001:000231e0       ?OnOats@CGraphexView@@IAEXXZ 004241e0 f   graphexView.obj
 0001:00023248       ?OnPeanut@CGraphexView@@IAEXXZ 00424248 f   graphexView.obj
 0001:000232b0       ?OnPineapple@CGraphexView@@IAEXXZ 004242b0 f   graphexView.obj
 0001:00023318       ?OnPotato@CGraphexView@@IAEXXZ 00424318 f   graphexView.obj
 0001:00023380       ?OnRice@CGraphexView@@IAEXXZ 00424380 f   graphexView.obj
 0001:000233e8       ?OnTobacco@CGraphexView@@IAEXXZ 004243e8 f   graphexView.obj
 0001:00023450       ?OnVegetable@CGraphexView@@IAEXXZ 00424450 f   graphexView.obj
 0001:000234b8       ?OnWizardSelectCrop@CGraphexView@@IAEXXZ 004244b8 f   graphexView.obj
 0001:000234ca       ?OnResultReview@CGraphexView@@IAEXXZ 004244ca f   graphexView.obj
 0001:00023550       ?OnResultRecord@CGraphexView@@IAEXXZ 00424550 f   graphexView.obj
 0001:000235d6       ?OnUncertainty@CGraphexView@@IAEXXZ 004245d6 f   graphexView.obj
 0001:0002365c       ?OnLButtonDown@CGraphexView@@IAEXIVCPoint@@@Z 0042465c f   graphexView.obj
 0001:000236b5       ?OnRunUncertainty@CGraphexView@@IAEXXZ 004246b5 f   graphexView.obj
 0001:0002374d       ?OnMsf@CGraphexView@@IAEXXZ 0042474d f   graphexView.obj
 0001:000237e5       ?ShowMapValue@CGraphexView@@QAEXPAVCGraphexDoc@@VCPoint@@@Z 004247e5 f   graphexView.obj
 0001:000237f9       ?ReadDatafromFile_NG@@YAXPAD@Z 004247f9 f   graphexView.obj
 0001:000237fe       ?OnRegionInput@CGraphexView@@IAEXXZ 004247fe f   graphexView.obj
 0001:00023884       ?OnRegionRun@CGraphexView@@IAEXXZ 00424884 f   graphexView.obj
 0001:000238a8       ?OnESreview@CGraphexView@@IAEXXZ 004248a8 f   graphexView.obj
 0001:00023932       ?MonteCarloChart@CGraphexView@@QAEXH@Z 00424932 f   graphexView.obj
 0001:00023946       ?JulDay@@YAHHH@Z           00424946 f   graphexView.obj
 0001:00023a15       ?FileCopy2@@YAHPAD0@Z      00424a15 f   graphexView.obj
 0001:00023bc3       ?OnRegionMap@CGraphexView@@IAEXXZ 00424bc3 f   graphexView.obj
 0001:00023c59       ?OnCreateCrop@CGraphexView@@IAEXXZ 00424c59 f   graphexView.obj
 0001:00023ce3       ?OnExtractData@CGraphexView@@IAEXXZ 00424ce3 f   graphexView.obj
 0001:00023d69       ?OnWizardMonteCarlo@CGraphexView@@IAEXXZ 00424d69 f   graphexView.obj
 0001:00023e13       ?OnSiteResult@CGraphexView@@IAEXXZ 00424e13 f   graphexView.obj
 0001:00023e37       ?OnGlobeMap@CGraphexView@@IAEXXZ 00424e37 f   graphexView.obj
 0001:00023ebd       ?OnGlobeData@CGraphexView@@IAEXXZ 00424ebd f   graphexView.obj
 0001:00023f43       ?OnMapCounty@CGraphexView@@IAEXXZ 00424f43 f   graphexView.obj
 0001:0002459e       ?OnInitialUpdate@CGraphexView@@UAEXXZ 0042559e f   graphexView.obj
 0001:000245c2       ?Onconvert@CGraphexView@@IAEXXZ 004255c2 f   graphexView.obj
 0001:000251a4       ?OnMapView@CGraphexView@@IAEXXZ 004261a4 f   graphexView.obj
 0001:000253fa       ?OnBatch@CGraphexView@@IAEXXZ 004263fa f   graphexView.obj
 0001:00025bab       ?OnSiteParameter@CGraphexView@@IAEXXZ 00426bab f   graphexView.obj
 0001:00026040       ?OnMapLayer@CGraphexView@@IAEXXZ 00427040 f   graphexView.obj
 0001:0002704b       ?OnConvertData@CGraphexView@@IAEXXZ 0042804b f   graphexView.obj
 0001:00027c42       ?OnConvert1@CGraphexView@@IAEXXZ 00428c42 f   graphexView.obj
 0001:0002905e       ?OnConvert2@CGraphexView@@IAEXXZ 0042a05e f   graphexView.obj
 0001:0002958d       ?OnConvert3@CGraphexView@@IAEXXZ 0042a58d f   graphexView.obj
 0001:000299d0       ?OnConvert4@CGraphexView@@IAEXXZ 0042a9d0 f   graphexView.obj
 0001:00029da1       ?OnConvert5@CGraphexView@@IAEXXZ 0042ada1 f   graphexView.obj
 0001:00031286       ?OnConvert6@CGraphexView@@IAEXXZ 00432286 f   graphexView.obj
 0001:0003130c       ?OnSoilDensity@CGraphexView@@IAEXXZ 0043230c f   graphexView.obj
 0001:000316e6       ?OnGlobe5@CGraphexView@@IAEXXZ 004326e6 f   graphexView.obj
 0001:00032aca       ?OnConvert7@CGraphexView@@IAEXXZ 00433aca f   graphexView.obj
 0001:0003613b       ?On5min30min@CGraphexView@@IAEXXZ 0043713b f   graphexView.obj
 0001:000366dd       ?On5minSOIL30minSOIL@CGraphexView@@IAEXXZ 004376dd f   graphexView.obj
 0001:00036e59       ?OnUSAdata@CGraphexView@@IAEXXZ 00437e59 f   graphexView.obj
 0001:0003715a       ?OnDndc1@CGraphexView@@IAEXXZ 0043815a f   graphexView.obj
 0001:00037c62       ?Glean_StringP@@YAXPADHH0@Z 00438c62 f   graphexView.obj
 0001:00037cfd       ?OnDndcMap@CGraphexView@@IAEXXZ 00438cfd f   graphexView.obj
 0001:00037d83       ?OnDay1snow@CGraphexView@@IAEXXZ 00438d83 f   graphexView.obj
 0001:00038130       ??1DNDCSystem@@QAE@XZ      00439130 f i graphexView.obj
 0001:000381f0       ??_GCGraphexView@@UAEPAXI@Z 004391f0 f i graphexView.obj
 0001:000381f0       ??_ECGraphexView@@UAEPAXI@Z 004391f0 f i graphexView.obj
 0001:00038230       ??0CFileStatus@@QAE@XZ     00439230 f i graphexView.obj
 0001:00038270       ??1Region@@UAE@XZ          00439270 f i graphexView.obj
 0001:000383a0       ??1UncertaintyInput@@UAE@XZ 004393a0 f i graphexView.obj
 0001:000384c0       ??1SelectCrop@@UAE@XZ      004394c0 f i graphexView.obj
 0001:000385c0       ??1MonteCarlo@@UAE@XZ      004395c0 f i graphexView.obj
 0001:00038660       ??1USAstate@@UAE@XZ        00439660 f i graphexView.obj
 0001:000386c0       ??1WizardResult@@UAE@XZ    004396c0 f i graphexView.obj
 0001:00038750       ??1CountySave@@UAE@XZ      00439750 f i graphexView.obj
 0001:000387b0       ??1WizardUncertainty@@UAE@XZ 004397b0 f i graphexView.obj
 0001:00038880       ??1NewCrop@@UAE@XZ         00439880 f i graphexView.obj
 0001:00038930       ??1SelectShapeMap@@UAE@XZ  00439930 f i graphexView.obj
 0001:00038990       ?SetMapPath@CSelectRegionDlg@@QAEXVCString@@@Z 00439990 f i graphexView.obj
 0001:00038a00       ??1MonteCarloParameters@@UAE@XZ 00439a00 f i graphexView.obj
 0001:00038a30       ??1MapLayer@@UAE@XZ        00439a30 f i graphexView.obj
 0001:00038a90       ??0ChinaProvince@@QAE@PAVCWnd@@@Z 00439a90 f   hinaProvince.obj
 0001:00038b03       ?DoDataExchange@ChinaProvince@@MAEXPAVCDataExchange@@@Z 00439b03 f   hinaProvince.obj
 0001:00038b42       ?GetMessageMap@ChinaProvince@@MBEPBUAFX_MSGMAP@@XZ 00439b42 f   hinaProvince.obj
 0001:00038b59       ?OnSelchangeChinaProvince@ChinaProvince@@IAEXXZ 00439b59 f   hinaProvince.obj
 0001:00038b90       ?OnOK@ChinaProvince@@MAEXXZ 00439b90 f   hinaProvince.obj
 0001:000390b0       ??_GChinaProvince@@UAEPAXI@Z 0043a0b0 f i hinaProvince.obj
 0001:000390b0       ??_EChinaProvince@@UAEPAXI@Z 0043a0b0 f i hinaProvince.obj
 0001:000390f0       ??0IndiaState@@QAE@PAVCWnd@@@Z 0043a0f0 f   IndiaState.obj
 0001:00039163       ?DoDataExchange@IndiaState@@MAEXPAVCDataExchange@@@Z 0043a163 f   IndiaState.obj
 0001:000391a2       ?GetMessageMap@IndiaState@@MBEPBUAFX_MSGMAP@@XZ 0043a1a2 f   IndiaState.obj
 0001:000391b9       ?OnSelchangeIndiaState@IndiaState@@IAEXXZ 0043a1b9 f   IndiaState.obj
 0001:000391f0       ??_EIndiaState@@UAEPAXI@Z  0043a1f0 f i IndiaState.obj
 0001:000391f0       ??_GIndiaState@@UAEPAXI@Z  0043a1f0 f i IndiaState.obj
 0001:0003928b       ??0CListFile@@QAE@PAVCWnd@@@Z 0043a28b f   ListFile.obj
 0001:000392fe       ?DoDataExchange@CListFile@@MAEXPAVCDataExchange@@@Z 0043a2fe f   ListFile.obj
 0001:0003933d       ?GetMessageMap@CListFile@@MBEPBUAFX_MSGMAP@@XZ 0043a33d f   ListFile.obj
 0001:00039354       ?OnSelClimateFileB@CListFile@@IAEXXZ 0043a354 f   ListFile.obj
 0001:0003956c       ?OnOK@CListFile@@MAEXXZ    0043a56c f   ListFile.obj
 0001:00039670       ??_GCListFile@@UAEPAXI@Z   0043a670 f i ListFile.obj
 0001:00039670       ??_ECListFile@@UAEPAXI@Z   0043a670 f i ListFile.obj
 0001:000396b0       ??1CListFile@@UAE@XZ       0043a6b0 f i ListFile.obj
 0001:00039710       ?CreateObject@CMainFrame@@SGPAVCObject@@XZ 0043a710 f   MainFrm.obj
 0001:0003979d       ?GetRuntimeClass@CMainFrame@@UBEPAUCRuntimeClass@@XZ 0043a79d f   MainFrm.obj
 0001:000397b4       ?GetMessageMap@CMainFrame@@MBEPBUAFX_MSGMAP@@XZ 0043a7b4 f   MainFrm.obj
 0001:000397cb       ??0CMainFrame@@IAE@XZ      0043a7cb f   MainFrm.obj
 0001:0003985a       ??1CMainFrame@@UAE@XZ      0043a85a f   MainFrm.obj
 0001:000398e6       ?OnCreate@CMainFrame@@IAEHPAUtagCREATESTRUCTA@@@Z 0043a8e6 f   MainFrm.obj
 0001:00039a34       ?SetDatabaseBar@CMainFrame@@QAEHXZ 0043aa34 f   MainFrm.obj
 0001:00039a48       ?PreCreateWindow@CMainFrame@@UAEHAAUtagCREATESTRUCTA@@@Z 0043aa48 f   MainFrm.obj
 0001:00039a7f       ?AssertValid@CMainFrame@@UBEXXZ 0043aa7f f   MainFrm.obj
 0001:00039aa3       ?Dump@CMainFrame@@UBEXAAVCDumpContext@@@Z 0043aaa3 f   MainFrm.obj
 0001:00039acd       ?OnUpdateMousePos@CMainFrame@@QAEXPAVCCmdUI@@@Z 0043aacd f   MainFrm.obj
 0001:00039b02       ?SetDoc@CMainFrame@@QAEXVCString@@@Z 0043ab02 f   MainFrm.obj
 0001:00039bf0       ?OnAppExit@CMainFrame@@IAEXXZ 0043abf0 f   MainFrm.obj
 0001:00039c20       ??_GCMainFrame@@UAEPAXI@Z  0043ac20 f i MainFrm.obj
 0001:00039c20       ??_ECMainFrame@@UAEPAXI@Z  0043ac20 f i MainFrm.obj
 0001:00039c60       ??0ManureApplication@@QAE@PAVCWnd@@@Z 0043ac60 f   ManureApplication.obj
 0001:00039c9b       ?DoDataExchange@ManureApplication@@MAEXPAVCDataExchange@@@Z 0043ac9b f   ManureApplication.obj
 0001:00039cc5       ?GetMessageMap@ManureApplication@@MBEPBUAFX_MSGMAP@@XZ 0043acc5 f   ManureApplication.obj
 0001:00039ce0       ??_GManureApplication@@UAEPAXI@Z 0043ace0 f i ManureApplication.obj
 0001:00039ce0       ??_EManureApplication@@UAEPAXI@Z 0043ace0 f i ManureApplication.obj
 0001:00039d20       ??1ManureApplication@@UAE@XZ 0043ad20 f i ManureApplication.obj
 0001:00039d50       ??0MapLayer@@QAE@PAVCWnd@@@Z 0043ad50 f   MapLayer.obj
 0001:00039dc3       ?DoDataExchange@MapLayer@@MAEXPAVCDataExchange@@@Z 0043adc3 f   MapLayer.obj
 0001:00039e02       ?GetMessageMap@MapLayer@@MBEPBUAFX_MSGMAP@@XZ 0043ae02 f   MapLayer.obj
 0001:00039e19       ?OnSelectFile@MapLayer@@IAEXXZ 0043ae19 f   MapLayer.obj
 0001:0003a08c       ?OnOK@MapLayer@@MAEXXZ     0043b08c f   MapLayer.obj
 0001:0003a190       ??_GMapLayer@@UAEPAXI@Z    0043b190 f i MapLayer.obj
 0001:0003a190       ??_EMapLayer@@UAEPAXI@Z    0043b190 f i MapLayer.obj
 0001:0003a1d0       ??0MapSelect@@QAE@PAVCWnd@@@Z 0043b1d0 f   MapSelect.obj
 0001:0003a276       ?DoDataExchange@MapSelect@@MAEXPAVCDataExchange@@@Z 0043b276 f   MapSelect.obj
 0001:0003a2ca       ?GetMessageMap@MapSelect@@MBEPBUAFX_MSGMAP@@XZ 0043b2ca f   MapSelect.obj
 0001:0003a2e1       ?OnOK@MapSelect@@MAEXXZ    0043b2e1 f   MapSelect.obj
 0001:0003a3f0       ??_GMapSelect@@UAEPAXI@Z   0043b3f0 f i MapSelect.obj
 0001:0003a3f0       ??_EMapSelect@@UAEPAXI@Z   0043b3f0 f i MapSelect.obj
 0001:0003a430       ??1MapSelect@@UAE@XZ       0043b430 f i MapSelect.obj
 0001:0003a4a0       ??0MonteCarlo@@QAE@PAVCWnd@@@Z 0043b4a0 f   MonteCarlo.obj
 0001:0003a5a9       ?DoDataExchange@MonteCarlo@@MAEXPAVCDataExchange@@@Z 0043b5a9 f   MonteCarlo.obj
 0001:0003a649       ?GetMessageMap@MonteCarlo@@MBEPBUAFX_MSGMAP@@XZ 0043b649 f   MonteCarlo.obj
 0001:0003a660       ?Ondata@MonteCarlo@@IAEXXZ 0043b660 f   MonteCarlo.obj
 0001:0003af87       ?OnOK@MonteCarlo@@MAEXXZ   0043bf87 f   MonteCarlo.obj
 0001:0003b1cb       ?RunMonteCarlo@CGraphexView@@QAEXH@Z 0043c1cb f   MonteCarlo.obj
 0001:0003be70       ??_EMonteCarlo@@UAEPAXI@Z  0043ce70 f i MonteCarlo.obj
 0001:0003be70       ??_GMonteCarlo@@UAEPAXI@Z  0043ce70 f i MonteCarlo.obj
 0001:0003beb0       ??0MonteCarloNote@@QAE@PAVCWnd@@@Z 0043ceb0 f   MonteCarloNote.obj
 0001:0003beeb       ?DoDataExchange@MonteCarloNote@@MAEXPAVCDataExchange@@@Z 0043ceeb f   MonteCarloNote.obj
 0001:0003bf15       ?GetMessageMap@MonteCarloNote@@MBEPBUAFX_MSGMAP@@XZ 0043cf15 f   MonteCarloNote.obj
 0001:0003bf30       ??_GMonteCarloNote@@UAEPAXI@Z 0043cf30 f i MonteCarloNote.obj
 0001:0003bf30       ??_EMonteCarloNote@@UAEPAXI@Z 0043cf30 f i MonteCarloNote.obj
 0001:0003bf70       ??1MonteCarloNote@@UAE@XZ  0043cf70 f i MonteCarloNote.obj
 0001:0003bfa0       ??0MonteCarloParameters@@QAE@PAVCWnd@@@Z 0043cfa0 f   MonteCarloParameters.obj
 0001:0003c4fb       ?DoDataExchange@MonteCarloParameters@@MAEXPAVCDataExchange@@@Z 0043d4fb f   MonteCarloParameters.obj
 0001:0003ce93       ?GetMessageMap@MonteCarloParameters@@MBEPBUAFX_MSGMAP@@XZ 0043de93 f   MonteCarloParameters.obj
 0001:0003ceaa       ?OnInitDialog@MonteCarloParameters@@MAEHXZ 0043deaa f   MonteCarloParameters.obj
 0001:0003d469       ?OnConfirm@MonteCarloParameters@@IAEXXZ 0043e469 f   MonteCarloParameters.obj
 0001:0003e1f5       ?OnOK@MonteCarloParameters@@MAEXXZ 0043f1f5 f   MonteCarloParameters.obj
 0001:0003f1f0       ??_GMonteCarloParameters@@UAEPAXI@Z 004401f0 f i MonteCarloParameters.obj
 0001:0003f1f0       ??_EMonteCarloParameters@@UAEPAXI@Z 004401f0 f i MonteCarloParameters.obj
 0001:0003f230       ?GetCount@_Collection@@QAEJXZ 00440230 f   msado15.obj
 0001:0003f270       ?Refresh@_Collection@@QAEXXZ 00440270 f   msado15.obj
 0001:0003f2a2       ?GetCount@_DynaCollection@@QAEJXZ 004402a2 f   msado15.obj
 0001:0003f2e2       ?Refresh@_DynaCollection@@QAEXXZ 004402e2 f   msado15.obj
 0001:0003f314       ?Append@_DynaCollection@@QAEXPAUIDispatch@@@Z 00440314 f   msado15.obj
 0001:0003f352       ?Delete@_DynaCollection@@QAEXABUtagVARIANT@@@Z 00440352 f   msado15.obj
 0001:0003f390       ?GetProperties@_ADO@@QAEPAUIDispatch@@XZ 00440390 f   msado15.obj
 0001:0003f3d3       ?GetCount@Properties@@QAEJXZ 004403d3 f   msado15.obj
 0001:0003f413       ?Refresh@Properties@@QAEXXZ 00440413 f   msado15.obj
 0001:0003f445       ?GetItem@Properties@@QAEPAUIDispatch@@ABUtagVARIANT@@@Z 00440445 f   msado15.obj
 0001:0003f48e       ?GetValue@Property@@QAE?AUtagVARIANT@@XZ 0044048e f   msado15.obj
 0001:0003f4f0       ?SetValue@Property@@QAEXABUtagVARIANT@@@Z 004404f0 f   msado15.obj
 0001:0003f52b       ?GetName@Property@@QAE?AVCString@@XZ 0044052b f   msado15.obj
 0001:0003f5cc       ?GetType@Property@@QAEJXZ  004405cc f   msado15.obj
 0001:0003f60f       ?GetAttributes@Property@@QAEJXZ 0044060f f   msado15.obj
 0001:0003f652       ?SetAttributes@Property@@QAEXJ@Z 00440652 f   msado15.obj
 0001:0003f690       ?GetNumber@Error@@QAEJXZ   00440690 f   msado15.obj
 0001:0003f6d0       ?GetSource@Error@@QAE?AVCString@@XZ 004406d0 f   msado15.obj
 0001:0003f76e       ?GetDescription@Error@@QAE?AVCString@@XZ 0044076e f   msado15.obj
 0001:0003f80c       ?GetHelpFile@Error@@QAE?AVCString@@XZ 0044080c f   msado15.obj
 0001:0003f8aa       ?GetHelpContext@Error@@QAEJXZ 004408aa f   msado15.obj
 0001:0003f8ea       ?GetSQLState@Error@@QAE?AVCString@@XZ 004408ea f   msado15.obj
 0001:0003f988       ?GetNativeError@Error@@QAEJXZ 00440988 f   msado15.obj
 0001:0003f9c8       ?GetCount@Errors@@QAEJXZ   004409c8 f   msado15.obj
 0001:0003fa08       ?Refresh@Errors@@QAEXXZ    00440a08 f   msado15.obj
 0001:0003fa3a       ?GetItem@Errors@@QAEPAUIDispatch@@ABUtagVARIANT@@@Z 00440a3a f   msado15.obj
 0001:0003fa83       ?Clear@Errors@@QAEXXZ      00440a83 f   msado15.obj
 0001:0003fab8       ?GetProperties@Command15@@QAEPAUIDispatch@@XZ 00440ab8 f   msado15.obj
 0001:0003fafb       ?GetActiveConnection@Command15@@QAEPAUIDispatch@@XZ 00440afb f   msado15.obj
 0001:0003fb3b       ?SetRefActiveConnection@Command15@@QAEXPAUIDispatch@@@Z 00440b3b f   msado15.obj
 0001:0003fb76       ?SetActiveConnection@Command15@@QAEXABUtagVARIANT@@@Z 00440b76 f   msado15.obj
 0001:0003fbb1       ?GetCommandText@Command15@@QAE?AVCString@@XZ 00440bb1 f   msado15.obj
 0001:0003fc4f       ?SetCommandText@Command15@@QAEXPBD@Z 00440c4f f   msado15.obj
 0001:0003fc8a       ?GetCommandTimeout@Command15@@QAEJXZ 00440c8a f   msado15.obj
 0001:0003fcca       ?SetCommandTimeout@Command15@@QAEXJ@Z 00440cca f   msado15.obj
 0001:0003fd05       ?GetPrepared@Command15@@QAEHXZ 00440d05 f   msado15.obj
 0001:0003fd45       ?SetPrepared@Command15@@QAEXH@Z 00440d45 f   msado15.obj
 0001:0003fd80       ?Execute@Command15@@QAEPAUIDispatch@@PAUtagVARIANT@@0J@Z 00440d80 f   msado15.obj
 0001:0003fdd1       ?CreateParameter@Command15@@QAEPAUIDispatch@@PBDJJJABUtagVARIANT@@@Z 00440dd1 f   msado15.obj
 0001:0003fe2a       ?GetParameters@Command15@@QAEPAUIDispatch@@XZ 00440e2a f   msado15.obj
 0001:0003fe6a       ?SetCommandType@Command15@@QAEXJ@Z 00440e6a f   msado15.obj
 0001:0003fea5       ?GetCommandType@Command15@@QAEJXZ 00440ea5 f   msado15.obj
 0001:0003fee5       ?GetName@Command15@@QAE?AVCString@@XZ 00440ee5 f   msado15.obj
 0001:0003ff83       ?SetName@Command15@@QAEXPBD@Z 00440f83 f   msado15.obj
 0001:0003ffbe       ?GetProperties@_Connection@@QAEPAUIDispatch@@XZ 00440fbe f   msado15.obj
 0001:00040001       ?GetConnectionString@_Connection@@QAE?AVCString@@XZ 00441001 f   msado15.obj
 0001:0004009f       ?SetConnectionString@_Connection@@QAEXPBD@Z 0044109f f   msado15.obj
 0001:000400da       ?GetCommandTimeout@_Connection@@QAEJXZ 004410da f   msado15.obj
 0001:0004011a       ?SetCommandTimeout@_Connection@@QAEXJ@Z 0044111a f   msado15.obj
 0001:00040155       ?GetConnectionTimeout@_Connection@@QAEJXZ 00441155 f   msado15.obj
 0001:00040195       ?SetConnectionTimeout@_Connection@@QAEXJ@Z 00441195 f   msado15.obj
 0001:000401d0       ?GetVersion@_Connection@@QAE?AVCString@@XZ 004411d0 f   msado15.obj
 0001:0004026e       ?Close@_Connection@@QAEXXZ 0044126e f   msado15.obj
 0001:000402a0       ?Execute@_Connection@@QAEPAUIDispatch@@PBDPAUtagVARIANT@@J@Z 004412a0 f   msado15.obj
 0001:000402f1       ?BeginTrans@_Connection@@QAEJXZ 004412f1 f   msado15.obj
 0001:00040331       ?CommitTrans@_Connection@@QAEXXZ 00441331 f   msado15.obj
 0001:00040363       ?RollbackTrans@_Connection@@QAEXXZ 00441363 f   msado15.obj
 0001:00040395       ?Open@_Connection@@QAEXPBD00J@Z 00441395 f   msado15.obj
 0001:000403dc       ?GetErrors@_Connection@@QAEPAUIDispatch@@XZ 004413dc f   msado15.obj
 0001:0004041c       ?GetDefaultDatabase@_Connection@@QAE?AVCString@@XZ 0044141c f   msado15.obj
 0001:000404ba       ?SetDefaultDatabase@_Connection@@QAEXPBD@Z 004414ba f   msado15.obj
 0001:000404f5       ?GetIsolationLevel@_Connection@@QAEJXZ 004414f5 f   msado15.obj
 0001:00040535       ?SetIsolationLevel@_Connection@@QAEXJ@Z 00441535 f   msado15.obj
 0001:00040570       ?GetAttributes@_Connection@@QAEJXZ 00441570 f   msado15.obj
 0001:000405b0       ?SetAttributes@_Connection@@QAEXJ@Z 004415b0 f   msado15.obj
 0001:000405eb       ?GetCursorLocation@_Connection@@QAEJXZ 004415eb f   msado15.obj
 0001:0004062b       ?SetCursorLocation@_Connection@@QAEXJ@Z 0044162b f   msado15.obj
 0001:00040666       ?GetMode@_Connection@@QAEJXZ 00441666 f   msado15.obj
 0001:000406a6       ?SetMode@_Connection@@QAEXJ@Z 004416a6 f   msado15.obj
 0001:000406e1       ?GetProvider@_Connection@@QAE?AVCString@@XZ 004416e1 f   msado15.obj
 0001:0004077f       ?SetProvider@_Connection@@QAEXPBD@Z 0044177f f   msado15.obj
 0001:000407ba       ?GetState@_Connection@@QAEJXZ 004417ba f   msado15.obj
 0001:000407fa       ?OpenSchema@_Connection@@QAEPAUIDispatch@@JABUtagVARIANT@@0@Z 004417fa f   msado15.obj
 0001:0004084b       ?Cancel@_Connection@@QAEXXZ 0044184b f   msado15.obj
 0001:0004087d       ?GetProperties@Connection15@@QAEPAUIDispatch@@XZ 0044187d f   msado15.obj
 0001:000408c0       ?GetConnectionString@Connection15@@QAE?AVCString@@XZ 004418c0 f   msado15.obj
 0001:0004095e       ?SetConnectionString@Connection15@@QAEXPBD@Z 0044195e f   msado15.obj
 0001:00040999       ?GetCommandTimeout@Connection15@@QAEJXZ 00441999 f   msado15.obj
 0001:000409d9       ?SetCommandTimeout@Connection15@@QAEXJ@Z 004419d9 f   msado15.obj
 0001:00040a14       ?GetConnectionTimeout@Connection15@@QAEJXZ 00441a14 f   msado15.obj
 0001:00040a54       ?SetConnectionTimeout@Connection15@@QAEXJ@Z 00441a54 f   msado15.obj
 0001:00040a8f       ?GetVersion@Connection15@@QAE?AVCString@@XZ 00441a8f f   msado15.obj
 0001:00040b2d       ?Close@Connection15@@QAEXXZ 00441b2d f   msado15.obj
 0001:00040b5f       ?Execute@Connection15@@QAEPAUIDispatch@@PBDPAUtagVARIANT@@J@Z 00441b5f f   msado15.obj
 0001:00040bb0       ?BeginTrans@Connection15@@QAEJXZ 00441bb0 f   msado15.obj
 0001:00040bf0       ?CommitTrans@Connection15@@QAEXXZ 00441bf0 f   msado15.obj
 0001:00040c22       ?RollbackTrans@Connection15@@QAEXXZ 00441c22 f   msado15.obj
 0001:00040c54       ?Open@Connection15@@QAEXPBD00J@Z 00441c54 f   msado15.obj
 0001:00040c9b       ?GetErrors@Connection15@@QAEPAUIDispatch@@XZ 00441c9b f   msado15.obj
 0001:00040cdb       ?GetDefaultDatabase@Connection15@@QAE?AVCString@@XZ 00441cdb f   msado15.obj
 0001:00040d79       ?SetDefaultDatabase@Connection15@@QAEXPBD@Z 00441d79 f   msado15.obj
 0001:00040db4       ?GetIsolationLevel@Connection15@@QAEJXZ 00441db4 f   msado15.obj
 0001:00040df4       ?SetIsolationLevel@Connection15@@QAEXJ@Z 00441df4 f   msado15.obj
 0001:00040e2f       ?GetAttributes@Connection15@@QAEJXZ 00441e2f f   msado15.obj
 0001:00040e6f       ?SetAttributes@Connection15@@QAEXJ@Z 00441e6f f   msado15.obj
 0001:00040eaa       ?GetCursorLocation@Connection15@@QAEJXZ 00441eaa f   msado15.obj
 0001:00040eea       ?SetCursorLocation@Connection15@@QAEXJ@Z 00441eea f   msado15.obj
 0001:00040f25       ?GetMode@Connection15@@QAEJXZ 00441f25 f   msado15.obj
 0001:00040f65       ?SetMode@Connection15@@QAEXJ@Z 00441f65 f   msado15.obj
 0001:00040fa0       ?GetProvider@Connection15@@QAE?AVCString@@XZ 00441fa0 f   msado15.obj
 0001:0004103e       ?SetProvider@Connection15@@QAEXPBD@Z 0044203e f   msado15.obj
 0001:00041079       ?GetState@Connection15@@QAEJXZ 00442079 f   msado15.obj
 0001:000410b9       ?OpenSchema@Connection15@@QAEPAUIDispatch@@JABUtagVARIANT@@0@Z 004420b9 f   msado15.obj
 0001:0004110a       ?GetProperties@_Recordset@@QAEPAUIDispatch@@XZ 0044210a f   msado15.obj
 0001:0004114d       ?GetAbsolutePosition@_Recordset@@QAEJXZ 0044214d f   msado15.obj
 0001:00041190       ?SetAbsolutePosition@_Recordset@@QAEXJ@Z 00442190 f   msado15.obj
 0001:000411ce       ?SetRefActiveConnection@_Recordset@@QAEXPAUIDispatch@@@Z 004421ce f   msado15.obj
 0001:0004120c       ?SetActiveConnection@_Recordset@@QAEXABUtagVARIANT@@@Z 0044220c f   msado15.obj
 0001:0004124a       ?GetActiveConnection@_Recordset@@QAE?AUtagVARIANT@@XZ 0044224a f   msado15.obj
 0001:000412af       ?GetBof@_Recordset@@QAEHXZ 004422af f   msado15.obj
 0001:000412f2       ?GetBookmark@_Recordset@@QAE?AUtagVARIANT@@XZ 004422f2 f   msado15.obj
 0001:00041357       ?SetBookmark@_Recordset@@QAEXABUtagVARIANT@@@Z 00442357 f   msado15.obj
 0001:00041395       ?GetCacheSize@_Recordset@@QAEJXZ 00442395 f   msado15.obj
 0001:000413d8       ?SetCacheSize@_Recordset@@QAEXJ@Z 004423d8 f   msado15.obj
 0001:00041416       ?GetCursorType@_Recordset@@QAEJXZ 00442416 f   msado15.obj
 0001:00041459       ?SetCursorType@_Recordset@@QAEXJ@Z 00442459 f   msado15.obj
 0001:00041497       ?GetEof@_Recordset@@QAEHXZ 00442497 f   msado15.obj
 0001:000414da       ?GetFields@_Recordset@@QAEPAUIDispatch@@XZ 004424da f   msado15.obj
 0001:0004151a       ?GetLockType@_Recordset@@QAEJXZ 0044251a f   msado15.obj
 0001:0004155d       ?SetLockType@_Recordset@@QAEXJ@Z 0044255d f   msado15.obj
 0001:0004159b       ?GetMaxRecords@_Recordset@@QAEJXZ 0044259b f   msado15.obj
 0001:000415de       ?SetMaxRecords@_Recordset@@QAEXJ@Z 004425de f   msado15.obj
 0001:0004161c       ?GetRecordCount@_Recordset@@QAEJXZ 0044261c f   msado15.obj
 0001:0004165f       ?SetRefSource@_Recordset@@QAEXPAUIDispatch@@@Z 0044265f f   msado15.obj
 0001:0004169d       ?SetSource@_Recordset@@QAEXPBD@Z 0044269d f   msado15.obj
 0001:000416db       ?GetSource@_Recordset@@QAE?AUtagVARIANT@@XZ 004426db f   msado15.obj
 0001:00041740       ?AddNew@_Recordset@@QAEXABUtagVARIANT@@0@Z 00442740 f   msado15.obj
 0001:00041782       ?CancelUpdate@_Recordset@@QAEXXZ 00442782 f   msado15.obj
 0001:000417b7       ?Close@_Recordset@@QAEXXZ  004427b7 f   msado15.obj
 0001:000417ec       ?Delete@_Recordset@@QAEXJ@Z 004427ec f   msado15.obj
 0001:0004182a       ?GetRows@_Recordset@@QAE?AUtagVARIANT@@JABU2@0@Z 0044282a f   msado15.obj
 0001:0004189e       ?Move@_Recordset@@QAEXJABUtagVARIANT@@@Z 0044289e f   msado15.obj
 0001:000418e0       ?MoveNext@_Recordset@@QAEXXZ 004428e0 f   msado15.obj
 0001:00041915       ?MovePrevious@_Recordset@@QAEXXZ 00442915 f   msado15.obj
 0001:0004194a       ?MoveFirst@_Recordset@@QAEXXZ 0044294a f   msado15.obj
 0001:0004197f       ?MoveLast@_Recordset@@QAEXXZ 0044297f f   msado15.obj
 0001:000419b4       ?Open@_Recordset@@QAEXABUtagVARIANT@@0JJJ@Z 004429b4 f   msado15.obj
 0001:00041a02       ?Requery@_Recordset@@QAEXJ@Z 00442a02 f   msado15.obj
 0001:00041a40       ?Update@_Recordset@@QAEXABUtagVARIANT@@0@Z 00442a40 f   msado15.obj
 0001:00041a82       ?GetAbsolutePage@_Recordset@@QAEJXZ 00442a82 f   msado15.obj
 0001:00041ac5       ?SetAbsolutePage@_Recordset@@QAEXJ@Z 00442ac5 f   msado15.obj
 0001:00041b03       ?GetEditMode@_Recordset@@QAEJXZ 00442b03 f   msado15.obj
 0001:00041b46       ?GetFilter@_Recordset@@QAE?AUtagVARIANT@@XZ 00442b46 f   msado15.obj
 0001:00041bab       ?SetFilter@_Recordset@@QAEXABUtagVARIANT@@@Z 00442bab f   msado15.obj
 0001:00041be9       ?GetPageCount@_Recordset@@QAEJXZ 00442be9 f   msado15.obj
 0001:00041c2c       ?GetPageSize@_Recordset@@QAEJXZ 00442c2c f   msado15.obj
 0001:00041c6f       ?SetPageSize@_Recordset@@QAEXJ@Z 00442c6f f   msado15.obj
 0001:00041cad       ?GetSort@_Recordset@@QAE?AVCString@@XZ 00442cad f   msado15.obj
 0001:00041d4e       ?SetSort@_Recordset@@QAEXPBD@Z 00442d4e f   msado15.obj
 0001:00041d8c       ?GetStatus@_Recordset@@QAEJXZ 00442d8c f   msado15.obj
 0001:00041dcf       ?GetState@_Recordset@@QAEJXZ 00442dcf f   msado15.obj
 0001:00041e12       ?UpdateBatch@_Recordset@@QAEXJ@Z 00442e12 f   msado15.obj
 0001:00041e50       ?CancelBatch@_Recordset@@QAEXJ@Z 00442e50 f   msado15.obj
 0001:00041e8e       ?GetCursorLocation@_Recordset@@QAEJXZ 00442e8e f   msado15.obj
 0001:00041ed1       ?SetCursorLocation@_Recordset@@QAEXJ@Z 00442ed1 f   msado15.obj
 0001:00041f0f       ?NextRecordset@_Recordset@@QAEPAUIDispatch@@PAUtagVARIANT@@@Z 00442f0f f   msado15.obj
 0001:00041f5b       ?Supports@_Recordset@@QAEHJ@Z 00442f5b f   msado15.obj
 0001:00041fa7       ?GetMarshalOptions@_Recordset@@QAEJXZ 00442fa7 f   msado15.obj
 0001:00041fea       ?SetMarshalOptions@_Recordset@@QAEXJ@Z 00442fea f   msado15.obj
 0001:00042028       ?Find@_Recordset@@QAEXPBDJJABUtagVARIANT@@@Z 00443028 f   msado15.obj
 0001:00042072       ?Cancel@_Recordset@@QAEXXZ 00443072 f   msado15.obj
 0001:000420a7       ?GetDataSource@_Recordset@@QAEPAUIUnknown@@XZ 004430a7 f   msado15.obj
 0001:000420ea       ?SetRefDataSource@_Recordset@@QAEXPAUIUnknown@@@Z 004430ea f   msado15.obj
 0001:00042128       ?GetActiveCommand@_Recordset@@QAEPAUIDispatch@@XZ 00443128 f   msado15.obj
 0001:0004216b       ?SetStayInSync@_Recordset@@QAEXH@Z 0044316b f   msado15.obj
 0001:000421a9       ?GetStayInSync@_Recordset@@QAEHXZ 004431a9 f   msado15.obj
 0001:000421ec       ?GetString@_Recordset@@QAE?AVCString@@JJPBD00@Z 004431ec f   msado15.obj
 0001:000422a5       ?GetDataMember@_Recordset@@QAE?AVCString@@XZ 004432a5 f   msado15.obj
 0001:00042346       ?SetDataMember@_Recordset@@QAEXPBD@Z 00443346 f   msado15.obj
 0001:00042384       ?CompareBookmarks@_Recordset@@QAEJABUtagVARIANT@@0@Z 00443384 f   msado15.obj
 0001:000423d4       ?Clone@_Recordset@@QAEPAUIDispatch@@J@Z 004433d4 f   msado15.obj
 0001:00042420       ?Resync@_Recordset@@QAEXJJ@Z 00443420 f   msado15.obj
 0001:00042462       ?Seek@_Recordset@@QAEXABUtagVARIANT@@J@Z 00443462 f   msado15.obj
 0001:000424a4       ?SetIndex@_Recordset@@QAEXPBD@Z 004434a4 f   msado15.obj
 0001:000424e2       ?GetIndex@_Recordset@@QAE?AVCString@@XZ 004434e2 f   msado15.obj
 0001:00042583       ?Save@_Recordset@@QAEXABUtagVARIANT@@J@Z 00443583 f   msado15.obj
 0001:000425c5       ?GetProperties@Recordset21@@QAEPAUIDispatch@@XZ 004435c5 f   msado15.obj
 0001:00042608       ?GetAbsolutePosition@Recordset21@@QAEJXZ 00443608 f   msado15.obj
 0001:0004264b       ?SetAbsolutePosition@Recordset21@@QAEXJ@Z 0044364b f   msado15.obj
 0001:00042689       ?SetRefActiveConnection@Recordset21@@QAEXPAUIDispatch@@@Z 00443689 f   msado15.obj
 0001:000426c7       ?SetActiveConnection@Recordset21@@QAEXABUtagVARIANT@@@Z 004436c7 f   msado15.obj
 0001:00042705       ?GetActiveConnection@Recordset21@@QAE?AUtagVARIANT@@XZ 00443705 f   msado15.obj
 0001:0004276a       ?GetBof@Recordset21@@QAEHXZ 0044376a f   msado15.obj
 0001:000427ad       ?GetBookmark@Recordset21@@QAE?AUtagVARIANT@@XZ 004437ad f   msado15.obj
 0001:00042812       ?SetBookmark@Recordset21@@QAEXABUtagVARIANT@@@Z 00443812 f   msado15.obj
 0001:00042850       ?GetCacheSize@Recordset21@@QAEJXZ 00443850 f   msado15.obj
 0001:00042893       ?SetCacheSize@Recordset21@@QAEXJ@Z 00443893 f   msado15.obj
 0001:000428d1       ?GetCursorType@Recordset21@@QAEJXZ 004438d1 f   msado15.obj
 0001:00042914       ?SetCursorType@Recordset21@@QAEXJ@Z 00443914 f   msado15.obj
 0001:00042952       ?GetEof@Recordset21@@QAEHXZ 00443952 f   msado15.obj
 0001:00042995       ?GetFields@Recordset21@@QAEPAUIDispatch@@XZ 00443995 f   msado15.obj
 0001:000429d5       ?GetLockType@Recordset21@@QAEJXZ 004439d5 f   msado15.obj
 0001:00042a18       ?SetLockType@Recordset21@@QAEXJ@Z 00443a18 f   msado15.obj
 0001:00042a56       ?GetMaxRecords@Recordset21@@QAEJXZ 00443a56 f   msado15.obj
 0001:00042a99       ?SetMaxRecords@Recordset21@@QAEXJ@Z 00443a99 f   msado15.obj
 0001:00042ad7       ?GetRecordCount@Recordset21@@QAEJXZ 00443ad7 f   msado15.obj
 0001:00042b1a       ?SetRefSource@Recordset21@@QAEXPAUIDispatch@@@Z 00443b1a f   msado15.obj
 0001:00042b58       ?SetSource@Recordset21@@QAEXPBD@Z 00443b58 f   msado15.obj
 0001:00042b96       ?GetSource@Recordset21@@QAE?AUtagVARIANT@@XZ 00443b96 f   msado15.obj
 0001:00042bfb       ?AddNew@Recordset21@@QAEXABUtagVARIANT@@0@Z 00443bfb f   msado15.obj
 0001:00042c3d       ?CancelUpdate@Recordset21@@QAEXXZ 00443c3d f   msado15.obj
 0001:00042c72       ?Close@Recordset21@@QAEXXZ 00443c72 f   msado15.obj
 0001:00042ca7       ?Delete@Recordset21@@QAEXJ@Z 00443ca7 f   msado15.obj
 0001:00042ce5       ?GetRows@Recordset21@@QAE?AUtagVARIANT@@JABU2@0@Z 00443ce5 f   msado15.obj
 0001:00042d59       ?Move@Recordset21@@QAEXJABUtagVARIANT@@@Z 00443d59 f   msado15.obj
 0001:00042d9b       ?MoveNext@Recordset21@@QAEXXZ 00443d9b f   msado15.obj
 0001:00042dd0       ?MovePrevious@Recordset21@@QAEXXZ 00443dd0 f   msado15.obj
 0001:00042e05       ?MoveFirst@Recordset21@@QAEXXZ 00443e05 f   msado15.obj
 0001:00042e3a       ?MoveLast@Recordset21@@QAEXXZ 00443e3a f   msado15.obj
 0001:00042e6f       ?Open@Recordset21@@QAEXABUtagVARIANT@@0JJJ@Z 00443e6f f   msado15.obj
 0001:00042ebd       ?Requery@Recordset21@@QAEXJ@Z 00443ebd f   msado15.obj
 0001:00042efb       ?Update@Recordset21@@QAEXABUtagVARIANT@@0@Z 00443efb f   msado15.obj
 0001:00042f3d       ?GetAbsolutePage@Recordset21@@QAEJXZ 00443f3d f   msado15.obj
 0001:00042f80       ?SetAbsolutePage@Recordset21@@QAEXJ@Z 00443f80 f   msado15.obj
 0001:00042fbe       ?GetEditMode@Recordset21@@QAEJXZ 00443fbe f   msado15.obj
 0001:00043001       ?GetFilter@Recordset21@@QAE?AUtagVARIANT@@XZ 00444001 f   msado15.obj
 0001:00043066       ?SetFilter@Recordset21@@QAEXABUtagVARIANT@@@Z 00444066 f   msado15.obj
 0001:000430a4       ?GetPageCount@Recordset21@@QAEJXZ 004440a4 f   msado15.obj
 0001:000430e7       ?GetPageSize@Recordset21@@QAEJXZ 004440e7 f   msado15.obj
 0001:0004312a       ?SetPageSize@Recordset21@@QAEXJ@Z 0044412a f   msado15.obj
 0001:00043168       ?GetSort@Recordset21@@QAE?AVCString@@XZ 00444168 f   msado15.obj
 0001:00043209       ?SetSort@Recordset21@@QAEXPBD@Z 00444209 f   msado15.obj
 0001:00043247       ?GetStatus@Recordset21@@QAEJXZ 00444247 f   msado15.obj
 0001:0004328a       ?GetState@Recordset21@@QAEJXZ 0044428a f   msado15.obj
 0001:000432cd       ?UpdateBatch@Recordset21@@QAEXJ@Z 004442cd f   msado15.obj
 0001:0004330b       ?CancelBatch@Recordset21@@QAEXJ@Z 0044430b f   msado15.obj
 0001:00043349       ?GetCursorLocation@Recordset21@@QAEJXZ 00444349 f   msado15.obj
 0001:0004338c       ?SetCursorLocation@Recordset21@@QAEXJ@Z 0044438c f   msado15.obj
 0001:000433ca       ?NextRecordset@Recordset21@@QAEPAUIDispatch@@PAUtagVARIANT@@@Z 004443ca f   msado15.obj
 0001:00043416       ?Supports@Recordset21@@QAEHJ@Z 00444416 f   msado15.obj
 0001:00043462       ?GetMarshalOptions@Recordset21@@QAEJXZ 00444462 f   msado15.obj
 0001:000434a5       ?SetMarshalOptions@Recordset21@@QAEXJ@Z 004444a5 f   msado15.obj
 0001:000434e3       ?Find@Recordset21@@QAEXPBDJJABUtagVARIANT@@@Z 004444e3 f   msado15.obj
 0001:0004352d       ?Cancel@Recordset21@@QAEXXZ 0044452d f   msado15.obj
 0001:00043562       ?GetDataSource@Recordset21@@QAEPAUIUnknown@@XZ 00444562 f   msado15.obj
 0001:000435a5       ?SetRefDataSource@Recordset21@@QAEXPAUIUnknown@@@Z 004445a5 f   msado15.obj
 0001:000435e3       ?GetActiveCommand@Recordset21@@QAEPAUIDispatch@@XZ 004445e3 f   msado15.obj
 0001:00043626       ?SetStayInSync@Recordset21@@QAEXH@Z 00444626 f   msado15.obj
 0001:00043664       ?GetStayInSync@Recordset21@@QAEHXZ 00444664 f   msado15.obj
 0001:000436a7       ?GetString@Recordset21@@QAE?AVCString@@JJPBD00@Z 004446a7 f   msado15.obj
 0001:00043760       ?GetDataMember@Recordset21@@QAE?AVCString@@XZ 00444760 f   msado15.obj
 0001:00043801       ?SetDataMember@Recordset21@@QAEXPBD@Z 00444801 f   msado15.obj
 0001:0004383f       ?CompareBookmarks@Recordset21@@QAEJABUtagVARIANT@@0@Z 0044483f f   msado15.obj
 0001:0004388f       ?Clone@Recordset21@@QAEPAUIDispatch@@J@Z 0044488f f   msado15.obj
 0001:000438db       ?Resync@Recordset21@@QAEXJJ@Z 004448db f   msado15.obj
 0001:0004391d       ?Seek@Recordset21@@QAEXABUtagVARIANT@@J@Z 0044491d f   msado15.obj
 0001:0004395f       ?SetIndex@Recordset21@@QAEXPBD@Z 0044495f f   msado15.obj
 0001:0004399d       ?GetIndex@Recordset21@@QAE?AVCString@@XZ 0044499d f   msado15.obj
 0001:00043a3e       ?GetProperties@Recordset20@@QAEPAUIDispatch@@XZ 00444a3e f   msado15.obj
 0001:00043a81       ?GetAbsolutePosition@Recordset20@@QAEJXZ 00444a81 f   msado15.obj
 0001:00043ac4       ?SetAbsolutePosition@Recordset20@@QAEXJ@Z 00444ac4 f   msado15.obj
 0001:00043b02       ?SetRefActiveConnection@Recordset20@@QAEXPAUIDispatch@@@Z 00444b02 f   msado15.obj
 0001:00043b40       ?SetActiveConnection@Recordset20@@QAEXABUtagVARIANT@@@Z 00444b40 f   msado15.obj
 0001:00043b7e       ?GetActiveConnection@Recordset20@@QAE?AUtagVARIANT@@XZ 00444b7e f   msado15.obj
 0001:00043be3       ?GetBof@Recordset20@@QAEHXZ 00444be3 f   msado15.obj
 0001:00043c26       ?GetBookmark@Recordset20@@QAE?AUtagVARIANT@@XZ 00444c26 f   msado15.obj
 0001:00043c8b       ?SetBookmark@Recordset20@@QAEXABUtagVARIANT@@@Z 00444c8b f   msado15.obj
 0001:00043cc9       ?GetCacheSize@Recordset20@@QAEJXZ 00444cc9 f   msado15.obj
 0001:00043d0c       ?SetCacheSize@Recordset20@@QAEXJ@Z 00444d0c f   msado15.obj
 0001:00043d4a       ?GetCursorType@Recordset20@@QAEJXZ 00444d4a f   msado15.obj
 0001:00043d8d       ?SetCursorType@Recordset20@@QAEXJ@Z 00444d8d f   msado15.obj
 0001:00043dcb       ?GetEof@Recordset20@@QAEHXZ 00444dcb f   msado15.obj
 0001:00043e0e       ?GetFields@Recordset20@@QAEPAUIDispatch@@XZ 00444e0e f   msado15.obj
 0001:00043e4e       ?GetLockType@Recordset20@@QAEJXZ 00444e4e f   msado15.obj
 0001:00043e91       ?SetLockType@Recordset20@@QAEXJ@Z 00444e91 f   msado15.obj
 0001:00043ecf       ?GetMaxRecords@Recordset20@@QAEJXZ 00444ecf f   msado15.obj
 0001:00043f12       ?SetMaxRecords@Recordset20@@QAEXJ@Z 00444f12 f   msado15.obj
 0001:00043f50       ?GetRecordCount@Recordset20@@QAEJXZ 00444f50 f   msado15.obj
 0001:00043f93       ?SetRefSource@Recordset20@@QAEXPAUIDispatch@@@Z 00444f93 f   msado15.obj
 0001:00043fd1       ?SetSource@Recordset20@@QAEXPBD@Z 00444fd1 f   msado15.obj
 0001:0004400f       ?GetSource@Recordset20@@QAE?AUtagVARIANT@@XZ 0044500f f   msado15.obj
 0001:00044074       ?AddNew@Recordset20@@QAEXABUtagVARIANT@@0@Z 00445074 f   msado15.obj
 0001:000440b6       ?CancelUpdate@Recordset20@@QAEXXZ 004450b6 f   msado15.obj
 0001:000440eb       ?Close@Recordset20@@QAEXXZ 004450eb f   msado15.obj
 0001:00044120       ?Delete@Recordset20@@QAEXJ@Z 00445120 f   msado15.obj
 0001:0004415e       ?GetRows@Recordset20@@QAE?AUtagVARIANT@@JABU2@0@Z 0044515e f   msado15.obj
 0001:000441d2       ?Move@Recordset20@@QAEXJABUtagVARIANT@@@Z 004451d2 f   msado15.obj
 0001:00044214       ?MoveNext@Recordset20@@QAEXXZ 00445214 f   msado15.obj
 0001:00044249       ?MovePrevious@Recordset20@@QAEXXZ 00445249 f   msado15.obj
 0001:0004427e       ?MoveFirst@Recordset20@@QAEXXZ 0044527e f   msado15.obj
 0001:000442b3       ?MoveLast@Recordset20@@QAEXXZ 004452b3 f   msado15.obj
 0001:000442e8       ?Open@Recordset20@@QAEXABUtagVARIANT@@0JJJ@Z 004452e8 f   msado15.obj
 0001:00044336       ?Requery@Recordset20@@QAEXJ@Z 00445336 f   msado15.obj
 0001:00044374       ?Update@Recordset20@@QAEXABUtagVARIANT@@0@Z 00445374 f   msado15.obj
 0001:000443b6       ?GetAbsolutePage@Recordset20@@QAEJXZ 004453b6 f   msado15.obj
 0001:000443f9       ?SetAbsolutePage@Recordset20@@QAEXJ@Z 004453f9 f   msado15.obj
 0001:00044437       ?GetEditMode@Recordset20@@QAEJXZ 00445437 f   msado15.obj
 0001:0004447a       ?GetFilter@Recordset20@@QAE?AUtagVARIANT@@XZ 0044547a f   msado15.obj
 0001:000444df       ?SetFilter@Recordset20@@QAEXABUtagVARIANT@@@Z 004454df f   msado15.obj
 0001:0004451d       ?GetPageCount@Recordset20@@QAEJXZ 0044551d f   msado15.obj
 0001:00044560       ?GetPageSize@Recordset20@@QAEJXZ 00445560 f   msado15.obj
 0001:000445a3       ?SetPageSize@Recordset20@@QAEXJ@Z 004455a3 f   msado15.obj
 0001:000445e1       ?GetSort@Recordset20@@QAE?AVCString@@XZ 004455e1 f   msado15.obj
 0001:00044682       ?SetSort@Recordset20@@QAEXPBD@Z 00445682 f   msado15.obj
 0001:000446c0       ?GetStatus@Recordset20@@QAEJXZ 004456c0 f   msado15.obj
 0001:00044703       ?GetState@Recordset20@@QAEJXZ 00445703 f   msado15.obj
 0001:00044746       ?UpdateBatch@Recordset20@@QAEXJ@Z 00445746 f   msado15.obj
 0001:00044784       ?CancelBatch@Recordset20@@QAEXJ@Z 00445784 f   msado15.obj
 0001:000447c2       ?GetCursorLocation@Recordset20@@QAEJXZ 004457c2 f   msado15.obj
 0001:00044805       ?SetCursorLocation@Recordset20@@QAEXJ@Z 00445805 f   msado15.obj
 0001:00044843       ?NextRecordset@Recordset20@@QAEPAUIDispatch@@PAUtagVARIANT@@@Z 00445843 f   msado15.obj
 0001:0004488f       ?Supports@Recordset20@@QAEHJ@Z 0044588f f   msado15.obj
 0001:000448db       ?GetMarshalOptions@Recordset20@@QAEJXZ 004458db f   msado15.obj
 0001:0004491e       ?SetMarshalOptions@Recordset20@@QAEXJ@Z 0044591e f   msado15.obj
 0001:0004495c       ?Find@Recordset20@@QAEXPBDJJABUtagVARIANT@@@Z 0044595c f   msado15.obj
 0001:000449a6       ?Cancel@Recordset20@@QAEXXZ 004459a6 f   msado15.obj
 0001:000449db       ?GetDataSource@Recordset20@@QAEPAUIUnknown@@XZ 004459db f   msado15.obj
 0001:00044a1e       ?SetRefDataSource@Recordset20@@QAEXPAUIUnknown@@@Z 00445a1e f   msado15.obj
 0001:00044a5c       ?GetActiveCommand@Recordset20@@QAEPAUIDispatch@@XZ 00445a5c f   msado15.obj
 0001:00044a9f       ?SetStayInSync@Recordset20@@QAEXH@Z 00445a9f f   msado15.obj
 0001:00044add       ?GetStayInSync@Recordset20@@QAEHXZ 00445add f   msado15.obj
 0001:00044b20       ?GetString@Recordset20@@QAE?AVCString@@JJPBD00@Z 00445b20 f   msado15.obj
 0001:00044bd9       ?GetDataMember@Recordset20@@QAE?AVCString@@XZ 00445bd9 f   msado15.obj
 0001:00044c7a       ?SetDataMember@Recordset20@@QAEXPBD@Z 00445c7a f   msado15.obj
 0001:00044cb8       ?CompareBookmarks@Recordset20@@QAEJABUtagVARIANT@@0@Z 00445cb8 f   msado15.obj
 0001:00044d08       ?Clone@Recordset20@@QAEPAUIDispatch@@J@Z 00445d08 f   msado15.obj
 0001:00044d54       ?Resync@Recordset20@@QAEXJJ@Z 00445d54 f   msado15.obj
 0001:00044d96       ?GetProperties@Recordset15@@QAEPAUIDispatch@@XZ 00445d96 f   msado15.obj
 0001:00044dd9       ?GetAbsolutePosition@Recordset15@@QAEJXZ 00445dd9 f   msado15.obj
 0001:00044e1c       ?SetAbsolutePosition@Recordset15@@QAEXJ@Z 00445e1c f   msado15.obj
 0001:00044e5a       ?SetRefActiveConnection@Recordset15@@QAEXPAUIDispatch@@@Z 00445e5a f   msado15.obj
 0001:00044e98       ?SetActiveConnection@Recordset15@@QAEXABUtagVARIANT@@@Z 00445e98 f   msado15.obj
 0001:00044ed6       ?GetActiveConnection@Recordset15@@QAE?AUtagVARIANT@@XZ 00445ed6 f   msado15.obj
 0001:00044f3b       ?GetBof@Recordset15@@QAEHXZ 00445f3b f   msado15.obj
 0001:00044f7e       ?GetBookmark@Recordset15@@QAE?AUtagVARIANT@@XZ 00445f7e f   msado15.obj
 0001:00044fe3       ?SetBookmark@Recordset15@@QAEXABUtagVARIANT@@@Z 00445fe3 f   msado15.obj
 0001:00045021       ?GetCacheSize@Recordset15@@QAEJXZ 00446021 f   msado15.obj
 0001:00045064       ?SetCacheSize@Recordset15@@QAEXJ@Z 00446064 f   msado15.obj
 0001:000450a2       ?GetCursorType@Recordset15@@QAEJXZ 004460a2 f   msado15.obj
 0001:000450e5       ?SetCursorType@Recordset15@@QAEXJ@Z 004460e5 f   msado15.obj
 0001:00045123       ?GetEof@Recordset15@@QAEHXZ 00446123 f   msado15.obj
 0001:00045166       ?GetFields@Recordset15@@QAEPAUIDispatch@@XZ 00446166 f   msado15.obj
 0001:000451a6       ?GetLockType@Recordset15@@QAEJXZ 004461a6 f   msado15.obj
 0001:000451e9       ?SetLockType@Recordset15@@QAEXJ@Z 004461e9 f   msado15.obj
 0001:00045227       ?GetMaxRecords@Recordset15@@QAEJXZ 00446227 f   msado15.obj
 0001:0004526a       ?SetMaxRecords@Recordset15@@QAEXJ@Z 0044626a f   msado15.obj
 0001:000452a8       ?GetRecordCount@Recordset15@@QAEJXZ 004462a8 f   msado15.obj
 0001:000452eb       ?SetRefSource@Recordset15@@QAEXPAUIDispatch@@@Z 004462eb f   msado15.obj
 0001:00045329       ?SetSource@Recordset15@@QAEXPBD@Z 00446329 f   msado15.obj
 0001:00045367       ?GetSource@Recordset15@@QAE?AUtagVARIANT@@XZ 00446367 f   msado15.obj
 0001:000453cc       ?AddNew@Recordset15@@QAEXABUtagVARIANT@@0@Z 004463cc f   msado15.obj
 0001:0004540e       ?CancelUpdate@Recordset15@@QAEXXZ 0044640e f   msado15.obj
 0001:00045443       ?Close@Recordset15@@QAEXXZ 00446443 f   msado15.obj
 0001:00045478       ?Delete@Recordset15@@QAEXJ@Z 00446478 f   msado15.obj
 0001:000454b6       ?GetRows@Recordset15@@QAE?AUtagVARIANT@@JABU2@0@Z 004464b6 f   msado15.obj
 0001:0004552a       ?Move@Recordset15@@QAEXJABUtagVARIANT@@@Z 0044652a f   msado15.obj
 0001:0004556c       ?MoveNext@Recordset15@@QAEXXZ 0044656c f   msado15.obj
 0001:000455a1       ?MovePrevious@Recordset15@@QAEXXZ 004465a1 f   msado15.obj
 0001:000455d6       ?MoveFirst@Recordset15@@QAEXXZ 004465d6 f   msado15.obj
 0001:0004560b       ?MoveLast@Recordset15@@QAEXXZ 0044660b f   msado15.obj
 0001:00045640       ?Open@Recordset15@@QAEXABUtagVARIANT@@0JJJ@Z 00446640 f   msado15.obj
 0001:0004568e       ?Requery@Recordset15@@QAEXJ@Z 0044668e f   msado15.obj
 0001:000456cc       ?Update@Recordset15@@QAEXABUtagVARIANT@@0@Z 004466cc f   msado15.obj
 0001:0004570e       ?GetAbsolutePage@Recordset15@@QAEJXZ 0044670e f   msado15.obj
 0001:00045751       ?SetAbsolutePage@Recordset15@@QAEXJ@Z 00446751 f   msado15.obj
 0001:0004578f       ?GetEditMode@Recordset15@@QAEJXZ 0044678f f   msado15.obj
 0001:000457d2       ?GetFilter@Recordset15@@QAE?AUtagVARIANT@@XZ 004467d2 f   msado15.obj
 0001:00045837       ?SetFilter@Recordset15@@QAEXABUtagVARIANT@@@Z 00446837 f   msado15.obj
 0001:00045875       ?GetPageCount@Recordset15@@QAEJXZ 00446875 f   msado15.obj
 0001:000458b8       ?GetPageSize@Recordset15@@QAEJXZ 004468b8 f   msado15.obj
 0001:000458fb       ?SetPageSize@Recordset15@@QAEXJ@Z 004468fb f   msado15.obj
 0001:00045939       ?GetSort@Recordset15@@QAE?AVCString@@XZ 00446939 f   msado15.obj
 0001:000459da       ?SetSort@Recordset15@@QAEXPBD@Z 004469da f   msado15.obj
 0001:00045a18       ?GetStatus@Recordset15@@QAEJXZ 00446a18 f   msado15.obj
 0001:00045a5b       ?GetState@Recordset15@@QAEJXZ 00446a5b f   msado15.obj
 0001:00045a9e       ?UpdateBatch@Recordset15@@QAEXJ@Z 00446a9e f   msado15.obj
 0001:00045adc       ?CancelBatch@Recordset15@@QAEXJ@Z 00446adc f   msado15.obj
 0001:00045b1a       ?GetCursorLocation@Recordset15@@QAEJXZ 00446b1a f   msado15.obj
 0001:00045b5d       ?SetCursorLocation@Recordset15@@QAEXJ@Z 00446b5d f   msado15.obj
 0001:00045b9b       ?NextRecordset@Recordset15@@QAEPAUIDispatch@@PAUtagVARIANT@@@Z 00446b9b f   msado15.obj
 0001:00045be7       ?Supports@Recordset15@@QAEHJ@Z 00446be7 f   msado15.obj
 0001:00045c33       ?GetMarshalOptions@Recordset15@@QAEJXZ 00446c33 f   msado15.obj
 0001:00045c76       ?SetMarshalOptions@Recordset15@@QAEXJ@Z 00446c76 f   msado15.obj
 0001:00045cb4       ?Find@Recordset15@@QAEXPBDJJABUtagVARIANT@@@Z 00446cb4 f   msado15.obj
 0001:00045cfe       ?GetCount@Fields@@QAEJXZ   00446cfe f   msado15.obj
 0001:00045d3e       ?Refresh@Fields@@QAEXXZ    00446d3e f   msado15.obj
 0001:00045d70       ?GetItem@Fields@@QAEPAUIDispatch@@ABUtagVARIANT@@@Z 00446d70 f   msado15.obj
 0001:00045db9       ?Delete@Fields@@QAEXABUtagVARIANT@@@Z 00446db9 f   msado15.obj
 0001:00045df4       ?Append@Fields@@QAEXPBDJJJABUtagVARIANT@@@Z 00446df4 f   msado15.obj
 0001:00045e3f       ?Update@Fields@@QAEXXZ     00446e3f f   msado15.obj
 0001:00045e71       ?Resync@Fields@@QAEXJ@Z    00446e71 f   msado15.obj
 0001:00045eac       ?CancelUpdate@Fields@@QAEXXZ 00446eac f   msado15.obj
 0001:00045ede       ?GetCount@Fields20@@QAEJXZ 00446ede f   msado15.obj
 0001:00045f1e       ?Refresh@Fields20@@QAEXXZ  00446f1e f   msado15.obj
 0001:00045f50       ?GetItem@Fields20@@QAEPAUIDispatch@@ABUtagVARIANT@@@Z 00446f50 f   msado15.obj
 0001:00045f99       ?Delete@Fields20@@QAEXABUtagVARIANT@@@Z 00446f99 f   msado15.obj
 0001:00045fd4       ?GetCount@Fields15@@QAEJXZ 00446fd4 f   msado15.obj
 0001:00046014       ?Refresh@Fields15@@QAEXXZ  00447014 f   msado15.obj
 0001:00046046       ?GetItem@Fields15@@QAEPAUIDispatch@@ABUtagVARIANT@@@Z 00447046 f   msado15.obj
 0001:0004608f       ?GetProperties@Field@@QAEPAUIDispatch@@XZ 0044708f f   msado15.obj
 0001:000460d2       ?GetActualSize@Field@@QAEJXZ 004470d2 f   msado15.obj
 0001:00046115       ?GetAttributes@Field@@QAEJXZ 00447115 f   msado15.obj
 0001:00046158       ?GetDefinedSize@Field@@QAEJXZ 00447158 f   msado15.obj
 0001:0004619b       ?GetName@Field@@QAE?AVCString@@XZ 0044719b f   msado15.obj
 0001:0004623c       ?GetType@Field@@QAEJXZ     0044723c f   msado15.obj
 0001:0004627f       ?GetValue@Field@@QAE?AUtagVARIANT@@XZ 0044727f f   msado15.obj
 0001:000462e1       ?SetValue@Field@@QAEXABUtagVARIANT@@@Z 004472e1 f   msado15.obj
 0001:0004631c       ?AppendChunk@Field@@QAEXABUtagVARIANT@@@Z 0044731c f   msado15.obj
 0001:0004635a       ?GetChunk@Field@@QAE?AUtagVARIANT@@J@Z 0044735a f   msado15.obj
 0001:000463c6       ?GetOriginalValue@Field@@QAE?AUtagVARIANT@@XZ 004473c6 f   msado15.obj
 0001:0004642b       ?GetUnderlyingValue@Field@@QAE?AUtagVARIANT@@XZ 0044742b f   msado15.obj
 0001:00046490       ?GetDataFormat@Field@@QAEPAUIUnknown@@XZ 00447490 f   msado15.obj
 0001:000464d3       ?SetRefDataFormat@Field@@QAEXPAUIUnknown@@@Z 004474d3 f   msado15.obj
 0001:00046511       ?SetType@Field@@QAEXJ@Z    00447511 f   msado15.obj
 0001:0004654f       ?SetDefinedSize@Field@@QAEXJ@Z 0044754f f   msado15.obj
 0001:0004658d       ?SetAttributes@Field@@QAEXJ@Z 0044758d f   msado15.obj
 0001:000465cb       ?GetStatus@Field@@QAEJXZ   004475cb f   msado15.obj
 0001:0004660e       ?GetProperties@Field20@@QAEPAUIDispatch@@XZ 0044760e f   msado15.obj
 0001:00046651       ?GetActualSize@Field20@@QAEJXZ 00447651 f   msado15.obj
 0001:00046694       ?GetAttributes@Field20@@QAEJXZ 00447694 f   msado15.obj
 0001:000466d7       ?GetDefinedSize@Field20@@QAEJXZ 004476d7 f   msado15.obj
 0001:0004671a       ?GetName@Field20@@QAE?AVCString@@XZ 0044771a f   msado15.obj
 0001:000467bb       ?GetType@Field20@@QAEJXZ   004477bb f   msado15.obj
 0001:000467fe       ?GetValue@Field20@@QAE?AUtagVARIANT@@XZ 004477fe f   msado15.obj
 0001:00046860       ?SetValue@Field20@@QAEXABUtagVARIANT@@@Z 00447860 f   msado15.obj
 0001:0004689b       ?AppendChunk@Field20@@QAEXABUtagVARIANT@@@Z 0044789b f   msado15.obj
 0001:000468d9       ?GetChunk@Field20@@QAE?AUtagVARIANT@@J@Z 004478d9 f   msado15.obj
 0001:00046945       ?GetOriginalValue@Field20@@QAE?AUtagVARIANT@@XZ 00447945 f   msado15.obj
 0001:000469aa       ?GetUnderlyingValue@Field20@@QAE?AUtagVARIANT@@XZ 004479aa f   msado15.obj
 0001:00046a0f       ?GetDataFormat@Field20@@QAEPAUIUnknown@@XZ 00447a0f f   msado15.obj
 0001:00046a52       ?SetRefDataFormat@Field20@@QAEXPAUIUnknown@@@Z 00447a52 f   msado15.obj
 0001:00046a90       ?SetType@Field20@@QAEXJ@Z  00447a90 f   msado15.obj
 0001:00046ace       ?SetDefinedSize@Field20@@QAEXJ@Z 00447ace f   msado15.obj
 0001:00046b0c       ?SetAttributes@Field20@@QAEXJ@Z 00447b0c f   msado15.obj
 0001:00046b4a       ?GetProperties@_Parameter@@QAEPAUIDispatch@@XZ 00447b4a f   msado15.obj
 0001:00046b8d       ?GetName@_Parameter@@QAE?AVCString@@XZ 00447b8d f   msado15.obj
 0001:00046c2b       ?SetName@_Parameter@@QAEXPBD@Z 00447c2b f   msado15.obj
 0001:00046c66       ?GetValue@_Parameter@@QAE?AUtagVARIANT@@XZ 00447c66 f   msado15.obj
 0001:00046cc8       ?SetValue@_Parameter@@QAEXABUtagVARIANT@@@Z 00447cc8 f   msado15.obj
 0001:00046d03       ?GetType@_Parameter@@QAEJXZ 00447d03 f   msado15.obj
 0001:00046d43       ?SetType@_Parameter@@QAEXJ@Z 00447d43 f   msado15.obj
 0001:00046d7e       ?SetDirection@_Parameter@@QAEXJ@Z 00447d7e f   msado15.obj
 0001:00046db9       ?GetDirection@_Parameter@@QAEJXZ 00447db9 f   msado15.obj
 0001:00046df9       ?SetSize@_Parameter@@QAEXJ@Z 00447df9 f   msado15.obj
 0001:00046e34       ?GetSize@_Parameter@@QAEJXZ 00447e34 f   msado15.obj
 0001:00046e74       ?AppendChunk@_Parameter@@QAEXABUtagVARIANT@@@Z 00447e74 f   msado15.obj
 0001:00046eaf       ?GetAttributes@_Parameter@@QAEJXZ 00447eaf f   msado15.obj
 0001:00046eef       ?SetAttributes@_Parameter@@QAEXJ@Z 00447eef f   msado15.obj
 0001:00046f2a       ?GetCount@Parameters@@QAEJXZ 00447f2a f   msado15.obj
 0001:00046f6a       ?Refresh@Parameters@@QAEXXZ 00447f6a f   msado15.obj
 0001:00046f9c       ?Append@Parameters@@QAEXPAUIDispatch@@@Z 00447f9c f   msado15.obj
 0001:00046fda       ?Delete@Parameters@@QAEXABUtagVARIANT@@@Z 00447fda f   msado15.obj
 0001:00047018       ?GetItem@Parameters@@QAEPAUIDispatch@@ABUtagVARIANT@@@Z 00448018 f   msado15.obj
 0001:00047061       ?GetProperties@Command25@@QAEPAUIDispatch@@XZ 00448061 f   msado15.obj
 0001:000470a4       ?GetActiveConnection@Command25@@QAEPAUIDispatch@@XZ 004480a4 f   msado15.obj
 0001:000470e4       ?SetRefActiveConnection@Command25@@QAEXPAUIDispatch@@@Z 004480e4 f   msado15.obj
 0001:0004711f       ?SetActiveConnection@Command25@@QAEXABUtagVARIANT@@@Z 0044811f f   msado15.obj
 0001:0004715a       ?GetCommandText@Command25@@QAE?AVCString@@XZ 0044815a f   msado15.obj
 0001:000471f8       ?SetCommandText@Command25@@QAEXPBD@Z 004481f8 f   msado15.obj
 0001:00047233       ?GetCommandTimeout@Command25@@QAEJXZ 00448233 f   msado15.obj
 0001:00047273       ?SetCommandTimeout@Command25@@QAEXJ@Z 00448273 f   msado15.obj
 0001:000472ae       ?GetPrepared@Command25@@QAEHXZ 004482ae f   msado15.obj
 0001:000472ee       ?SetPrepared@Command25@@QAEXH@Z 004482ee f   msado15.obj
 0001:00047329       ?Execute@Command25@@QAEPAUIDispatch@@PAUtagVARIANT@@0J@Z 00448329 f   msado15.obj
 0001:0004737a       ?CreateParameter@Command25@@QAEPAUIDispatch@@PBDJJJABUtagVARIANT@@@Z 0044837a f   msado15.obj
 0001:000473d3       ?GetParameters@Command25@@QAEPAUIDispatch@@XZ 004483d3 f   msado15.obj
 0001:00047413       ?SetCommandType@Command25@@QAEXJ@Z 00448413 f   msado15.obj
 0001:0004744e       ?GetCommandType@Command25@@QAEJXZ 0044844e f   msado15.obj
 0001:0004748e       ?GetName@Command25@@QAE?AVCString@@XZ 0044848e f   msado15.obj
 0001:0004752c       ?SetName@Command25@@QAEXPBD@Z 0044852c f   msado15.obj
 0001:00047567       ?GetState@Command25@@QAEJXZ 00448567 f   msado15.obj
 0001:000475a7       ?Cancel@Command25@@QAEXXZ  004485a7 f   msado15.obj
 0001:000475d9       ?GetProperties@_Command@@QAEPAUIDispatch@@XZ 004485d9 f   msado15.obj
 0001:0004761c       ?GetActiveConnection@_Command@@QAEPAUIDispatch@@XZ 0044861c f   msado15.obj
 0001:0004765c       ?SetRefActiveConnection@_Command@@QAEXPAUIDispatch@@@Z 0044865c f   msado15.obj
 0001:00047697       ?SetActiveConnection@_Command@@QAEXABUtagVARIANT@@@Z 00448697 f   msado15.obj
 0001:000476d2       ?GetCommandText@_Command@@QAE?AVCString@@XZ 004486d2 f   msado15.obj
 0001:00047770       ?SetCommandText@_Command@@QAEXPBD@Z 00448770 f   msado15.obj
 0001:000477ab       ?GetCommandTimeout@_Command@@QAEJXZ 004487ab f   msado15.obj
 0001:000477eb       ?SetCommandTimeout@_Command@@QAEXJ@Z 004487eb f   msado15.obj
 0001:00047826       ?GetPrepared@_Command@@QAEHXZ 00448826 f   msado15.obj
 0001:00047866       ?SetPrepared@_Command@@QAEXH@Z 00448866 f   msado15.obj
 0001:000478a1       ?Execute@_Command@@QAEPAUIDispatch@@PAUtagVARIANT@@0J@Z 004488a1 f   msado15.obj
 0001:000478f2       ?CreateParameter@_Command@@QAEPAUIDispatch@@PBDJJJABUtagVARIANT@@@Z 004488f2 f   msado15.obj
 0001:0004794b       ?GetParameters@_Command@@QAEPAUIDispatch@@XZ 0044894b f   msado15.obj
 0001:0004798b       ?SetCommandType@_Command@@QAEXJ@Z 0044898b f   msado15.obj
 0001:000479c6       ?GetCommandType@_Command@@QAEJXZ 004489c6 f   msado15.obj
 0001:00047a06       ?GetName@_Command@@QAE?AVCString@@XZ 00448a06 f   msado15.obj
 0001:00047aa4       ?SetName@_Command@@QAEXPBD@Z 00448aa4 f   msado15.obj
 0001:00047adf       ?GetState@_Command@@QAEJXZ 00448adf f   msado15.obj
 0001:00047b1f       ?Cancel@_Command@@QAEXXZ   00448b1f f   msado15.obj
 0001:00047b51       ?SetRefCommandStream@_Command@@QAEXPAUIUnknown@@@Z 00448b51 f   msado15.obj
 0001:00047b8c       ?GetCommandStream@_Command@@QAE?AUtagVARIANT@@XZ 00448b8c f   msado15.obj
 0001:00047bee       ?SetDialect@_Command@@QAEXPBD@Z 00448bee f   msado15.obj
 0001:00047c29       ?GetDialect@_Command@@QAE?AVCString@@XZ 00448c29 f   msado15.obj
 0001:00047cc7       ?SetNamedParameters@_Command@@QAEXH@Z 00448cc7 f   msado15.obj
 0001:00047d02       ?GetNamedParameters@_Command@@QAEHXZ 00448d02 f   msado15.obj
 0001:00047d42       ?GetProperties@_Record@@QAEPAUIDispatch@@XZ 00448d42 f   msado15.obj
 0001:00047d85       ?GetActiveConnection@_Record@@QAE?AUtagVARIANT@@XZ 00448d85 f   msado15.obj
 0001:00047de7       ?SetActiveConnection@_Record@@QAEXPBD@Z 00448de7 f   msado15.obj
 0001:00047e22       ?SetRefActiveConnection@_Record@@QAEXPAUIDispatch@@@Z 00448e22 f   msado15.obj
 0001:00047e5d       ?GetState@_Record@@QAEJXZ  00448e5d f   msado15.obj
 0001:00047e9d       ?GetSource@_Record@@QAE?AUtagVARIANT@@XZ 00448e9d f   msado15.obj
 0001:00047eff       ?SetSource@_Record@@QAEXPBD@Z 00448eff f   msado15.obj
 0001:00047f3a       ?SetRefSource@_Record@@QAEXPAUIDispatch@@@Z 00448f3a f   msado15.obj
 0001:00047f75       ?GetMode@_Record@@QAEJXZ   00448f75 f   msado15.obj
 0001:00047fb5       ?SetMode@_Record@@QAEXJ@Z  00448fb5 f   msado15.obj
 0001:00047ff0       ?GetParentURL@_Record@@QAE?AVCString@@XZ 00448ff0 f   msado15.obj
 0001:0004808e       ?MoveRecord@_Record@@QAE?AVCString@@PBD000JH@Z 0044908e f   msado15.obj
 0001:00048147       ?CopyRecord@_Record@@QAE?AVCString@@PBD000JH@Z 00449147 f   msado15.obj
 0001:00048200       ?DeleteRecord@_Record@@QAEXPBDH@Z 00449200 f   msado15.obj
 0001:0004823f       ?Open@_Record@@QAEXABUtagVARIANT@@0JJJPBD1@Z 0044923f f   msado15.obj
 0001:00048292       ?Close@_Record@@QAEXXZ     00449292 f   msado15.obj
 0001:000482c4       ?GetFields@_Record@@QAEPAUIDispatch@@XZ 004492c4 f   msado15.obj
 0001:00048304       ?GetRecordType@_Record@@QAEJXZ 00449304 f   msado15.obj
 0001:00048344       ?GetChildren@_Record@@QAEPAUIDispatch@@XZ 00449344 f   msado15.obj
 0001:00048384       ?Cancel@_Record@@QAEXXZ    00449384 f   msado15.obj
 0001:000483b6       ?GetSize@_Stream@@QAEJXZ   004493b6 f   msado15.obj
 0001:000483f6       ?GetEos@_Stream@@QAEHXZ    004493f6 f   msado15.obj
 0001:00048436       ?GetPosition@_Stream@@QAEJXZ 00449436 f   msado15.obj
 0001:00048476       ?SetPosition@_Stream@@QAEXJ@Z 00449476 f   msado15.obj
 0001:000484b1       ?GetType@_Stream@@QAEJXZ   004494b1 f   msado15.obj
 0001:000484f1       ?SetType@_Stream@@QAEXJ@Z  004494f1 f   msado15.obj
 0001:0004852c       ?GetLineSeparator@_Stream@@QAEJXZ 0044952c f   msado15.obj
 0001:0004856c       ?SetLineSeparator@_Stream@@QAEXJ@Z 0044956c f   msado15.obj
 0001:000485a7       ?GetState@_Stream@@QAEJXZ  004495a7 f   msado15.obj
 0001:000485e7       ?GetMode@_Stream@@QAEJXZ   004495e7 f   msado15.obj
 0001:00048627       ?SetMode@_Stream@@QAEXJ@Z  00449627 f   msado15.obj
 0001:00048662       ?GetCharset@_Stream@@QAE?AVCString@@XZ 00449662 f   msado15.obj
 0001:00048700       ?SetCharset@_Stream@@QAEXPBD@Z 00449700 f   msado15.obj
 0001:0004873b       ?Read@_Stream@@QAE?AUtagVARIANT@@J@Z 0044973b f   msado15.obj
 0001:000487a4       ?Open@_Stream@@QAEXABUtagVARIANT@@JJPBD1@Z 004497a4 f   msado15.obj
 0001:000487ef       ?Close@_Stream@@QAEXXZ     004497ef f   msado15.obj
 0001:00048821       ?SkipLine@_Stream@@QAEXXZ  00449821 f   msado15.obj
 0001:00048853       ?Write@_Stream@@QAEXABUtagVARIANT@@@Z 00449853 f   msado15.obj
 0001:0004888e       ?SetEOS@_Stream@@QAEXXZ    0044988e f   msado15.obj
 0001:000488c0       ?CopyTo@_Stream@@QAEXPAUIDispatch@@J@Z 004498c0 f   msado15.obj
 0001:000488ff       ?Flush@_Stream@@QAEXXZ     004498ff f   msado15.obj
 0001:00048931       ?SaveToFile@_Stream@@QAEXPBDJ@Z 00449931 f   msado15.obj
 0001:00048970       ?LoadFromFile@_Stream@@QAEXPBD@Z 00449970 f   msado15.obj
 0001:000489ab       ?ReadText@_Stream@@QAE?AVCString@@J@Z 004499ab f   msado15.obj
 0001:00048a51       ?WriteText@_Stream@@QAEXPBDJ@Z 00449a51 f   msado15.obj
 0001:00048a90       ?Cancel@_Stream@@QAEXXZ    00449a90 f   msado15.obj
 0001:00048ac2       ?GetProperties@Field15@@QAEPAUIDispatch@@XZ 00449ac2 f   msado15.obj
 0001:00048b05       ?GetActualSize@Field15@@QAEJXZ 00449b05 f   msado15.obj
 0001:00048b48       ?GetAttributes@Field15@@QAEJXZ 00449b48 f   msado15.obj
 0001:00048b8b       ?GetDefinedSize@Field15@@QAEJXZ 00449b8b f   msado15.obj
 0001:00048bce       ?GetName@Field15@@QAE?AVCString@@XZ 00449bce f   msado15.obj
 0001:00048c6f       ?GetType@Field15@@QAEJXZ   00449c6f f   msado15.obj
 0001:00048cb2       ?GetValue@Field15@@QAE?AUtagVARIANT@@XZ 00449cb2 f   msado15.obj
 0001:00048d14       ?SetValue@Field15@@QAEXABUtagVARIANT@@@Z 00449d14 f   msado15.obj
 0001:00048d4f       ?AppendChunk@Field15@@QAEXABUtagVARIANT@@@Z 00449d4f f   msado15.obj
 0001:00048d8d       ?GetChunk@Field15@@QAE?AUtagVARIANT@@J@Z 00449d8d f   msado15.obj
 0001:00048df9       ?GetOriginalValue@Field15@@QAE?AUtagVARIANT@@XZ 00449df9 f   msado15.obj
 0001:00048e5e       ?GetUnderlyingValue@Field15@@QAE?AUtagVARIANT@@XZ 00449e5e f   msado15.obj
 0001:00048ed0       ??0NewCrop@@QAE@PAVCWnd@@@Z 00449ed0 f   NewCrop.obj
 0001:00049113       ?DoDataExchange@NewCrop@@MAEXPAVCDataExchange@@@Z 0044a113 f   NewCrop.obj
 0001:000493eb       ?GetMessageMap@NewCrop@@MBEPBUAFX_MSGMAP@@XZ 0044a3eb f   NewCrop.obj
 0001:00049402       ?OnSelchangeSelectCrop@NewCrop@@IAEXXZ 0044a402 f   NewCrop.obj
 0001:000498e7       ?OnRadio1@NewCrop@@IAEXXZ  0044a8e7 f   NewCrop.obj
 0001:00049c43       ?OnRadio2@NewCrop@@IAEXXZ  0044ac43 f   NewCrop.obj
 0001:00049ddb       ?OnInitDialog@NewCrop@@MAEHXZ 0044addb f   NewCrop.obj
 0001:00049e15       ?SetPlantList@NewCrop@@QAEHXZ 0044ae15 f   NewCrop.obj
 0001:0004a080       ?EraseSpace@@YAPADPAD@Z    0044b080 f   NewCrop.obj
 0001:0004a10a       ?OnOK@NewCrop@@MAEXXZ      0044b10a f   NewCrop.obj
 0001:0004ab75       ?FileCopyGrass@@YAHPAD0@Z  0044bb75 f   NewCrop.obj
 0001:0004ad23       ?OnKillfocusOptimumYield@NewCrop@@IAEXXZ 0044bd23 f   NewCrop.obj
 0001:0004ad7e       ?OnKillfocusGrainFraction@NewCrop@@IAEXXZ 0044bd7e f   NewCrop.obj
 0001:0004adfa       ?OnKillfocusShootFRaction@NewCrop@@IAEXXZ 0044bdfa f   NewCrop.obj
 0001:0004ae53       ?OnKillfocusShootCN@NewCrop@@IAEXXZ 0044be53 f   NewCrop.obj
 0001:0004ae77       ?OnKillfocusNfixation@NewCrop@@IAEXXZ 0044be77 f   NewCrop.obj
 0001:0004aee5       ?OnCheck@NewCrop@@IAEXXZ   0044bee5 f   NewCrop.obj
 0001:0004b176       ?OnKillfocusGrainCN@NewCrop@@IAEXXZ 0044c176 f   NewCrop.obj
 0001:0004b19a       ?OnKillfocusRootCN@NewCrop@@IAEXXZ 0044c19a f   NewCrop.obj
 0001:0004b1c0       ??_ENewCrop@@UAEPAXI@Z     0044c1c0 f i NewCrop.obj
 0001:0004b1c0       ??_GNewCrop@@UAEPAXI@Z     0044c1c0 f i NewCrop.obj
 0001:0004b200       ??0NewZealand@@QAE@PAVCWnd@@@Z 0044c200 f   NewZealand.obj
 0001:0004b273       ?DoDataExchange@NewZealand@@MAEXPAVCDataExchange@@@Z 0044c273 f   NewZealand.obj
 0001:0004b2b2       ?GetMessageMap@NewZealand@@MBEPBUAFX_MSGMAP@@XZ 0044c2b2 f   NewZealand.obj
 0001:0004b2c9       ?OnOK@NewZealand@@MAEXXZ   0044c2c9 f   NewZealand.obj
 0001:0004b5f0       ??_GNewZealand@@UAEPAXI@Z  0044c5f0 f i NewZealand.obj
 0001:0004b5f0       ??_ENewZealand@@UAEPAXI@Z  0044c5f0 f i NewZealand.obj
 0001:0004b630       ??1NewZealand@@UAE@XZ      0044c630 f i NewZealand.obj
 0001:0004b690       ??0NorthAmerica@@QAE@PAVCWnd@@@Z 0044c690 f   NorthAmerica.obj
 0001:0004b703       ?DoDataExchange@NorthAmerica@@MAEXPAVCDataExchange@@@Z 0044c703 f   NorthAmerica.obj
 0001:0004b742       ?GetMessageMap@NorthAmerica@@MBEPBUAFX_MSGMAP@@XZ 0044c742 f   NorthAmerica.obj
 0001:0004b759       ?OnSelchangeNorthAmericaCountry@NorthAmerica@@IAEXXZ 0044c759 f   NorthAmerica.obj
 0001:0004b828       ?OnOK@NorthAmerica@@MAEXXZ 0044c828 f   NorthAmerica.obj
 0001:0004c020       ??_GNorthAmerica@@UAEPAXI@Z 0044d020 f i NorthAmerica.obj
 0001:0004c020       ??_ENorthAmerica@@UAEPAXI@Z 0044d020 f i NorthAmerica.obj
 0001:0004c060       ??1NorthAmerica@@UAE@XZ    0044d060 f i NorthAmerica.obj
 0001:0004c0c0       ??0Oceania@@QAE@PAVCWnd@@@Z 0044d0c0 f   Oceania.obj
 0001:0004c133       ?DoDataExchange@Oceania@@MAEXPAVCDataExchange@@@Z 0044d133 f   Oceania.obj
 0001:0004c172       ?GetMessageMap@Oceania@@MBEPBUAFX_MSGMAP@@XZ 0044d172 f   Oceania.obj
 0001:0004c189       ?OnOK@Oceania@@MAEXXZ      0044d189 f   Oceania.obj
 0001:0004c1ad       ?OnSelchangeOceaniaCountry@Oceania@@IAEXXZ 0044d1ad f   Oceania.obj
 0001:0004c240       ??_GOceania@@UAEPAXI@Z     0044d240 f i Oceania.obj
 0001:0004c240       ??_EOceania@@UAEPAXI@Z     0044d240 f i Oceania.obj
 0001:0004c280       ??1Oceania@@UAE@XZ         0044d280 f i Oceania.obj
 0001:0004c2e0       ??0CountyCrops@@QAE@PAVCWnd@@@Z 0044d2e0 f   ountyCrops.obj
 0001:0004c498       ?DoDataExchange@CountyCrops@@MAEXPAVCDataExchange@@@Z 0044d498 f   ountyCrops.obj
 0001:0004c6b3       ?GetMessageMap@CountyCrops@@MBEPBUAFX_MSGMAP@@XZ 0044d6b3 f   ountyCrops.obj
 0001:0004c6ca       ?OnSiteView@CountyCrops@@IAEXXZ 0044d6ca f   ountyCrops.obj
 0001:0004c6ee       ?ShowCountyData@CountyCrops@@QAEXXZ 0044d6ee f   ountyCrops.obj
 0001:0004d37b       ?OnOK@CountyCrops@@MAEXXZ  0044e37b f   ountyCrops.obj
 0001:0004d71f       ?SaveDatatoFile@CountyCrops@@QAEXXZ 0044e71f f   ountyCrops.obj
 0001:0004f855       ?OptimumYield@CountyCrops@@QAEMH@Z 00450855 f   ountyCrops.obj
 0001:0004fb02       ?clay_texture@CountyCrops@@QAEHM@Z 00450b02 f   ountyCrops.obj
 0001:0004fc32       ?OnInitDialog@CountyCrops@@MAEHXZ 00450c32 f   ountyCrops.obj
 0001:0004fc70       ??_ECountyCrops@@UAEPAXI@Z 00450c70 f i ountyCrops.obj
 0001:0004fc70       ??_GCountyCrops@@UAEPAXI@Z 00450c70 f i ountyCrops.obj
 0001:0004fcb0       ??1CountyCrops@@UAE@XZ     00450cb0 f i ountyCrops.obj
 0001:0004fd30       ??0CountySave@@QAE@PAVCWnd@@@Z 00450d30 f   ountySave.obj
 0001:0004ff4c       ?DoDataExchange@CountySave@@MAEXPAVCDataExchange@@@Z 00450f4c f   ountySave.obj
 0001:00050283       ?GetMessageMap@CountySave@@MBEPBUAFX_MSGMAP@@XZ 00451283 f   ountySave.obj
 0001:0005029a       ?OnOK@CountySave@@MAEXXZ   0045129a f   ountySave.obj
 0001:00052ca1       ?FileCopy1@@YAHPAD0@Z      00453ca1 f   ountySave.obj
 0001:00052e50       ??_GCountySave@@UAEPAXI@Z  00453e50 f i ountySave.obj
 0001:00052e50       ??_ECountySave@@UAEPAXI@Z  00453e50 f i ountySave.obj
 0001:00052f46       ??0ParseData@@QAE@AAV?$basic_string@DU?$char_traits@D@std@@V?$allocator@D@2@@std@@@Z 00453f46 f   parse_data.obj
 0001:00052ff4       ?parse_data@ParseData@@QAE_NAAVDataSet@@@Z 00453ff4 f   parse_data.obj
 0001:00053640       ??Bios_base@std@@QBEPAXXZ  00454640 f i parse_data.obj
 0001:00053680       ??7ios_base@std@@QBE_NXZ   00454680 f i parse_data.obj
 0001:000536b0       ??_D?$basic_ifstream@DU?$char_traits@D@std@@@std@@QAEXXZ 004546b0 f i parse_data.obj
 0001:000536f0       ??Y?$basic_string@DU?$char_traits@D@std@@V?$allocator@D@2@@std@@QAEAAV01@ABV01@@Z 004546f0 f i parse_data.obj
 0001:00053720       ??1?$basic_ios@DU?$char_traits@D@std@@@std@@UAE@XZ 00454720 f i parse_data.obj
 0001:00053750       ?get@?$basic_istream@DU?$char_traits@D@std@@@std@@QAEAAV12@AAD@Z 00454750 f i parse_data.obj
 0001:000537c0       ?to_char_type@?$char_traits@D@std@@SADABH@Z 004547c0 f i parse_data.obj
 0001:000537d0       ?push_back@?$vector@NV?$allocator@N@std@@@std@@QAEXABN@Z 004547d0 f i parse_data.obj
 0001:00053810       ?pop_back@?$vector@NV?$allocator@N@std@@@std@@QAEXXZ 00454810 f i parse_data.obj
 0001:00053840       ?at@?$vector@VElkhornData@@V?$allocator@VElkhornData@@@std@@@std@@QAEAAVElkhornData@@I@Z 00454840 f i parse_data.obj
 0001:00053890       ??0?$basic_ifstream@DU?$char_traits@D@std@@@std@@QAE@PBDH@Z 00454890 f i parse_data.obj
 0001:00053980       ??1?$basic_istream@DU?$char_traits@D@std@@@std@@UAE@XZ 00454980 f i parse_data.obj
 0001:000539b0       ??1?$basic_ifstream@DU?$char_traits@D@std@@@std@@UAE@XZ 004549b0 f i parse_data.obj
 0001:00053a30       ?close@?$basic_ifstream@DU?$char_traits@D@std@@@std@@QAEXXZ 00454a30 f i parse_data.obj
 0001:00053a80       ??1?$basic_filebuf@DU?$char_traits@D@std@@@std@@UAE@XZ 00454a80 f i parse_data.obj
 0001:00053b40       ??1?$basic_streambuf@DU?$char_traits@D@std@@@std@@UAE@XZ 00454b40 f i parse_data.obj
 0001:00053b70       ?overflow@?$basic_streambuf@DU?$char_traits@D@std@@@std@@MAEHH@Z 00454b70 f i parse_data.obj
 0001:00053ba0       ?pbackfail@?$basic_streambuf@DU?$char_traits@D@std@@@std@@MAEHH@Z 00454ba0 f i parse_data.obj
 0001:00053bd0       ?showmanyc@?$basic_streambuf@DU?$char_traits@D@std@@@std@@MAEHXZ 00454bd0 f i parse_data.obj
 0001:00053bf0       ?underflow@?$basic_streambuf@DU?$char_traits@D@std@@@std@@MAEHXZ 00454bf0 f i parse_data.obj
 0001:00053c20       ?uflow@?$basic_streambuf@DU?$char_traits@D@std@@@std@@MAEHXZ 00454c20 f i parse_data.obj
 0001:00053cb0       ?xsgetn@?$basic_streambuf@DU?$char_traits@D@std@@@std@@MAEHPADH@Z 00454cb0 f i parse_data.obj
 0001:00053de0       ?xsputn@?$basic_streambuf@DU?$char_traits@D@std@@@std@@MAEHPBDH@Z 00454de0 f i parse_data.obj
 0001:00053f10       ?seekoff@?$basic_streambuf@DU?$char_traits@D@std@@@std@@MAE?AV?$fpos@H@2@JW4seekdir@ios_base@2@H@Z 00454f10 f i parse_data.obj
 0001:00053f60       ?seekpos@?$basic_streambuf@DU?$char_traits@D@std@@@std@@MAE?AV?$fpos@H@2@V32@H@Z 00454f60 f i parse_data.obj
 0001:00053fb0       ?setbuf@?$basic_streambuf@DU?$char_traits@D@std@@@std@@MAEPAV12@PADH@Z 00454fb0 f i parse_data.obj
 0001:00053fd0       ?sync@?$basic_streambuf@DU?$char_traits@D@std@@@std@@MAEHXZ 00454fd0 f i parse_data.obj
 0001:00053ff0       ?imbue@?$basic_streambuf@DU?$char_traits@D@std@@@std@@MAEXABVlocale@2@@Z 00454ff0 f i parse_data.obj
 0001:00054010       ?overflow@?$basic_filebuf@DU?$char_traits@D@std@@@std@@MAEHH@Z 00455010 f i parse_data.obj
 0001:00054240       ?not_eof@?$char_traits@D@std@@SAHABH@Z 00455240 f i parse_data.obj
 0001:00054280       ?_Fputc@std@@YA_NDPAU_iobuf@@@Z 00455280 f i parse_data.obj
 0001:000542b0       ?pbackfail@?$basic_filebuf@DU?$char_traits@D@std@@@std@@MAEHH@Z 004552b0 f i parse_data.obj
 0001:00054450       ?_Ungetc@std@@YA_NDPAU_iobuf@@@Z 00455450 f i parse_data.obj
 0001:00054480       ?underflow@?$basic_filebuf@DU?$char_traits@D@std@@@std@@MAEHXZ 00455480 f i parse_data.obj
 0001:00054500       ?uflow@?$basic_filebuf@DU?$char_traits@D@std@@@std@@MAEHXZ 00455500 f i parse_data.obj
 0001:000546c0       ?_Fgetc@std@@YA_NAADPAU_iobuf@@@Z 004556c0 f i parse_data.obj
 0001:00054700       ?seekoff@?$basic_filebuf@DU?$char_traits@D@std@@@std@@MAE?AV?$fpos@H@2@JW4seekdir@ios_base@2@H@Z 00455700 f i parse_data.obj
 0001:000547b0       ?seekpos@?$basic_filebuf@DU?$char_traits@D@std@@@std@@MAE?AV?$fpos@H@2@V32@H@Z 004557b0 f i parse_data.obj
 0001:000548c0       ?setbuf@?$basic_filebuf@DU?$char_traits@D@std@@@std@@MAEPAV?$basic_streambuf@DU?$char_traits@D@std@@@2@PADH@Z 004558c0 f i parse_data.obj
 0001:00054920       ?sync@?$basic_filebuf@DU?$char_traits@D@std@@@std@@MAEHXZ 00455920 f i parse_data.obj
 0001:00054980       ??_E?$basic_ios@DU?$char_traits@D@std@@@std@@UAEPAXI@Z 00455980 f i parse_data.obj
 0001:00054980       ??_G?$basic_ios@DU?$char_traits@D@std@@@std@@UAEPAXI@Z 00455980 f i parse_data.obj
 0001:000549c0       ??_E?$basic_istream@DU?$char_traits@D@std@@@std@@UAEPAXI@Z 004559c0 f i parse_data.obj
 0001:000549c0       ??_G?$basic_istream@DU?$char_traits@D@std@@@std@@UAEPAXI@Z 004559c0 f i parse_data.obj
 0001:00054a10       ??_E?$basic_streambuf@DU?$char_traits@D@std@@@std@@UAEPAXI@Z 00455a10 f i parse_data.obj
 0001:00054a10       ??_G?$basic_streambuf@DU?$char_traits@D@std@@@std@@UAEPAXI@Z 00455a10 f i parse_data.obj
 0001:00054a50       ??_G?$basic_ifstream@DU?$char_traits@D@std@@@std@@UAEPAXI@Z 00455a50 f i parse_data.obj
 0001:00054a50       ??_E?$basic_ifstream@DU?$char_traits@D@std@@@std@@UAEPAXI@Z 00455a50 f i parse_data.obj
 0001:00054aa0       ??_E?$basic_filebuf@DU?$char_traits@D@std@@@std@@UAEPAXI@Z 00455aa0 f i parse_data.obj
 0001:00054aa0       ??_G?$basic_filebuf@DU?$char_traits@D@std@@@std@@UAEPAXI@Z 00455aa0 f i parse_data.obj
 0001:00054ae0       ??_G?$basic_string@DU?$char_traits@D@std@@V?$allocator@D@2@@std@@QAEPAXI@Z 00455ae0 f i parse_data.obj
 0001:00054b20       ??_D?$basic_istream@DU?$char_traits@D@std@@@std@@QAEXXZ 00455b20 f i parse_data.obj
 0001:00054b60       ?append@?$basic_string@DU?$char_traits@D@std@@V?$allocator@D@2@@std@@QAEAAV12@ABV12@@Z 00455b60 f i parse_data.obj
 0001:00054ba0       ?begin@?$basic_string@DU?$char_traits@D@std@@V?$allocator@D@2@@std@@QAEPADXZ 00455ba0 f i parse_data.obj
 0001:00054bd0       ?end@?$basic_string@DU?$char_traits@D@std@@V?$allocator@D@2@@std@@QAEPADXZ 00455bd0 f i parse_data.obj
 0001:00054c10       ??0?$basic_ios@DU?$char_traits@D@std@@@std@@IAE@XZ 00455c10 f i parse_data.obj
 0001:00054c40       ??0ios_base@std@@IAE@XZ    00455c40 f i parse_data.obj
 0001:00054c80       ??0locale@std@@QAE@W4_Uninitialized@1@@Z 00455c80 f i parse_data.obj
 0001:00054ca0       ??_Eios_base@std@@UAEPAXI@Z 00455ca0 f i parse_data.obj
 0001:00054ca0       ??_Gios_base@std@@UAEPAXI@Z 00455ca0 f i parse_data.obj
 0001:00054ce0       ??0?$fpos@H@std@@QAE@J@Z   00455ce0 f i parse_data.obj
 0001:00054d50       ??0?$fpos@H@std@@QAE@H_J@Z 00455d50 f i parse_data.obj
 0001:00054d90       ?state@?$fpos@H@std@@QBEHXZ 00455d90 f i parse_data.obj
 0001:00054db0       ?get_fpos_t@?$fpos@H@std@@QBE_JXZ 00455db0 f i parse_data.obj
 0001:00054dd0       ??B?$fpos@H@std@@QBEJXZ    00455dd0 f i parse_data.obj
 0001:00054df0       ??0?$basic_istream@DU?$char_traits@D@std@@@std@@QAE@PAV?$basic_streambuf@DU?$char_traits@D@std@@@1@_N@Z 00455df0 f i parse_data.obj
 0001:00054eb0       ?get@?$basic_istream@DU?$char_traits@D@std@@@std@@QAEHXZ 00455eb0 f i parse_data.obj
 0001:00055000       ??0sentry@?$basic_istream@DU?$char_traits@D@std@@@std@@QAE@AAV12@_N@Z 00456000 f i parse_data.obj
 0001:00055040       ??Bsentry@?$basic_istream@DU?$char_traits@D@std@@@std@@QBE_NXZ 00456040 f i parse_data.obj
 0001:00055060       ?ipfx@?$basic_istream@DU?$char_traits@D@std@@@std@@QAE_N_N@Z 00456060 f i parse_data.obj
 0001:00055280       ?is@?$ctype@D@std@@QBE_NFD@Z 00456280 f i parse_data.obj
 0001:000552c0       ?sgetc@?$basic_streambuf@DU?$char_traits@D@std@@@std@@QAEHXZ 004562c0 f i parse_data.obj
 0001:00055340       ?snextc@?$basic_streambuf@DU?$char_traits@D@std@@@std@@QAEHXZ 00456340 f i parse_data.obj
 0001:000553b0       ?sbumpc@?$basic_streambuf@DU?$char_traits@D@std@@@std@@QAEHXZ 004563b0 f i parse_data.obj
 0001:00055430       ?eback@?$basic_streambuf@DU?$char_traits@D@std@@@std@@IBEPADXZ 00456430 f i parse_data.obj
 0001:00055450       ?gptr@?$basic_streambuf@DU?$char_traits@D@std@@@std@@IBEPADXZ 00456450 f i parse_data.obj
 0001:00055470       ?egptr@?$basic_streambuf@DU?$char_traits@D@std@@@std@@IBEPADXZ 00456470 f i parse_data.obj
 0001:000554a0       ?gbump@?$basic_streambuf@DU?$char_traits@D@std@@@std@@IAEXH@Z 004564a0 f i parse_data.obj
 0001:000554e0       ?_Gndec@?$basic_streambuf@DU?$char_traits@D@std@@@std@@IAEPADXZ 004564e0 f i parse_data.obj
 0001:00055520       ?_Gninc@?$basic_streambuf@DU?$char_traits@D@std@@@std@@IAEPADXZ 00456520 f i parse_data.obj
 0001:00055560       ?pbump@?$basic_streambuf@DU?$char_traits@D@std@@@std@@IAEXH@Z 00456560 f i parse_data.obj
 0001:000555a0       ?end@?$vector@NV?$allocator@N@std@@@std@@QAEPANXZ 004565a0 f i parse_data.obj
 0001:000555c0       ?insert@?$vector@NV?$allocator@N@std@@@std@@QAEPANPANABN@Z 004565c0 f i parse_data.obj
 0001:00055620       ?erase@?$vector@NV?$allocator@N@std@@@std@@QAEPANPAN@Z 00456620 f i parse_data.obj
 0001:00055690       ?_Xran@?$vector@VElkhornData@@V?$allocator@VElkhornData@@@std@@@std@@IBEXXZ 00456690 f i parse_data.obj
 0001:00055710       ??0logic_error@std@@QAE@ABV01@@Z 00456710 f i parse_data.obj
 0001:00055790       ?what@logic_error@std@@UBEPBDXZ 00456790 f i parse_data.obj
 0001:000557c0       ?_Doraise@logic_error@std@@MBEXXZ 004567c0 f i parse_data.obj
 0001:00055810       ??1logic_error@std@@UAE@XZ 00456810 f i parse_data.obj
 0001:00055880       ??_Elogic_error@std@@UAEPAXI@Z 00456880 f i parse_data.obj
 0001:00055880       ??_Glogic_error@std@@UAEPAXI@Z 00456880 f i parse_data.obj
 0001:000558c0       ??0out_of_range@std@@QAE@ABV?$basic_string@DU?$char_traits@D@std@@V?$allocator@D@2@@1@@Z 004568c0 f i parse_data.obj
 0001:00055900       ??0logic_error@std@@QAE@ABV?$basic_string@DU?$char_traits@D@std@@V?$allocator@D@2@@1@@Z 00456900 f i parse_data.obj
 0001:00055990       ??1out_of_range@std@@UAE@XZ 00456990 f i parse_data.obj
 0001:000559c0       ?_Doraise@out_of_range@std@@MBEXXZ 004569c0 f i parse_data.obj
 0001:00055a10       ??_Gout_of_range@std@@UAEPAXI@Z 00456a10 f i parse_data.obj
 0001:00055a10       ??_Eout_of_range@std@@UAEPAXI@Z 00456a10 f i parse_data.obj
 0001:00055a50       ??0out_of_range@std@@QAE@ABV01@@Z 00456a50 f i parse_data.obj
 0001:00055a90       ??0?$basic_filebuf@DU?$char_traits@D@std@@@std@@QAE@PAU_iobuf@@@Z 00456a90 f i parse_data.obj
 0001:00055b10       ??0locale@std@@QAE@XZ      00456b10 f i parse_data.obj
 0001:00055b60       ?open@?$basic_filebuf@DU?$char_traits@D@std@@@std@@QAEPAV12@PBDH@Z 00456b60 f i parse_data.obj
 0001:00055bd0       ?close@?$basic_filebuf@DU?$char_traits@D@std@@@std@@QAEPAV12@XZ 00456bd0 f i parse_data.obj
 0001:00055c20       ?in@?$codecvt@DDH@std@@QBEHAAHPBD1AAPBDPAD3AAPAD@Z 00456c20 f i parse_data.obj
 0001:00055c70       ?out@?$codecvt@DDH@std@@QBEHAAHPBD1AAPBDPAD3AAPAD@Z 00456c70 f i parse_data.obj
 0001:00055cc0       ?append@?$basic_string@DU?$char_traits@D@std@@V?$allocator@D@2@@std@@QAEAAV12@ABV12@II@Z 00456cc0 f i parse_data.obj
 0001:00055d90       ?_Freeze@?$basic_string@DU?$char_traits@D@std@@V?$allocator@D@2@@std@@AAEXXZ 00456d90 f i parse_data.obj
 0001:00055e20       ?_Psum@?$basic_string@DU?$char_traits@D@std@@V?$allocator@D@2@@std@@CAPADPADI@Z 00456e20 f i parse_data.obj
 0001:00055e50       ?init@?$basic_ios@DU?$char_traits@D@std@@@std@@IAEXPAV?$basic_streambuf@DU?$char_traits@D@std@@@2@_N@Z 00456e50 f i parse_data.obj
 0001:00055ed0       ??0?$basic_streambuf@DU?$char_traits@D@std@@@std@@IAE@XZ 00456ed0 f i parse_data.obj
 0001:00055f40       ?begin@?$vector@NV?$allocator@N@std@@@std@@QAEPANXZ 00456f40 f i parse_data.obj
 0001:00055f60       ?insert@?$vector@NV?$allocator@N@std@@@std@@QAEXPANIABN@Z 00456f60 f i parse_data.obj
 0001:000561a0       ?_Init@?$basic_filebuf@DU?$char_traits@D@std@@@std@@IAEXPAU_iobuf@@W4_Initfl@12@@Z 004571a0 f i parse_data.obj
 0001:000562a0       ?_Initcvt@?$basic_filebuf@DU?$char_traits@D@std@@@std@@IAEXXZ 004572a0 f i parse_data.obj
 0001:000563f0       ??4locale@std@@QAEAAV01@ABV01@@Z 004573f0 f i parse_data.obj
 0001:00056480       ?always_noconv@codecvt_base@std@@QBE_NXZ 00457480 f i parse_data.obj
 0001:000564c0       ?getloc@?$basic_streambuf@DU?$char_traits@D@std@@@std@@QAE?AVlocale@2@XZ 004574c0 f i parse_data.obj
 0001:00056510       ?_Init@?$basic_streambuf@DU?$char_traits@D@std@@@std@@IAEXXZ 00457510 f i parse_data.obj
 0001:00056590       ?_Init@?$basic_streambuf@DU?$char_traits@D@std@@@std@@IAEXPAPAD0PAH001@Z 00457590 f i parse_data.obj
 0001:000565e0       ?_Ufill@?$vector@NV?$allocator@N@std@@@std@@IAEXPANIABN@Z 004575e0 f i parse_data.obj
 0001:00056630       ?setg@?$basic_streambuf@DU?$char_traits@D@std@@@std@@IAEXPAD00@Z 00457630 f i parse_data.obj
 0001:00056670       ?setp@?$basic_streambuf@DU?$char_traits@D@std@@@std@@IAEXPAD0@Z 00457670 f i parse_data.obj
 0001:000566b0       ?use_facet@std@@YAABV?$ctype@D@1@ABVlocale@1@PBV21@_N@Z 004576b0 f i parse_data.obj
 0001:000567f0       ??0?$ctype@D@std@@QAE@PBF_NI@Z 004577f0 f i parse_data.obj
 0001:00056900       ??0ctype_base@std@@QAE@I@Z 00457900 f i parse_data.obj
 0001:00056940       ??_Gctype_base@std@@UAEPAXI@Z 00457940 f i parse_data.obj
 0001:00056940       ??_Ectype_base@std@@UAEPAXI@Z 00457940 f i parse_data.obj
 0001:00056980       ??1ctype_base@std@@UAE@XZ  00457980 f i parse_data.obj
 0001:000569b0       ?_Init@?$ctype@D@std@@IAEXABV_Locinfo@2@@Z 004579b0 f i parse_data.obj
 0001:00056a80       ?_Getctype@_Locinfo@std@@QBE?AU_Ctypevec@@XZ 00457a80 f i parse_data.obj
 0001:00056b00       ?_Term@?$ctype@D@std@@KAXXZ 00457b00 f i parse_data.obj
 0001:00056b20       ?do_tolower@?$ctype@D@std@@MBEDD@Z 00457b20 f i parse_data.obj
 0001:00056b60       ?do_tolower@?$ctype@D@std@@MBEPBDPADPBD@Z 00457b60 f i parse_data.obj
 0001:00056bc0       ?do_toupper@?$ctype@D@std@@MBEDD@Z 00457bc0 f i parse_data.obj
 0001:00056c00       ?do_toupper@?$ctype@D@std@@MBEPBDPADPBD@Z 00457c00 f i parse_data.obj
 0001:00056c60       ??_G?$ctype@D@std@@UAEPAXI@Z 00457c60 f i parse_data.obj
 0001:00056c60       ??_E?$ctype@D@std@@UAEPAXI@Z 00457c60 f i parse_data.obj
 0001:00056ca0       ??1?$ctype@D@std@@UAE@XZ   00457ca0 f i parse_data.obj
 0001:00056cf0       ?getline@std@@YAAAV?$basic_istream@DU?$char_traits@D@std@@@1@AAV21@AAV?$basic_string@DU?$char_traits@D@std@@V?$allocator@D@2@@1@@Z 00457cf0 f i parse_data.obj
 0001:00056d30       ??5std@@YAAAV?$basic_istream@DU?$char_traits@D@std@@@0@AAV10@AAV?$basic_string@DU?$char_traits@D@std@@V?$allocator@D@2@@0@@Z 00457d30 f i parse_data.obj
 0001:00056fd0       ?_Ungetc@std@@YA_NABDPAU_iobuf@@I@Z 00457fd0 f i parse_data.obj
 0001:00057060       ?copy@std@@YAPANPAN00@Z    00458060 f i parse_data.obj
 0001:000570a0       ?fill@std@@YAXPAN0ABN@Z    004580a0 f i parse_data.obj
 0001:000570d0       ?copy_backward@std@@YAPANPAN00@Z 004580d0 f i parse_data.obj
 0001:00057110       ?use_facet@std@@YAABV?$codecvt@DDH@1@ABVlocale@1@PBV21@_N@Z 00458110 f i parse_data.obj
 0001:00057250       ?_Addfac@std@@YA?AVlocale@1@V21@PAV?$codecvt@DDH@1@@Z 00458250 f i parse_data.obj
 0001:00057300       ?widen@?$basic_ios@DU?$char_traits@D@std@@@std@@QBEDD@Z 00458300 f i parse_data.obj
 0001:000573a0       ?widen@?$ctype@D@std@@QBEDD@Z 004583a0 f i parse_data.obj
 0001:000573c0       ??0?$codecvt@DDH@std@@QAE@I@Z 004583c0 f i parse_data.obj
 0001:00057470       ??0codecvt_base@std@@QAE@I@Z 00458470 f i parse_data.obj
 0001:000574b0       ?do_always_noconv@codecvt_base@std@@MBE_NXZ 004584b0 f i parse_data.obj
 0001:000574d0       ?do_max_length@codecvt_base@std@@MBEHXZ 004584d0 f i parse_data.obj
 0001:000574f0       ?do_encoding@codecvt_base@std@@MBEHXZ 004584f0 f i parse_data.obj
 0001:00057510       ??_Gcodecvt_base@std@@UAEPAXI@Z 00458510 f i parse_data.obj
 0001:00057510       ??_Ecodecvt_base@std@@UAEPAXI@Z 00458510 f i parse_data.obj
 0001:00057550       ??1codecvt_base@std@@UAE@XZ 00458550 f i parse_data.obj
 0001:00057580       ?do_in@?$codecvt@DDH@std@@MBEHAAHPBD1AAPBDPAD3AAPAD@Z 00458580 f i parse_data.obj
 0001:000575b0       ?do_out@?$codecvt@DDH@std@@MBEHAAHPBD1AAPBDPAD3AAPAD@Z 004585b0 f i parse_data.obj
 0001:000575e0       ?do_length@?$codecvt@DDH@std@@MBEHAAHPBD1I@Z 004585e0 f i parse_data.obj
 0001:00057620       ??_E?$codecvt@DDH@std@@UAEPAXI@Z 00458620 f i parse_data.obj
 0001:00057620       ??_G?$codecvt@DDH@std@@UAEPAXI@Z 00458620 f i parse_data.obj
 0001:00057660       ??1?$codecvt@DDH@std@@UAE@XZ 00458660 f i parse_data.obj
 0001:00057690       ?_Getcat@?$codecvt@DDH@std@@SAIXZ 00458690 f i parse_data.obj
 0001:000576a0       ?_Save@?$_Tidyfac@V?$ctype@D@std@@@std@@SAPAV?$ctype@D@2@PAV32@@Z 004586a0 f i parse_data.obj
 0001:00057730       ?_Save@?$_Tidyfac@V?$codecvt@DDH@std@@@std@@SAPAV?$codecvt@DDH@2@PAV32@@Z 00458730 f i parse_data.obj
 0001:000577c0       ?_Init@?$codecvt@DDH@std@@IAEXABV_Locinfo@2@@Z 004587c0 f i parse_data.obj
 0001:00057810       ?_Getcvt@_Locinfo@std@@QBE?AU_Cvtvec@@XZ 00458810 f i parse_data.obj
 0001:00057860       ?_Tidy@?$_Tidyfac@V?$ctype@D@std@@@std@@SAXXZ 00458860 f i parse_data.obj
 0001:00057910       ?_Tidy@?$_Tidyfac@V?$codecvt@DDH@std@@@std@@SAXXZ 00458910 f i parse_data.obj
 0001:000579c0       ?getline@std@@YAAAV?$basic_istream@DU?$char_traits@D@std@@@1@AAV21@AAV?$basic_string@DU?$char_traits@D@std@@V?$allocator@D@2@@1@D@Z 004589c0 f i parse_data.obj
 0001:00057bc0       ?eq@?$char_traits@D@std@@SA_NABD0@Z 00458bc0 f i parse_data.obj
 0001:00057be0       ?id@?$codecvt@DDH@std@@$D  00458be0 f i parse_data.obj
 0001:00057c10       ?id@?$codecvt@DDH@std@@$E  00458c10 f i parse_data.obj
 0001:00057c20       ??Y?$basic_string@DU?$char_traits@D@std@@V?$allocator@D@2@@std@@QAEAAV01@D@Z 00458c20 f i parse_data.obj
 0001:00057c50       ??0Region@@QAE@PAVCWnd@@@Z 00458c50 f   Region.obj
 0001:00057f09       ?DoDataExchange@Region@@MAEXPAVCDataExchange@@@Z 00458f09 f   Region.obj
 0001:0005828f       ?GetMessageMap@Region@@MBEPBUAFX_MSGMAP@@XZ 0045928f f   Region.obj
 0001:000582a6       ?OnSetActive@Region@@UAEHXZ 004592a6 f   Region.obj
 0001:000582ba       ?OnOK@Region@@MAEXXZ       004592ba f   Region.obj
 0001:00058a71       ?OnSelchangeDatabaseType@Region@@IAEXXZ 00459a71 f   Region.obj
 0001:00058aab       ?OnRadio3@Region@@IAEXXZ   00459aab f   Region.obj
 0001:00058b31       ?OnRadio6@Region@@IAEXXZ   00459b31 f   Region.obj
 0001:00058bb7       ?OnSetfocusRegionName@Region@@IAEXXZ 00459bb7 f   Region.obj
 0001:00058f12       ?OnRadio4@Region@@IAEXXZ   00459f12 f   Region.obj
 0001:00058f98       ?OnSelchangeMajorTarget@Region@@IAEXXZ 00459f98 f   Region.obj
 0001:00058fd2       ?OnSelchangeMidseasonDrainage@Region@@IAEXXZ 00459fd2 f   Region.obj
 0001:0005900f       ?OnSelchangeDailyRecord@Region@@IAEXXZ 0045a00f f   Region.obj
 0001:00059049       ?OnEurope@Region@@IAEXXZ   0045a049 f   Region.obj
 0001:000590cf       ?OnFarmFile@Region@@IAEXXZ 0045a0cf f   Region.obj
 0001:0005953f       ?OnShangrila@Region@@IAEXXZ 0045a53f f   Region.obj
 0001:000596bb       ?OnChangeStartYear@Region@@IAEXXZ 0045a6bb f   Region.obj
 0001:000596e1       ?OnSelectCrops@Region@@IAEXXZ 0045a6e1 f   Region.obj
 0001:00059767       ?OnRadio7@Region@@IAEXXZ   0045a767 f   Region.obj
 0001:000597ed       ?OnKillfocusSimuYears@Region@@IAEXXZ 0045a7ed f   Region.obj
 0001:0005a1ad       ?OnInitDialog@Region@@MAEHXZ 0045b1ad f   Region.obj
 0001:0005a613       ?OnFarmFile2@Region@@IAEXXZ 0045b613 f   Region.obj
 0001:0005a67b       ?Onyr1@Region@@IAEXXZ      0045b67b f   Region.obj
 0001:0005a6b3       ?Onyr2@Region@@IAEXXZ      0045b6b3 f   Region.obj
 0001:0005a6eb       ?Onyr3@Region@@IAEXXZ      0045b6eb f   Region.obj
 0001:0005a723       ?Onyr4@Region@@IAEXXZ      0045b723 f   Region.obj
 0001:0005a75b       ?Onyr5@Region@@IAEXXZ      0045b75b f   Region.obj
 0001:0005a793       ?Onyr6@Region@@IAEXXZ      0045b793 f   Region.obj
 0001:0005a7cb       ?Onyr7@Region@@IAEXXZ      0045b7cb f   Region.obj
 0001:0005a803       ?Onyr8@Region@@IAEXXZ      0045b803 f   Region.obj
 0001:0005a83b       ?Onyr9@Region@@IAEXXZ      0045b83b f   Region.obj
 0001:0005a873       ?Onyr10@Region@@IAEXXZ     0045b873 f   Region.obj
 0001:0005a8ab       ?Onyr11@Region@@IAEXXZ     0045b8ab f   Region.obj
 0001:0005a8e3       ?Onyr12@Region@@IAEXXZ     0045b8e3 f   Region.obj
 0001:0005a91b       ?Onyr13@Region@@IAEXXZ     0045b91b f   Region.obj
 0001:0005a953       ?Onyr14@Region@@IAEXXZ     0045b953 f   Region.obj
 0001:0005a98b       ?Onyr15@Region@@IAEXXZ     0045b98b f   Region.obj
 0001:0005a9c3       ?Onyr16@Region@@IAEXXZ     0045b9c3 f   Region.obj
 0001:0005a9fb       ?Onyr17@Region@@IAEXXZ     0045b9fb f   Region.obj
 0001:0005aa33       ?Onyr18@Region@@IAEXXZ     0045ba33 f   Region.obj
 0001:0005aa6b       ?Onyr19@Region@@IAEXXZ     0045ba6b f   Region.obj
 0001:0005aaa3       ?Onyr20@Region@@IAEXXZ     0045baa3 f   Region.obj
 0001:0005aadb       ?Onyr21@Region@@IAEXXZ     0045badb f   Region.obj
 0001:0005ab13       ?Onyr22@Region@@IAEXXZ     0045bb13 f   Region.obj
 0001:0005ab4b       ?Onyr23@Region@@IAEXXZ     0045bb4b f   Region.obj
 0001:0005ab83       ?Onyr24@Region@@IAEXXZ     0045bb83 f   Region.obj
 0001:0005abbb       ?Onyr25@Region@@IAEXXZ     0045bbbb f   Region.obj
 0001:0005abf3       ?Onyr26@Region@@IAEXXZ     0045bbf3 f   Region.obj
 0001:0005ac2b       ?Onyr27@Region@@IAEXXZ     0045bc2b f   Region.obj
 0001:0005ac63       ?Onyr28@Region@@IAEXXZ     0045bc63 f   Region.obj
 0001:0005ac9b       ?Onyr29@Region@@IAEXXZ     0045bc9b f   Region.obj
 0001:0005acd3       ?Onyr30@Region@@IAEXXZ     0045bcd3 f   Region.obj
 0001:0005ad0b       ?Onyr31@Region@@IAEXXZ     0045bd0b f   Region.obj
 0001:0005ad43       ?Onyr32@Region@@IAEXXZ     0045bd43 f   Region.obj
 0001:0005ad7b       ?Onyr33@Region@@IAEXXZ     0045bd7b f   Region.obj
 0001:0005adb3       ?Onyr34@Region@@IAEXXZ     0045bdb3 f   Region.obj
 0001:0005adeb       ?Onyr35@Region@@IAEXXZ     0045bdeb f   Region.obj
 0001:0005ae23       ?Onyr36@Region@@IAEXXZ     0045be23 f   Region.obj
 0001:0005ae5b       ?Onyr37@Region@@IAEXXZ     0045be5b f   Region.obj
 0001:0005ae93       ?Onyr38@Region@@IAEXXZ     0045be93 f   Region.obj
 0001:0005aecb       ?Onyr39@Region@@IAEXXZ     0045becb f   Region.obj
 0001:0005af03       ?Onyr40@Region@@IAEXXZ     0045bf03 f   Region.obj
 0001:0005af3b       ?www@@YAXH@Z               0045bf3b f   Region.obj
 0001:0005b00e       ?OnSelGisFile@Region@@IAEXXZ 0045c00e f   Region.obj
 0001:0005b5dd       ?Glean_StringR@@YAXPADHH0@Z 0045c5dd f   Region.obj
 0001:0005b678       ?Onconvert@Region@@IAEXXZ  0045c678 f   Region.obj
 0001:0005b68a       ?OnMapView@Region@@IAEXXZ  0045c68a f   Region.obj
 0001:0005ba05       ?OnSelectState@Region@@IAEXXZ 0045ca05 f   Region.obj
 0001:0005bb02       ?OnDblclkGisFileList@Region@@IAEXXZ 0045cb02 f   Region.obj
 0001:0005bbb0       ??_GRegion@@UAEPAXI@Z      0045cbb0 f i Region.obj
 0001:0005bbb0       ??_ERegion@@UAEPAXI@Z      0045cbb0 f i Region.obj
 0001:0005bbf0       ??1RegionSelectCrops@@UAE@XZ 0045cbf0 f i Region.obj
 0001:0005bc20       ??1RegionYear@@UAE@XZ      0045cc20 f i Region.obj
 0001:0005bc80       ?climate_files@dndc74@@QAEXPADMMMVCString@@MHPAM2@Z 0045cc80 f   region_clim.obj
 0001:0005cd02       ?climate_files_new@dndc74@@QAEXPAD0MMMVCString@@HM0@Z 0045dd02 f   region_clim.obj
 0001:0005d5c0       ??0region_ES@@QAE@PAVCWnd@@@Z 0045e5c0 f   region_ES.obj
 0001:0005d72f       ?DoDataExchange@region_ES@@MAEXPAVCDataExchange@@@Z 0045e72f f   region_ES.obj
 0001:0005d8d1       ?GetMessageMap@region_ES@@MBEPBUAFX_MSGMAP@@XZ 0045e8d1 f   region_ES.obj
 0001:0005d8e8       ?OnAccept@region_ES@@IAEXXZ 0045e8e8 f   region_ES.obj
 0001:0005dbec       ?OnFarmFile@region_ES@@IAEXXZ 0045ebec f   region_ES.obj
 0001:0005ddc7       ?OnKillfocusRegionName@region_ES@@IAEXXZ 0045edc7 f   region_ES.obj
 0001:0005dec3       ?create_input_files@dndc74@@QAEXPADHHHMMMMMMMMMH@Z 0045eec3 f   region_ES.obj
 0001:0005e08e       ?site_files_ES@dndc74@@QAEXPADMM0H@Z 0045f08e f   region_ES.obj
 0001:0005e30d       ?OnKillfocusScenarioName@region_ES@@IAEXXZ 0045f30d f   region_ES.obj
 0001:0005e410       ??_Gregion_ES@@UAEPAXI@Z   0045f410 f i region_ES.obj
 0001:0005e410       ??_Eregion_ES@@UAEPAXI@Z   0045f410 f i region_ES.obj
 0001:0005e450       ??1region_ES@@UAE@XZ       0045f450 f i region_ES.obj
 0001:0005e4f0       ?region_farm_files@dndc74@@QAEXHPADHHHHHH000MMMPAM1@Z 0045f4f0 f   region_farm.obj
 0001:000625c4       ?File_Copy@dndc74@@QAEHPAD0@Z 004635c4 f   region_farm.obj
 0001:00062780       ?Globe@dndc74@@QAEXPAVCGraphexDoc@@H@Z 00463780 f   region_Globe.obj
 0001:00064310       ?Shangrila@dndc74@@QAEXPAVCGraphexDoc@@H@Z 00465310 f   region_Shangrila.obj
 0001:00067fcf       ?RecordSummary@@YAXXZ      00468fcf f   region_Shangrila.obj
 0001:00068b50       ?site_files@dndc74@@QAEXPADMM00@Z 00469b50 f   region_site.obj
 0001:00068cd0       ?soil_files@dndc74@@QAEXHMMMMMMMMHHHMPADHMHPAMM@Z 00469cd0 f   region_soil.obj
 0001:0006a5d1       ?soil_files_new@dndc74@@QAEXHMMMMVCString@@H@Z 0046b5d1 f   region_soil.obj
 0001:0006c130       ?SocProfile@dndc74@@QAEXHM@Z 0046d130 f   region_soil.obj
 0001:0006c1e0       ??0RegionMap@@QAE@PAVCWnd@@@Z 0046d1e0 f   RegionMap.obj
 0001:0006c263       ?DoDataExchange@RegionMap@@MAEXPAVCDataExchange@@@Z 0046d263 f   RegionMap.obj
 0001:0006c2bc       ?GetMessageMap@RegionMap@@MBEPBUAFX_MSGMAP@@XZ 0046d2bc f   RegionMap.obj
 0001:0006c2d3       ?OnDrawMap@RegionMap@@IAEXXZ 0046d2d3 f   RegionMap.obj
 0001:0006ccf7       ?ReadGIS@RegionMap@@QAEXHHHPAD0@Z 0046dcf7 f   RegionMap.obj
 0001:0006e947       ?DrawPolygon@RegionMap@@QAEXPAD00000HHH@Z 0046f947 f   RegionMap.obj
 0001:000715ac       ?FileCopyRM@@YAHPAD0@Z     004725ac f   RegionMap.obj
 0001:0007175a       ?OnSelectOutputFile@RegionMap@@IAEXXZ 0047275a f   RegionMap.obj
 0001:00071c16       ?ReadOutput@RegionMap@@QAEXHH@Z 00472c16 f   RegionMap.obj
 0001:000723ae       ?Glean_String@@YAXPADHH0@Z 004733ae f   RegionMap.obj
 0001:00072450       ??_GRegionMap@@UAEPAXI@Z   00473450 f i RegionMap.obj
 0001:00072450       ??_ERegionMap@@UAEPAXI@Z   00473450 f i RegionMap.obj
 0001:00072490       ??1RegionMap@@UAE@XZ       00473490 f i RegionMap.obj
 0001:000724f0       ??0RegionSelectCrops@@QAE@PAVCWnd@@@Z 004734f0 f   RegionSelectCrops.obj
 0001:0007274c       ?DoDataExchange@RegionSelectCrops@@MAEXPAVCDataExchange@@@Z 0047374c f   RegionSelectCrops.obj
 0001:00072b6f       ?GetMessageMap@RegionSelectCrops@@MBEPBUAFX_MSGMAP@@XZ 00473b6f f   RegionSelectCrops.obj
 0001:00072b86       ?OnOK@RegionSelectCrops@@MAEXXZ 00473b86 f   RegionSelectCrops.obj
 0001:0007353b       ?OnCheck0@RegionSelectCrops@@IAEXXZ 0047453b f   RegionSelectCrops.obj
 0001:00073e70       ??_ERegionSelectCrops@@UAEPAXI@Z 00474e70 f i RegionSelectCrops.obj
 0001:00073e70       ??_GRegionSelectCrops@@UAEPAXI@Z 00474e70 f i RegionSelectCrops.obj
 0001:00073eb0       ??0RegionYear@@QAE@PAVCWnd@@@Z 00474eb0 f   RegionYear.obj
 0001:00073fe6       ?DoDataExchange@RegionYear@@MAEXPAVCDataExchange@@@Z 00474fe6 f   RegionYear.obj
 0001:00074188       ?GetMessageMap@RegionYear@@MBEPBUAFX_MSGMAP@@XZ 00475188 f   RegionYear.obj
 0001:0007419f       ?OnInitDialog@RegionYear@@MAEHXZ 0047519f f   RegionYear.obj
 0001:0007435b       ?OnOK@RegionYear@@MAEXXZ   0047535b f   RegionYear.obj
 0001:00074685       ?OnDataCopy@RegionYear@@IAEXXZ 00475685 f   RegionYear.obj
 0001:00074a10       ??_ERegionYear@@UAEPAXI@Z  00475a10 f i RegionYear.obj
 0001:00074a10       ??_GRegionYear@@UAEPAXI@Z  00475a10 f i RegionYear.obj
 0001:00074a50       ??0SelectCrop@@QAE@PAVCWnd@@@Z 00475a50 f   SelectCrop.obj
 0001:00074bb9       ?DoDataExchange@SelectCrop@@MAEXPAVCDataExchange@@@Z 00475bb9 f   SelectCrop.obj
 0001:00074ced       ?GetMessageMap@SelectCrop@@MBEPBUAFX_MSGMAP@@XZ 00475ced f   SelectCrop.obj
 0001:00074d04       ?OnSiteView@SelectCrop@@IAEXXZ 00475d04 f   SelectCrop.obj
 0001:00074d34       ?OnOK@SelectCrop@@MAEXXZ   00475d34 f   SelectCrop.obj
 0001:000750de       ?OnSelectIndexFile@SelectCrop@@IAEXXZ 004760de f   SelectCrop.obj
 0001:00075581       ?OnSelchangeCountyNames@SelectCrop@@IAEXXZ 00476581 f   SelectCrop.obj
 0001:000758b0       ?OnSelectSoilFile@SelectCrop@@IAEXXZ 004768b0 f   SelectCrop.obj
 0001:00075ac6       ?OnSelectCropFile@SelectCrop@@IAEXXZ 00476ac6 f   SelectCrop.obj
 0001:00075cdc       ?OnSelectClimFile@SelectCrop@@IAEXXZ 00476cdc f   SelectCrop.obj
 0001:00075ef2       ?OnInitDialog@SelectCrop@@MAEHXZ 00476ef2 f   SelectCrop.obj
 0001:00075f40       ??_ESelectCrop@@UAEPAXI@Z  00476f40 f i SelectCrop.obj
 0001:00075f40       ??_GSelectCrop@@UAEPAXI@Z  00476f40 f i SelectCrop.obj
 0001:00075f80       ??0SelectObsWT@@QAE@PAVCWnd@@@Z 00476f80 f   SelectObsWT.obj
 0001:00075ff3       ?DoDataExchange@SelectObsWT@@MAEXPAVCDataExchange@@@Z 00476ff3 f   SelectObsWT.obj
 0001:00076032       ?GetMessageMap@SelectObsWT@@MBEPBUAFX_MSGMAP@@XZ 00477032 f   SelectObsWT.obj
 0001:00076049       ?OnselectWTfile@SelectObsWT@@IAEXXZ 00477049 f   SelectObsWT.obj
 0001:000763e5       ?OnOK@SelectObsWT@@MAEXXZ  004773e5 f   SelectObsWT.obj
 0001:00076411       ?WT_table1@SelectObsWT@@QAEXXZ 00477411 f   SelectObsWT.obj
 0001:00076940       ??_ESelectObsWT@@UAEPAXI@Z 00477940 f i SelectObsWT.obj
 0001:00076940       ??_GSelectObsWT@@UAEPAXI@Z 00477940 f i SelectObsWT.obj
 0001:00076980       ??1SelectObsWT@@UAE@XZ     00477980 f i SelectObsWT.obj
 0001:000778e3       ?GetMessageMap@CLabelStatic@@MBEPBUAFX_MSGMAP@@XZ 004788e3 f   SelectRegionDlg.obj
 0001:000778fa       ?SetText@CLabelStatic@@QAEXVCString@@@Z 004788fa f   SelectRegionDlg.obj
 0001:000779d1       ?GetRect@CLabelStatic@@QAE?AVCRect@@XZ 004789d1 f   SelectRegionDlg.obj
 0001:00077a83       ?OnPaint@CLabelStatic@@IAEXXZ 00478a83 f   SelectRegionDlg.obj
 0001:00077b95       ??0CSelectRegionDlg@@QAE@PAVCWnd@@@Z 00478b95 f   SelectRegionDlg.obj
 0001:00077d90       ??1CSelectRegionDlg@@UAE@XZ 00478d90 f   SelectRegionDlg.obj
 0001:00077fbe       ?DoDataExchange@CSelectRegionDlg@@MAEXPAVCDataExchange@@@Z 00478fbe f   SelectRegionDlg.obj
 0001:00078044       ?GetMessageMap@CSelectRegionDlg@@MBEPBUAFX_MSGMAP@@XZ 00479044 f   SelectRegionDlg.obj
 0001:0007805b       ?OnInitDialog@CSelectRegionDlg@@MAEHXZ 0047905b f   SelectRegionDlg.obj
 0001:0007829f       ?SetLayerSelected@CSelectRegionDlg@@QAEXVCString@@0000@Z 0047929f f   SelectRegionDlg.obj
 0001:0007837c       ?AddLayer@CSelectRegionDlg@@QAEXVCString@@HK_NK@Z 0047937c f   SelectRegionDlg.obj
 0001:00078465       ?GetEventSinkMap@CSelectRegionDlg@@MBEPBUAFX_EVENTSINKMAP@@XZ 00479465 f   SelectRegionDlg.obj
 0001:0007847c       ?OnMouseMoveMap@CSelectRegionDlg@@IAEXFFJJ@Z 0047947c f   SelectRegionDlg.obj
 0001:000788fb       ?DrawSelection@CSelectRegionDlg@@IAEXXZ 004798fb f   SelectRegionDlg.obj
 0001:000789a6       ?OnMouseDownMap@CSelectRegionDlg@@IAEXFFJJ@Z 004799a6 f   SelectRegionDlg.obj
 0001:00078a62       ?OnMouseUpMap@CSelectRegionDlg@@IAEXFFJJ@Z 00479a62 f   SelectRegionDlg.obj
 0001:0007921a       ?OnZoomin@CSelectRegionDlg@@IAEXXZ 0047a21a f   SelectRegionDlg.obj
 0001:00079239       ?OnZoomout@CSelectRegionDlg@@IAEXXZ 0047a239 f   SelectRegionDlg.obj
 0001:00079304       ?OnPan@CSelectRegionDlg@@IAEXXZ 0047a304 f   SelectRegionDlg.obj
 0001:00079323       ?OnFullmap@CSelectRegionDlg@@IAEXXZ 0047a323 f   SelectRegionDlg.obj
 0001:000793b5       ?OnSetCursor@CSelectRegionDlg@@IAEHPAVCWnd@@II@Z 0047a3b5 f   SelectRegionDlg.obj
 0001:000794c3       ?OnAfterTrackingLayerDrawMap@CSelectRegionDlg@@IAEXJ@Z 0047a4c3 f   SelectRegionDlg.obj
 0001:000794e9       ?SetValueMapLayer@CSelectRegionDlg@@QAEXVCString@@0@Z 0047a4e9 f   SelectRegionDlg.obj
 0001:0007956c       ?ValueMapLayer@CSelectRegionDlg@@IAEXXZ 0047a56c f   SelectRegionDlg.obj
 0001:000798f0       ?OnPaint@CSelectRegionDlg@@IAEXXZ 0047a8f0 f   SelectRegionDlg.obj
 0001:0007992e       ?County_data@CSelectRegionDlg@@QAEXVCString@@H@Z 0047a92e f   SelectRegionDlg.obj
 0001:0007a2fb       ?OnInitDialog1@CSelectRegionDlg@@QAEHXZ 0047b2fb f   SelectRegionDlg.obj
 0001:0007a684       ?OnSelchangeWizardCrops@CSelectRegionDlg@@IAEXXZ 0047b684 f   SelectRegionDlg.obj
 0001:0007a6dd       ?OnOK@CSelectRegionDlg@@MAEXXZ 0047b6dd f   SelectRegionDlg.obj
 0001:0007a701       ?SaveRegionDatatoFile@CSelectRegionDlg@@QAEXXZ 0047b701 f   SelectRegionDlg.obj
 0001:0007bced       ?OptimumYield@CSelectRegionDlg@@QAEMH@Z 0047cced f   SelectRegionDlg.obj
 0001:0007bf9a       ?clay_texture@CSelectRegionDlg@@QAEHM@Z 0047cf9a f   SelectRegionDlg.obj
 0001:0007c0ca       ?OnLandCover@CSelectRegionDlg@@IAEXXZ 0047d0ca f   SelectRegionDlg.obj
 0001:0007c450       ?OnAfterLayerDrawMap@CSelectRegionDlg@@IAEXFHJ@Z 0047d450 f   SelectRegionDlg.obj
 0001:0007c464       ?OnBeforeTrackingLayerDrawMap@CSelectRegionDlg@@IAEXJ@Z 0047d464 f   SelectRegionDlg.obj
 0001:0007c478       ?OnBeforeLayerDrawMap@CSelectRegionDlg@@IAEXFJ@Z 0047d478 f   SelectRegionDlg.obj
 0001:0007c48c       ?OnSelectFarm@CSelectRegionDlg@@IAEXXZ 0047d48c f   SelectRegionDlg.obj
 0001:0007c4ab       ?ConvertClimateFile@@YA?AVCString@@PAD0@Z 0047d4ab f   SelectRegionDlg.obj
 0001:0007c6c5       ?Glean_StringM@@YAXPADHH0@Z 0047d6c5 f   SelectRegionDlg.obj
 0001:0007c770       ??0CMoRecordset@@QAE@XZ    0047d770 f i SelectRegionDlg.obj
 0001:0007c7a0       ??_ECSelectRegionDlg@@UAEPAXI@Z 0047d7a0 f i SelectRegionDlg.obj
 0001:0007c7a0       ??_GCSelectRegionDlg@@UAEPAXI@Z 0047d7a0 f i SelectRegionDlg.obj
 0001:0007c7e0       ??0CLabelStatic@@QAE@XZ    0047d7e0 f i SelectRegionDlg.obj
 0001:0007c850       ??1CLabelStatic@@UAE@XZ    0047d850 f i SelectRegionDlg.obj
 0001:0007c8b0       ??0CMoMap@@QAE@XZ          0047d8b0 f i SelectRegionDlg.obj
 0001:0007c8e0       ?Create@CMoMap@@UAEHPBD0KABUtagRECT@@PAVCWnd@@IPAUCCreateContext@@@Z 0047d8e0 f i SelectRegionDlg.obj
 0001:0007c930       ?GetClsid@CMoMap@@QAEABU_GUID@@XZ 0047d930 f i SelectRegionDlg.obj
 0001:0007c950       ??1CMoMap@@UAE@XZ          0047d950 f i SelectRegionDlg.obj
 0001:0007c980       ??0?$CTypedPtrArray@VCPtrArray@@PAULAYERINFO@@@@QAE@XZ 0047d980 f i SelectRegionDlg.obj
 0001:0007c9b0       ??1?$CTypedPtrArray@VCPtrArray@@PAULAYERINFO@@@@UAE@XZ 0047d9b0 f i SelectRegionDlg.obj
 0001:0007c9e0       ??1CMoRecordset@@QAE@XZ    0047d9e0 f i SelectRegionDlg.obj
 0001:0007ca10       ??_ECLabelStatic@@UAEPAXI@Z 0047da10 f i SelectRegionDlg.obj
 0001:0007ca10       ??_GCLabelStatic@@UAEPAXI@Z 0047da10 f i SelectRegionDlg.obj
 0001:0007ca50       ??_ECMoMap@@UAEPAXI@Z      0047da50 f i SelectRegionDlg.obj
 0001:0007ca50       ??_GCMoMap@@UAEPAXI@Z      0047da50 f i SelectRegionDlg.obj
 0001:0007ca90       ??_E?$CTypedPtrArray@VCPtrArray@@PAULAYERINFO@@@@UAEPAXI@Z 0047da90 f i SelectRegionDlg.obj
 0001:0007ca90       ??_G?$CTypedPtrArray@VCPtrArray@@PAULAYERINFO@@@@UAEPAXI@Z 0047da90 f i SelectRegionDlg.obj
 0001:0007cad0       ??_GLAYERINFO@@QAEPAXI@Z   0047dad0 f i SelectRegionDlg.obj
 0001:0007cb10       ??1LAYERINFO@@QAE@XZ       0047db10 f i SelectRegionDlg.obj
 0001:0007cb40       ??0CMoDataConnection@@QAE@XZ 0047db40 f i SelectRegionDlg.obj
 0001:0007cb70       ??0CMoMapLayer@@QAE@XZ     0047db70 f i SelectRegionDlg.obj
 0001:0007cba0       ??1CMoDataConnection@@QAE@XZ 0047dba0 f i SelectRegionDlg.obj
 0001:0007cbd0       ??1CMoMapLayer@@QAE@XZ     0047dbd0 f i SelectRegionDlg.obj
 0001:0007cc00       ??1CMoGeoDataset@@QAE@XZ   0047dc00 f i SelectRegionDlg.obj
 0001:0007cc30       ??1CMoSymbol@@QAE@XZ       0047dc30 f i SelectRegionDlg.obj
 0001:0007cc60       ??1CMoLayers@@QAE@XZ       0047dc60 f i SelectRegionDlg.obj
 0001:0007cc90       ??0LAYERINFO@@QAE@XZ       0047dc90 f i SelectRegionDlg.obj
 0001:0007ccc0       ??0CMoMapLayer@@QAE@PAUIDispatch@@@Z 0047dcc0 f i SelectRegionDlg.obj
 0001:0007ccf0       ??0CMoPoint@@QAE@XZ        0047dcf0 f i SelectRegionDlg.obj
 0001:0007cd20       ??1CMoPoint@@QAE@XZ        0047dd20 f i SelectRegionDlg.obj
 0001:0007cd50       ??4CMoMapLayer@@QAEAAV0@ABV0@@Z 0047dd50 f i SelectRegionDlg.obj
 0001:0007cd80       ??4CMoPoint@@QAEAAV0@ABV0@@Z 0047dd80 f i SelectRegionDlg.obj
 0001:0007cdb0       ??4CMoRecordset@@QAEAAV0@ABV0@@Z 0047ddb0 f i SelectRegionDlg.obj
 0001:0007cde0       ??1CMoFields@@QAE@XZ       0047dde0 f i SelectRegionDlg.obj
 0001:0007ce10       ??1CMoField@@QAE@XZ        0047de10 f i SelectRegionDlg.obj
 0001:0007ce40       ??0CMoSymbol@@QAE@XZ       0047de40 f i SelectRegionDlg.obj
 0001:0007ce70       ??1CMoRectangle@@QAE@XZ    0047de70 f i SelectRegionDlg.obj
 0001:0007cea0       ??1CMoTrackingLayer@@QAE@XZ 0047dea0 f i SelectRegionDlg.obj
 0001:0007ced0       ??0CMoRectangle@@QAE@XZ    0047ded0 f i SelectRegionDlg.obj
 0001:0007cf00       ??4CMoRectangle@@QAEAAV0@ABV0@@Z 0047df00 f i SelectRegionDlg.obj
 0001:0007cf30       ??0CMoValueMapRenderer@@QAE@XZ 0047df30 f i SelectRegionDlg.obj
 0001:0007cf60       ??1CMoValueMapRenderer@@QAE@XZ 0047df60 f i SelectRegionDlg.obj
 0001:0007cf90       ??0CMoClassBreaksRenderer@@QAE@XZ 0047df90 f i SelectRegionDlg.obj
 0001:0007cfc0       ??1CMoClassBreaksRenderer@@QAE@XZ 0047dfc0 f i SelectRegionDlg.obj
 0001:0007cff0       ?GetAt@?$CTypedPtrArray@VCPtrArray@@PAULAYERINFO@@@@QBEPAULAYERINFO@@H@Z 0047dff0 f i SelectRegionDlg.obj
 0001:0007d020       ?Add@?$CTypedPtrArray@VCPtrArray@@PAULAYERINFO@@@@QAEHPAULAYERINFO@@@Z 0047e020 f i SelectRegionDlg.obj
 0001:0007d050       ??0SelectShapeMap@@QAE@PAVCWnd@@@Z 0047e050 f   SelectShapeMap.obj
 0001:0007d0d0       ?DoDataExchange@SelectShapeMap@@MAEXPAVCDataExchange@@@Z 0047e0d0 f   SelectShapeMap.obj
 0001:0007d126       ?GetMessageMap@SelectShapeMap@@MBEPBUAFX_MSGMAP@@XZ 0047e126 f   SelectShapeMap.obj
 0001:0007d13d       ?OnSelectShapeFile@SelectShapeMap@@IAEXXZ 0047e13d f   SelectShapeMap.obj
 0001:0007d3c2       ?OnOK@SelectShapeMap@@MAEXXZ 0047e3c2 f   SelectShapeMap.obj
 0001:0007d510       ??_ESelectShapeMap@@UAEPAXI@Z 0047e510 f i SelectShapeMap.obj
 0001:0007d510       ??_GSelectShapeMap@@UAEPAXI@Z 0047e510 f i SelectShapeMap.obj
 0001:0007d550       ?CreateObject@SitePage1@@SGPAVCObject@@XZ 0047e550 f   SitePage1.obj
 0001:0007d5dd       ?GetRuntimeClass@SitePage1@@UBEPAUCRuntimeClass@@XZ 0047e5dd f   SitePage1.obj
 0001:0007d5f4       ??0SitePage1@@QAE@XZ       0047e5f4 f   SitePage1.obj
 0001:0007d773       ??1SitePage1@@UAE@XZ       0047e773 f   SitePage1.obj
 0001:0007d81e       ?DoDataExchange@SitePage1@@MAEXPAVCDataExchange@@@Z 0047e81e f   SitePage1.obj
 0001:0007da74       ?GetMessageMap@SitePage1@@MBEPBUAFX_MSGMAP@@XZ 0047ea74 f   SitePage1.obj
 0001:0007da8b       ?OnSetActive@SitePage1@@UAEHXZ 0047ea8b f   SitePage1.obj
 0001:0007dd1f       ?OnShowWindow@SitePage1@@IAEXHI@Z 0047ed1f f   SitePage1.obj
 0001:0007dd5d       ?OnSelClimateFile@SitePage1@@IAEXXZ 0047ed5d f   SitePage1.obj
 0001:0007dd8b       ?OnDblclkClimateFileList@SitePage1@@IAEXXZ 0047ed8b f   SitePage1.obj
 0001:0007de3a       ?OnNewsite@SitePage1@@IAEXXZ 0047ee3a f   SitePage1.obj
 0001:0007de81       ?OnOpensite@SitePage1@@IAEXXZ 0047ee81 f   SitePage1.obj
 0001:0007e043       ?OnSavesite@SitePage1@@IAEXXZ 0047f043 f   SitePage1.obj
 0001:0007e969       ?OnInitDialog@SitePage1@@MAEHXZ 0047f969 f   SitePage1.obj
 0001:0007e9a9       ?OnAcceptClimate@SitePage1@@IAEXXZ 0047f9a9 f   SitePage1.obj
 0001:0007e9cd       ?OnRButtonDown@SitePage1@@IAEXIVCPoint@@@Z 0047f9cd f   SitePage1.obj
 0001:0007e9ff       ?OnSiteRecover@SitePage1@@IAEXXZ 0047f9ff f   SitePage1.obj
 0001:0007ea25       ?OnMoveDown@SitePage1@@IAEXXZ 0047fa25 f   SitePage1.obj
 0001:0007ea49       ?OnMoveUp@SitePage1@@IAEXXZ 0047fa49 f   SitePage1.obj
 0001:0007ea6d       ?OnRecordDaily@SitePage1@@IAEXXZ 0047fa6d f   SitePage1.obj
 0001:0007ea7f       ?OnUse1File@SitePage1@@IAEXXZ 0047fa7f f   SitePage1.obj
 0001:0007ead7       ?OnSelLAIfile@SitePage1@@IAEXXZ 0047fad7 f   SitePage1.obj
 0001:0007ed2b       ?OnSelchangeMetYear@SitePage1@@IAEXXZ 0047fd2b f   SitePage1.obj
 0001:0007ee3d       ?get_defaults@SitePage1@@QAEXXZ 0047fe3d f   SitePage1.obj
 0001:0007eec1       ?OnDefaulClimate@SitePage1@@IAEXXZ 0047fec1 f   SitePage1.obj
 0001:0007ef57       ?OnDefault@SitePage1@@IAEXXZ 0047ff57 f   SitePage1.obj
 0001:0007f047       ?OnWaterYear@SitePage1@@IAEXXZ 00480047 f   SitePage1.obj
 0001:0007f0d3       ?OnKillfocusYears@SitePage1@@IAEXXZ 004800d3 f   SitePage1.obj
 0001:0007f21c       ?AcceptPage1@SitePage1@@QAEXXZ 0048021c f   SitePage1.obj
 0001:0007f88a       ?SelectClimFile@SitePage1@@QAEXXZ 0048088a f   SitePage1.obj
 0001:0007fb03       ?ClimMoveDown@SitePage1@@QAEXXZ 00480b03 f   SitePage1.obj
 0001:0007fc00       ?ClimMoveUp@SitePage1@@QAEXXZ 00480c00 f   SitePage1.obj
 0001:0007fcfd       ?OnCListFileName@SitePage1@@IAEXXZ 00480cfd f   SitePage1.obj
 0001:00080052       ?EraseSpaceB@@YAPADPAD@Z   00481052 f   SitePage1.obj
 0001:000800dc       ?OnCO2file@SitePage1@@IAEXXZ 004810dc f   SitePage1.obj
 0001:00080170       ??_ESitePage1@@UAEPAXI@Z   00481170 f i SitePage1.obj
 0001:00080170       ??_GSitePage1@@UAEPAXI@Z   00481170 f i SitePage1.obj
 0001:000801b0       ?CreateObject@SitePage10@@SGPAVCObject@@XZ 004811b0 f   SitePage10.obj
 0001:0008023d       ?GetRuntimeClass@SitePage10@@UBEPAUCRuntimeClass@@XZ 0048123d f   SitePage10.obj
 0001:00080254       ??0SitePage10@@QAE@XZ      00481254 f   SitePage10.obj
 0001:0008035c       ??1SitePage10@@UAE@XZ      0048135c f   SitePage10.obj
 0001:000803e8       ?DoDataExchange@SitePage10@@MAEXPAVCDataExchange@@@Z 004813e8 f   SitePage10.obj
 0001:0008052e       ?GetMessageMap@SitePage10@@MBEPBUAFX_MSGMAP@@XZ 0048152e f   SitePage10.obj
 0001:00080545       ?OnSetActive@SitePage10@@UAEHXZ 00481545 f   SitePage10.obj
 0001:000809b1       ?GetEventSinkMap@SitePage10@@MBEPBUAFX_EVENTSINKMAP@@XZ 004819b1 f   SitePage10.obj
 0001:000809c8       ?OnIrrOption0@SitePage10@@IAEXXZ 004819c8 f   SitePage10.obj
 0001:00080ba4       ?OnIrrOption1@SitePage10@@IAEXXZ 00481ba4 f   SitePage10.obj
 0001:00080d42       ?OnKillfocusirrigationN@SitePage10@@IAEXXZ 00481d42 f   SitePage10.obj
 0001:00080d54       ?OnKillfocusirrigationID@SitePage10@@IAEXXZ 00481d54 f   SitePage10.obj
 0001:00080d66       ?OnIrrAccept@SitePage10@@IAEXXZ 00481d66 f   SitePage10.obj
 0001:00080fcc       ?OnIrrLast@SitePage10@@IAEXXZ 00481fcc f   SitePage10.obj
 0001:0008111a       ?OnIrrNext@SitePage10@@IAEXXZ 0048211a f   SitePage10.obj
 0001:00081270       ?OnChangeIrrIndex@SitePage10@@IAEXXZ 00482270 f   SitePage10.obj
 0001:00081282       ?OnKillfocusirrigationMonth@SitePage10@@IAEXXZ 00482282 f   SitePage10.obj
 0001:000812a8       ?OnKillfocusirrigationDay@SitePage10@@IAEXXZ 004822a8 f   SitePage10.obj
 0001:000812ce       ?OnKillfocusirrigationAmount@SitePage10@@IAEXXZ 004822ce f   SitePage10.obj
 0001:000812f4       ?OnKillfocusirrigationpH@SitePage10@@IAEXXZ 004822f4 f   SitePage10.obj
 0001:0008131a       ?OnInitDialog@SitePage10@@MAEHXZ 0048231a f   SitePage10.obj
 0001:000813c1       ?demo@SitePage10@@QAEXXZ   004823c1 f   SitePage10.obj
 0001:000815d0       ??_ESitePage10@@UAEPAXI@Z  004825d0 f i SitePage10.obj
 0001:000815d0       ??_GSitePage10@@UAEPAXI@Z  004825d0 f i SitePage10.obj
 0001:00081610       ?CreateObject@SitePage11@@SGPAVCObject@@XZ 00482610 f   SitePage11.obj
 0001:0008169d       ?GetRuntimeClass@SitePage11@@UBEPAUCRuntimeClass@@XZ 0048269d f   SitePage11.obj
 0001:000816b4       ??0SitePage11@@QAE@XZ      004826b4 f   SitePage11.obj
 0001:000817f8       ??1SitePage11@@UAE@XZ      004827f8 f   SitePage11.obj
 0001:00081872       ?DoDataExchange@SitePage11@@MAEXPAVCDataExchange@@@Z 00482872 f   SitePage11.obj
 0001:00081ac3       ?GetMessageMap@SitePage11@@MBEPBUAFX_MSGMAP@@XZ 00482ac3 f   SitePage11.obj
 0001:00081ada       ?OnKillfocusGrazingN@SitePage11@@IAEXXZ 00482ada f   SitePage11.obj
 0001:00081aec       ?OnKillfocusGrazingID@SitePage11@@IAEXXZ 00482aec f   SitePage11.obj
 0001:00081afe       ?OnSetActive@SitePage11@@UAEHXZ 00482afe f   SitePage11.obj
 0001:00082163       ?OnGAccept@SitePage11@@IAEXXZ 00483163 f   SitePage11.obj
 0001:000825d5       ?OnGLast@SitePage11@@IAEXXZ 004835d5 f   SitePage11.obj
 0001:000827d3       ?OnGNext@SitePage11@@IAEXXZ 004837d3 f   SitePage11.obj
 0001:000829d9       ?OnKillfocusGSMonth@SitePage11@@IAEXXZ 004839d9 f   SitePage11.obj
 0001:000829ff       ?OnKillfocusGSDay@SitePage11@@IAEXXZ 004839ff f   SitePage11.obj
 0001:00082a25       ?OnKillfocusGEMonth@SitePage11@@IAEXXZ 00483a25 f   SitePage11.obj
 0001:00082a4b       ?OnKillfocusGEDay@SitePage11@@IAEXXZ 00483a4b f   SitePage11.obj
 0001:00082a71       ?GetEventSinkMap@SitePage11@@MBEPBUAFX_EVENTSINKMAP@@XZ 00483a71 f   SitePage11.obj
 0001:00082a88       ?OnKillfocusSheepHead@SitePage11@@IAEXXZ 00483a88 f   SitePage11.obj
 0001:00082aae       ?OnKillfocusHorseHead@SitePage11@@IAEXXZ 00483aae f   SitePage11.obj
 0001:00082ad4       ?OnKillfocusCattleHead@SitePage11@@IAEXXZ 00483ad4 f   SitePage11.obj
 0001:00082afa       ?OnKillfocusGrazingHour@SitePage11@@IAEXXZ 00483afa f   SitePage11.obj
 0001:00082b20       ?OnInitDialog@SitePage11@@MAEHXZ 00483b20 f   SitePage11.obj
 0001:00082c38       ?demo@SitePage11@@QAEXXZ   00483c38 f   SitePage11.obj
 0001:000830c0       ?OnCutLast@SitePage11@@IAEXXZ 004840c0 f   SitePage11.obj
 0001:000831e2       ?OnCutNext@SitePage11@@IAEXXZ 004841e2 f   SitePage11.obj
 0001:00083310       ??_ESitePage11@@UAEPAXI@Z  00484310 f i SitePage11.obj
 0001:00083310       ??_GSitePage11@@UAEPAXI@Z  00484310 f i SitePage11.obj
 0001:00083350       ?CreateObject@SitePage2@@SGPAVCObject@@XZ 00484350 f   SitePage2.obj
 0001:000833dd       ?GetRuntimeClass@SitePage2@@UBEPAUCRuntimeClass@@XZ 004843dd f   SitePage2.obj
 0001:000833f4       ??0SitePage2@@QAE@XZ       004843f4 f   SitePage2.obj
 0001:000836be       ??1SitePage2@@UAE@XZ       004846be f   SitePage2.obj
 0001:0008375f       ?DoDataExchange@SitePage2@@MAEXPAVCDataExchange@@@Z 0048475f f   SitePage2.obj
 0001:00083d7f       ?GetMessageMap@SitePage2@@MBEPBUAFX_MSGMAP@@XZ 00484d7f f   SitePage2.obj
 0001:00083d96       ?OnInitDialog@SitePage2@@MAEHXZ 00484d96 f   SitePage2.obj
 0001:00083e4e       ?OnSetActive@SitePage2@@UAEHXZ 00484e4e f   SitePage2.obj
 0001:000845b9       ?GetSoilParas@SitePage2@@QAEXXZ 004855b9 f   SitePage2.obj
 0001:00084797       ?OnSoilRecover@SitePage2@@IAEXXZ 00485797 f   SitePage2.obj
 0001:000847cc       ?OnSelchangeSoiltexture@SitePage2@@IAEXXZ 004857cc f   SitePage2.obj
 0001:000848b1       ?EditParameter@SitePage2@@QAEHXZ 004858b1 f   SitePage2.obj
 0001:00084952       ?OnSelchangeLanduse@SitePage2@@IAEXXZ 00485952 f   SitePage2.obj
 0001:00084a04       ?SetSoilOrganicPart@SitePage2@@QAEXH@Z 00485a04 f   SitePage2.obj
 0001:00084b53       ?OnKillfocusSoilDensity@SitePage2@@IAEXXZ 00485b53 f   SitePage2.obj
 0001:00084b65       ?OnKillfocusSoilClay@SitePage2@@IAEXXZ 00485b65 f   SitePage2.obj
 0001:00084b77       ?SetSoilDensity@SitePage2@@QAEHXZ 00485b77 f   SitePage2.obj
 0001:00084c56       ?OnKillfocusSoilOrganic@SitePage2@@IAEXXZ 00485c56 f   SitePage2.obj
 0001:00084e75       ?OnKillfocusSoilLitter@SitePage2@@IAEXXZ 00485e75 f   SitePage2.obj
 0001:00084f20       ?OnKillfocusSoilHumads@SitePage2@@IAEXXZ 00485f20 f   SitePage2.obj
 0001:00084fcb       ?OnKillfocusSoilHumus@SitePage2@@IAEXXZ 00485fcb f   SitePage2.obj
 0001:00085076       ?OnAcceptSoil@SitePage2@@IAEXXZ 00486076 f   SitePage2.obj
 0001:00085481       ?OnKillfocusSoilpH@SitePage2@@IAEXXZ 00486481 f   SitePage2.obj
 0001:00085493       ?OnKillfocusSoilNO3@SitePage2@@IAEXXZ 00486493 f   SitePage2.obj
 0001:000854b9       ?OnKillfocusSoilNH4@SitePage2@@IAEXXZ 004864b9 f   SitePage2.obj
 0001:000854df       ?OnKillfocusSoilTemp@SitePage2@@IAEXXZ 004864df f   SitePage2.obj
 0001:00085505       ?ChangeOthers@SitePage2@@QAEXXZ 00486505 f   SitePage2.obj
 0001:0008582e       ?OnSoilDefault@SitePage2@@IAEXXZ 0048682e f   SitePage2.obj
 0001:00085840       ?OnKillfocusFieldCapacity@SitePage2@@IAEXXZ 00486840 f   SitePage2.obj
 0001:00085852       ?OnKillfocusSoilWiltingPoint@SitePage2@@IAEXXZ 00486852 f   SitePage2.obj
 0001:00085864       ?OnSoilRetardation@SitePage2@@IAEXXZ 00486864 f   SitePage2.obj
 0001:00085876       ?OnSoilRetardation1@SitePage2@@IAEXXZ 00486876 f   SitePage2.obj
 0001:00085888       ?OnSetfocusSoiltexture@SitePage2@@IAEXXZ 00486888 f   SitePage2.obj
 0001:0008589a       ?OnSOMdefine@SitePage2@@IAEXXZ 0048689a f   SitePage2.obj
 0001:00085a92       ?OnSOMprofile@SitePage2@@IAEXXZ 00486a92 f   SitePage2.obj
 0001:00085b37       ?OnSoilbypassYes@SitePage2@@IAEXXZ 00486b37 f   SitePage2.obj
 0001:00085be6       ?OnSoilbypass@SitePage2@@IAEXXZ 00486be6 f   SitePage2.obj
 0001:00085c95       ?OnKillfocusBulkCN@SitePage2@@IAEXXZ 00486c95 f   SitePage2.obj
 0001:00085f90       ?OnWaterLoggingYes@SitePage2@@IAEXXZ 00486f90 f   SitePage2.obj
 0001:00086050       ?OnWaterLoggingNo@SitePage2@@IAEXXZ 00487050 f   SitePage2.obj
 0001:00086110       ?OnDCfactor@SitePage2@@IAEXXZ 00487110 f   SitePage2.obj
 0001:000861f0       ??_GSitePage2@@UAEPAXI@Z   004871f0 f i SitePage2.obj
 0001:000861f0       ??_ESitePage2@@UAEPAXI@Z   004871f0 f i SitePage2.obj
 0001:00086230       ?CreateObject@SitePage3@@SGPAVCObject@@XZ 00487230 f   SitePage3.obj
 0001:000862bd       ?GetRuntimeClass@SitePage3@@UBEPAUCRuntimeClass@@XZ 004872bd f   SitePage3.obj
 0001:000862d4       ??0SitePage3@@QAE@XZ       004872d4 f   SitePage3.obj
 0001:0008640d       ??1SitePage3@@UAE@XZ       0048740d f   SitePage3.obj
 0001:000864bd       ?DoDataExchange@SitePage3@@MAEXPAVCDataExchange@@@Z 004874bd f   SitePage3.obj
 0001:0008664a       ?GetMessageMap@SitePage3@@MBEPBUAFX_MSGMAP@@XZ 0048764a f   SitePage3.obj
 0001:00086661       ?OnSetActive@SitePage3@@UAEHXZ 00487661 f   SitePage3.obj
 0001:00086aed       ?OnInputCrop@SitePage3@@IAEXXZ 00487aed f   SitePage3.obj
 0001:00087762       ?SetCropTable@SitePage3@@QAEHH@Z 00488762 f   SitePage3.obj
 0001:00087778       ?OnKillfocusCycleYear@SitePage3@@IAEXXZ 00488778 f   SitePage3.obj
 0001:000877cb       ?OnLastRotation@SitePage3@@IAEXXZ 004887cb f   SitePage3.obj
 0001:00087aaa       ?OnLastRotation2@SitePage3@@IAEXXZ 00488aaa f   SitePage3.obj
 0001:00087b19       ?OnNextRotation@SitePage3@@IAEXXZ 00488b19 f   SitePage3.obj
 0001:00087e03       ?OnNextRotation2@SitePage3@@IAEXXZ 00488e03 f   SitePage3.obj
 0001:00087e6c       ?GetEventSinkMap@SitePage3@@MBEPBUAFX_EVENTSINKMAP@@XZ 00488e6c f   SitePage3.obj
 0001:00087e83       ?OnInitDialog@SitePage3@@MAEHXZ 00488e83 f   SitePage3.obj
 0001:00087f2a       ?OnKillfocusRotationYear@SitePage3@@IAEXXZ 00488f2a f   SitePage3.obj
 0001:00087fd7       ?demo@SitePage3@@QAEXXZ    00488fd7 f   SitePage3.obj
 0001:00088196       ?OnKillfocusRotationN@SitePage3@@IAEXXZ 00489196 f   SitePage3.obj
 0001:000882ad       ?Make0Files@SitePage3@@QAEXXZ 004892ad f   SitePage3.obj
 0001:00088c33       ?OnSetfocusRotationCycles@SitePage3@@IAEXXZ 00489c33 f   SitePage3.obj
 0001:00088c8e       ?OnKillfocusSystem@SitePage3@@IAEXXZ 00489c8e f   SitePage3.obj
 0001:00088ca0       ?OnSelchangeSystem@SitePage3@@IAEXXZ 00489ca0 f   SitePage3.obj
 0001:00088d8f       ?OnKillfocusSystemYears@SitePage3@@IAEXXZ 00489d8f f   SitePage3.obj
 0001:00088dd1       ?OnKillfocusOneCycleYears@SitePage3@@IAEXXZ 00489dd1 f   SitePage3.obj
 0001:00088e13       ?OnViewRotation@SitePage3@@IAEXXZ 00489e13 f   SitePage3.obj
 0001:00088e47       ?DrawYearScale@SitePage3@@QAEXXZ 00489e47 f   SitePage3.obj
 0001:00089293       ?DrawCycleCrops@SitePage3@@QAEXXZ 0048a293 f   SitePage3.obj
 0001:0008997d       ?ReadRotationCrops@SitePage3@@QAEXXZ 0048a97d f   SitePage3.obj
 0001:00089f68       ?DrawYearMark@SitePage3@@QAEXXZ 0048af68 f   SitePage3.obj
 0001:0008a240       ??_GSitePage3@@UAEPAXI@Z   0048b240 f i SitePage3.obj
 0001:0008a240       ??_ESitePage3@@UAEPAXI@Z   0048b240 f i SitePage3.obj
 0001:0008a280       ?CreateObject@SitePage4@@SGPAVCObject@@XZ 0048b280 f   SitePage4.obj
 0001:0008a30d       ?GetRuntimeClass@SitePage4@@UBEPAUCRuntimeClass@@XZ 0048b30d f   SitePage4.obj
 0001:0008a324       ??0SitePage4@@QAE@XZ       0048b324 f   SitePage4.obj
 0001:0008a538       ??1SitePage4@@UAE@XZ       0048b538 f   SitePage4.obj
 0001:0008a5b2       ?DoDataExchange@SitePage4@@MAEXPAVCDataExchange@@@Z 0048b5b2 f   SitePage4.obj
 0001:0008a8e9       ?GetMessageMap@SitePage4@@MBEPBUAFX_MSGMAP@@XZ 0048b8e9 f   SitePage4.obj
 0001:0008a900       ?OnKillfocusCropN@SitePage4@@IAEXXZ 0048b900 f   SitePage4.obj
 0001:0008a912       ?CheckCropN@SitePage4@@QAEHXZ 0048b912 f   SitePage4.obj
 0001:0008a929       ?CheckCropID@SitePage4@@QAEHXZ 0048b929 f   SitePage4.obj
 0001:0008a940       ?OnKillfocusCropHYear@SitePage4@@IAEXXZ 0048b940 f   SitePage4.obj
 0001:0008a966       ?OnKillfocusCropHMonth@SitePage4@@IAEXXZ 0048b966 f   SitePage4.obj
 0001:0008a9c6       ?OnKillfocusCropHDay@SitePage4@@IAEXXZ 0048b9c6 f   SitePage4.obj
 0001:0008a9ec       ?SetPlantList@SitePage4@@QAEHXZ 0048b9ec f   SitePage4.obj
 0001:0008abbf       ?OnSetActive@SitePage4@@UAEHXZ 0048bbbf f   SitePage4.obj
 0001:0008bcb9       ?GetEventSinkMap@SitePage4@@MBEPBUAFX_EVENTSINKMAP@@XZ 0048ccb9 f   SitePage4.obj
 0001:0008bcd0       ?OnCropNext@SitePage4@@IAEXXZ 0048ccd0 f   SitePage4.obj
 0001:0008c85a       ?OnCropLast@SitePage4@@IAEXXZ 0048d85a f   SitePage4.obj
 0001:0008d3e1       ?OnCropAccept@SitePage4@@IAEXXZ 0048e3e1 f   SitePage4.obj
 0001:0008f139       ?OnKillfocusCropType@SitePage4@@QAEXXZ 00490139 f   SitePage4.obj
 0001:0008f2bf       ?SetCropDefault@SitePage4@@QAEXPAVCropParameter@@@Z 004902bf f   SitePage4.obj
 0001:0008f533       ?OnKillfocusCropYield@SitePage4@@IAEXXZ 00490533 f   SitePage4.obj
 0001:0008f5f5       ?OnKillfocusCropPMonth@SitePage4@@IAEXXZ 004905f5 f   SitePage4.obj
 0001:0008f61b       ?OnKillfocusCropPDay@SitePage4@@IAEXXZ 0049061b f   SitePage4.obj
 0001:0008f641       ?OnKillfocusCropResidue@SitePage4@@IAEXXZ 00490641 f   SitePage4.obj
 0001:0008f667       ?OnInitDialog@SitePage4@@MAEHXZ 00490667 f   SitePage4.obj
 0001:0008f732       ?OnSelchangeCropType@SitePage4@@IAEXXZ 00490732 f   SitePage4.obj
 0001:0008ff3b       ?OnAskCartivar@SitePage4@@IAEXXZ 00490f3b f   SitePage4.obj
 0001:0008ff4d       ?OnKillfocusSeedDensity@SitePage4@@IAEXXZ 00490f4d f   SitePage4.obj
 0001:0008ff73       ?OnKillfocusPsnEfficiency@SitePage4@@IAEXXZ 00490f73 f   SitePage4.obj
 0001:0008ff99       ?OnKillfocusPsnMax@SitePage4@@IAEXXZ 00490f99 f   SitePage4.obj
 0001:0008ffbf       ?OnKillfocusGrowthVegetative@SitePage4@@IAEXXZ 00490fbf f   SitePage4.obj
 0001:0008ffe5       ?OnKillfocusGrowthReproductive@SitePage4@@IAEXXZ 00490fe5 f   SitePage4.obj
 0001:0009000b       ?OnCropModel@SitePage4@@IAEXXZ 0049100b f   SitePage4.obj
 0001:000900d6       ?OnRadio2@SitePage4@@IAEXXZ 004910d6 f   SitePage4.obj
 0001:000901a1       ?demo@SitePage4@@QAEXHH@Z  004911a1 f   SitePage4.obj
 0001:000905a3       ?OnKillfocusShootYield@SitePage4@@IAEXXZ 004915a3 f   SitePage4.obj
 0001:000905b5       ?ShootYield@SitePage4@@QAEMMH@Z 004915b5 f   SitePage4.obj
 0001:00090817       ?OnChangeCropN@SitePage4@@IAEXXZ 00491817 f   SitePage4.obj
 0001:00090836       ?OnCropParas@SitePage4@@IAEXXZ 00491836 f   SitePage4.obj
 0001:0009090a       ?OnKillfocusRootYield@SitePage4@@IAEXXZ 0049190a f   SitePage4.obj
 0001:0009091c       ?OnPerennialCrop@SitePage4@@IAEXXZ 0049191c f   SitePage4.obj
 0001:0009092e       ?OnKillfocusGrainFraction@SitePage4@@IAEXXZ 0049192e f   SitePage4.obj
 0001:00090b0e       ?OnKillfocusShootFRaction@SitePage4@@IAEXXZ 00491b0e f   SitePage4.obj
 0001:00090c80       ?TotalN@SitePage4@@QAEMXZ  00491c80 f   SitePage4.obj
 0001:00090d1e       ?OnKillfocusGrainCN@SitePage4@@IAEXXZ 00491d1e f   SitePage4.obj
 0001:00090d5f       ?OnKillfocusShootCN@SitePage4@@IAEXXZ 00491d5f f   SitePage4.obj
 0001:00090da0       ?OnKillfocusRootCN@SitePage4@@IAEXXZ 00491da0 f   SitePage4.obj
 0001:00090df0       ??_ESitePage4@@UAEPAXI@Z   00491df0 f i SitePage4.obj
 0001:00090df0       ??_GSitePage4@@UAEPAXI@Z   00491df0 f i SitePage4.obj
 0001:00090e30       ?CreateObject@SitePage5@@SGPAVCObject@@XZ 00491e30 f   SitePage5.obj
 0001:00090ebd       ?GetRuntimeClass@SitePage5@@UBEPAUCRuntimeClass@@XZ 00491ebd f   SitePage5.obj
 0001:00090ed4       ??0SitePage5@@QAE@XZ       00491ed4 f   SitePage5.obj
 0001:00090f89       ??1SitePage5@@UAE@XZ       00491f89 f   SitePage5.obj
 0001:00091003       ?DoDataExchange@SitePage5@@MAEXPAVCDataExchange@@@Z 00492003 f   SitePage5.obj
 0001:000910bb       ?GetMessageMap@SitePage5@@MBEPBUAFX_MSGMAP@@XZ 004920bb f   SitePage5.obj
 0001:000910d2       ?OnKillfocustillN@SitePage5@@IAEXXZ 004920d2 f   SitePage5.obj
 0001:000910e4       ?OnKillfocustillMonth@SitePage5@@IAEXXZ 004920e4 f   SitePage5.obj
 0001:000910f6       ?OnKillfocustillmethod@SitePage5@@IAEXXZ 004920f6 f   SitePage5.obj
 0001:00091108       ?OnKillfocustillID@SitePage5@@IAEXXZ 00492108 f   SitePage5.obj
 0001:0009111a       ?OnKillfocustillDay@SitePage5@@IAEXXZ 0049211a f   SitePage5.obj
 0001:0009112c       ?OnSetActive@SitePage5@@UAEHXZ 0049212c f   SitePage5.obj
 0001:00091414       ?OnTillAccept@SitePage5@@IAEXXZ 00492414 f   SitePage5.obj
 0001:00091635       ?GetEventSinkMap@SitePage5@@MBEPBUAFX_EVENTSINKMAP@@XZ 00492635 f   SitePage5.obj
 0001:0009164c       ?OnTillNext@SitePage5@@IAEXXZ 0049264c f   SitePage5.obj
 0001:0009175e       ?OnTillLast@SitePage5@@IAEXXZ 0049275e f   SitePage5.obj
 0001:00091894       ?OnInitDialog@SitePage5@@MAEHXZ 00492894 f   SitePage5.obj
 0001:00091931       ?demo@SitePage5@@QAEXXZ    00492931 f   SitePage5.obj
 0001:00091b00       ??_GSitePage5@@UAEPAXI@Z   00492b00 f i SitePage5.obj
 0001:00091b00       ??_ESitePage5@@UAEPAXI@Z   00492b00 f i SitePage5.obj
 0001:00091b40       ?CreateObject@SitePage6@@SGPAVCObject@@XZ 00492b40 f   SitePage6.obj
 0001:00091bcd       ?GetRuntimeClass@SitePage6@@UBEPAUCRuntimeClass@@XZ 00492bcd f   SitePage6.obj
 0001:00091be4       ??0SitePage6@@QAE@XZ       00492be4 f   SitePage6.obj
 0001:00091d69       ??1SitePage6@@UAE@XZ       00492d69 f   SitePage6.obj
 0001:00091de3       ?DoDataExchange@SitePage6@@MAEXPAVCDataExchange@@@Z 00492de3 f   SitePage6.obj
 0001:00092016       ?GetMessageMap@SitePage6@@MBEPBUAFX_MSGMAP@@XZ 00493016 f   SitePage6.obj
 0001:0009202d       ?OnSetActive@SitePage6@@UAEHXZ 0049302d f   SitePage6.obj
 0001:00092b09       ?OnFerAccept@SitePage6@@IAEXXZ 00493b09 f   SitePage6.obj
 0001:00092f47       ?OnFerLast@SitePage6@@IAEXXZ 00493f47 f   SitePage6.obj
 0001:0009324d       ?OnFerNext@SitePage6@@IAEXXZ 0049424d f   SitePage6.obj
 0001:0009355b       ?GetEventSinkMap@SitePage6@@MBEPBUAFX_EVENTSINKMAP@@XZ 0049455b f   SitePage6.obj
 0001:00093572       ?OnRadio1@SitePage6@@IAEXXZ 00494572 f   SitePage6.obj
 0001:000935ca       ?OnRadio2@SitePage6@@IAEXXZ 004945ca f   SitePage6.obj
 0001:000935ee       ?OnKillfocusFerMonth@SitePage6@@IAEXXZ 004945ee f   SitePage6.obj
 0001:00093600       ?OnKillfocusFerDay@SitePage6@@IAEXXZ 00494600 f   SitePage6.obj
 0001:00093612       ?OnKillfocusFerDepth@SitePage6@@IAEXXZ 00494612 f   SitePage6.obj
 0001:00093638       ?OnKillfocusFerNitrate@SitePage6@@IAEXXZ 00494638 f   SitePage6.obj
 0001:0009365e       ?OnKillfocusFerNH42HPO4@SitePage6@@IAEXXZ 0049465e f   SitePage6.obj
 0001:00093684       ?OnKillfocusFerNH42SO4@SitePage6@@IAEXXZ 00494684 f   SitePage6.obj
 0001:000936aa       ?OnKillfocusFerNH4NO3@SitePage6@@IAEXXZ 004946aa f   SitePage6.obj
 0001:000936d0       ?OnKillfocusFerUrea@SitePage6@@IAEXXZ 004946d0 f   SitePage6.obj
 0001:000936f6       ?OnKillfocusFerAbi@SitePage6@@IAEXXZ 004946f6 f   SitePage6.obj
 0001:0009371c       ?OnKillfocusFerAnh@SitePage6@@IAEXXZ 0049471c f   SitePage6.obj
 0001:00093742       ?OnInitDialog@SitePage6@@MAEHXZ 00494742 f   SitePage6.obj
 0001:00093810       ?demo@SitePage6@@QAEXXZ    00494810 f   SitePage6.obj
 0001:00093bfb       ?OnSelectFertigationFile@SitePage6@@IAEXXZ 00494bfb f   SitePage6.obj
 0001:00093e5e       ?OnFertigation@SitePage6@@IAEXXZ 00494e5e f   SitePage6.obj
 0001:00094301       ?OnFertEvent@SitePage6@@IAEXXZ 00495301 f   SitePage6.obj
 0001:000947a4       ?OnReleaseControl@SitePage6@@IAEXXZ 004957a4 f   SitePage6.obj
 0001:00094883       ?OnNitrificationInhibitor@SitePage6@@IAEXXZ 00495883 f   SitePage6.obj
 0001:000949c0       ??_ESitePage6@@UAEPAXI@Z   004959c0 f i SitePage6.obj
 0001:000949c0       ??_GSitePage6@@UAEPAXI@Z   004959c0 f i SitePage6.obj
 0001:00094a00       ?CreateObject@SitePage7@@SGPAVCObject@@XZ 00495a00 f   SitePage7.obj
 0001:00094a8d       ?GetRuntimeClass@SitePage7@@UBEPAUCRuntimeClass@@XZ 00495a8d f   SitePage7.obj
 0001:00094aa4       ??0SitePage7@@QAE@XZ       00495aa4 f   SitePage7.obj
 0001:00094b73       ??1SitePage7@@UAE@XZ       00495b73 f   SitePage7.obj
 0001:00094bed       ?DoDataExchange@SitePage7@@MAEXPAVCDataExchange@@@Z 00495bed f   SitePage7.obj
 0001:00094d45       ?GetMessageMap@SitePage7@@MBEPBUAFX_MSGMAP@@XZ 00495d45 f   SitePage7.obj
 0001:00094d5c       ?OnSetActive@SitePage7@@UAEHXZ 00495d5c f   SitePage7.obj
 0001:00095153       ?GetEventSinkMap@SitePage7@@MBEPBUAFX_EVENTSINKMAP@@XZ 00496153 f   SitePage7.obj
 0001:0009516a       ?OnManAccept@SitePage7@@IAEXXZ 0049616a f   SitePage7.obj
 0001:00095401       ?OnFerLast@SitePage7@@IAEXXZ 00496401 f   SitePage7.obj
 0001:000955a2       ?OnFerNext@SitePage7@@IAEXXZ 004965a2 f   SitePage7.obj
 0001:0009574b       ?OnKillfocusCombo1@SitePage7@@IAEXXZ 0049674b f   SitePage7.obj
 0001:000957e5       ?OnKillfocusManMonth@SitePage7@@IAEXXZ 004967e5 f   SitePage7.obj
 0001:000957f7       ?OnKillfocusManDay@SitePage7@@IAEXXZ 004967f7 f   SitePage7.obj
 0001:00095809       ?OnKillfocusManAmount@SitePage7@@IAEXXZ 00496809 f   SitePage7.obj
 0001:0009581b       ?OnKillfocusManCN@SitePage7@@IAEXXZ 0049681b f   SitePage7.obj
 0001:0009582d       ?OnInitDialog@SitePage7@@MAEHXZ 0049682d f   SitePage7.obj
 0001:000958de       ?OnSelchangeCombo1@SitePage7@@IAEXXZ 004968de f   SitePage7.obj
 0001:00095902       ?demo@SitePage7@@QAEXXZ    00496902 f   SitePage7.obj
 0001:00095b60       ??_GSitePage7@@UAEPAXI@Z   00496b60 f i SitePage7.obj
 0001:00095b60       ??_ESitePage7@@UAEPAXI@Z   00496b60 f i SitePage7.obj
 0001:00095ba0       ?CreateObject@SitePage8@@SGPAVCObject@@XZ 00496ba0 f   SitePage8.obj
 0001:00095c2d       ?GetRuntimeClass@SitePage8@@UBEPAUCRuntimeClass@@XZ 00496c2d f   SitePage8.obj
 0001:00095c44       ??0SitePage8@@QAE@XZ       00496c44 f   SitePage8.obj
 0001:00095cf4       ??1SitePage8@@UAE@XZ       00496cf4 f   SitePage8.obj
 0001:00095d5c       ?DoDataExchange@SitePage8@@MAEXPAVCDataExchange@@@Z 00496d5c f   SitePage8.obj
 0001:00095e14       ?GetMessageMap@SitePage8@@MBEPBUAFX_MSGMAP@@XZ 00496e14 f   SitePage8.obj
 0001:00095e2b       ?OnSetActive@SitePage8@@UAEHXZ 00496e2b f   SitePage8.obj
 0001:000960bf       ?GetEventSinkMap@SitePage8@@MBEPBUAFX_EVENTSINKMAP@@XZ 004970bf f   SitePage8.obj
 0001:000960d6       ?OnWedLast@SitePage8@@IAEXXZ 004970d6 f   SitePage8.obj
 0001:000961c9       ?OnWedNext@SitePage8@@IAEXXZ 004971c9 f   SitePage8.obj
 0001:000962c7       ?OnWedAccept@SitePage8@@IAEXXZ 004972c7 f   SitePage8.obj
 0001:0009650a       ?OnWeedOption0@SitePage8@@IAEXXZ 0049750a f   SitePage8.obj
 0001:000965dd       ?OnWeedOption1@SitePage8@@IAEXXZ 004975dd f   SitePage8.obj
 0001:000966b0       ?OnWeedOption2@SitePage8@@IAEXXZ 004976b0 f   SitePage8.obj
 0001:00096783       ?OnKillfocusWeedMonth@SitePage8@@IAEXXZ 00497783 f   SitePage8.obj
 0001:000967a9       ?OnKillfocusWeedDay@SitePage8@@IAEXXZ 004977a9 f   SitePage8.obj
 0001:000967cf       ?OnInitDialog@SitePage8@@MAEHXZ 004977cf f   SitePage8.obj
 0001:00096862       ?demo@SitePage8@@QAEXXZ    00497862 f   SitePage8.obj
 0001:00096ac0       ??_GSitePage8@@UAEPAXI@Z   00497ac0 f i SitePage8.obj
 0001:00096ac0       ??_ESitePage8@@UAEPAXI@Z   00497ac0 f i SitePage8.obj
 0001:00096b00       ?CreateObject@SitePage9@@SGPAVCObject@@XZ 00497b00 f   SitePage9.obj
 0001:00096b8d       ?GetRuntimeClass@SitePage9@@UBEPAUCRuntimeClass@@XZ 00497b8d f   SitePage9.obj
 0001:00096ba4       ??0SitePage9@@QAE@XZ       00497ba4 f   SitePage9.obj
 0001:00096d33       ??1SitePage9@@UAE@XZ       00497d33 f   SitePage9.obj
 0001:00096dd1       ?DoDataExchange@SitePage9@@MAEXPAVCDataExchange@@@Z 00497dd1 f   SitePage9.obj
 0001:00096fec       ?GetMessageMap@SitePage9@@MBEPBUAFX_MSGMAP@@XZ 00497fec f   SitePage9.obj
 0001:00097003       ?OnSetActive@SitePage9@@UAEHXZ 00498003 f   SitePage9.obj
 0001:000977b1       ?GetEventSinkMap@SitePage9@@MBEPBUAFX_EVENTSINKMAP@@XZ 004987b1 f   SitePage9.obj
 0001:000977c8       ?CheckFloodN@SitePage9@@QAEHXZ 004987c8 f   SitePage9.obj
 0001:000977ef       ?OnKillfocusfloodN@SitePage9@@IAEXXZ 004987ef f   SitePage9.obj
 0001:00097801       ?CheckFloodID@SitePage9@@QAEHXZ 00498801 f   SitePage9.obj
 0001:00097896       ?OnFloodAccept@SitePage9@@IAEXXZ 00498896 f   SitePage9.obj
 0001:00097e19       ?OnFloodNext@SitePage9@@IAEXXZ 00498e19 f   SitePage9.obj
 0001:00097fc7       ?OnFloodLast@SitePage9@@IAEXXZ 00498fc7 f   SitePage9.obj
 0001:0009816d       ?OnKillfocusfloodFMonth@SitePage9@@IAEXXZ 0049916d f   SitePage9.obj
 0001:00098193       ?OnKillfocusfloodFDay@SitePage9@@IAEXXZ 00499193 f   SitePage9.obj
 0001:000981b9       ?OnKillfocusfloodDMonth@SitePage9@@IAEXXZ 004991b9 f   SitePage9.obj
 0001:000981df       ?OnKillfocusfloodDDay@SitePage9@@IAEXXZ 004991df f   SitePage9.obj
 0001:00098205       ?OnKillfocusFloodWaterpH@SitePage9@@IAEXXZ 00499205 f   SitePage9.obj
 0001:0009822b       ?OnInitDialog@SitePage9@@MAEHXZ 0049922b f   SitePage9.obj
 0001:000982d2       ?demo@SitePage9@@QAEXXZ    004992d2 f   SitePage9.obj
 0001:00098520       ?OnselectWTfile@SitePage9@@IAEXXZ 00499520 f   SitePage9.obj
 0001:000988cb       ?OnDblclkWTFileList@SitePage9@@IAEXXZ 004998cb f   SitePage9.obj
 0001:0009897a       ?OnWaterControl@SitePage9@@IAEXXZ 0049997a f   SitePage9.obj
 0001:00098bc8       ?OnRainfed@SitePage9@@IAEXXZ 00499bc8 f   SitePage9.obj
 0001:00098f1a       ?OnObservedWT@SitePage9@@IAEXXZ 00499f1a f   SitePage9.obj
 0001:00099204       ?OnEmpiricalPara@SitePage9@@IAEXXZ 0049a204 f   SitePage9.obj
 0001:000994c0       ??_GSitePage9@@UAEPAXI@Z   0049a4c0 f i SitePage9.obj
 0001:000994c0       ??_ESitePage9@@UAEPAXI@Z   0049a4c0 f i SitePage9.obj
 0001:00099500       ?ReadClimateHead@@YAHH@Z   0049a500 f   SitePara.obj
 0001:0009968f       ?RecordClimateFile@@YAHHH@Z 0049a68f f   SitePara.obj
 0001:00099a37       ?SaveClimateFileOfAYear@@YAHHPADPAM11MHMMMVCString@@HHHM@Z 0049aa37 f   SitePara.obj
 0001:0009a5c1       ?GetAMT@@YAHPAD@Z          0049b5c1 f   SitePara.obj
 0001:0009a661       ?FileCopy@@YAHPAD0@Z       0049b661 f   SitePara.obj
 0001:0009a849       ?ReadSoilFeature@@YAHVCString@@@Z 0049b849 f   SitePara.obj
 0001:0009ab65       ?ReadCropProperty@@YAHHPAVCropParameter@@@Z 0049bb65 f   SitePara.obj
 0001:0009aff4       ?SetCropCN@@YAXPAVCropParameter@@@Z 0049bff4 f   SitePara.obj
 0001:0009b06d       ?RecordInf@@YAHH@Z         0049c06d f   SitePara.obj
 0001:0009b0e3       ?EraseFBSpace@@YAPAVCString@@PAV1@@Z 0049c0e3 f   SitePara.obj
 0001:0009b14c       ?EraseFBSpace@@YAPADPAD@Z  0049c14c f   SitePara.obj
 0001:0009b1d6       ?EraseAllSpace@@YA?AVCString@@PAV1@@Z 0049c1d6 f   SitePara.obj
 0001:0009b279       ?EraseAllSpace@@YAPADPAD@Z 0049c279 f   SitePara.obj
 0001:0009b304       ?GetShortFileName@@YAHPAD@Z 0049c304 f   SitePara.obj
 0001:0009b370       ?SaveSite@@YAHXZ           0049c370 f   SitePara.obj
 0001:0009b53c       ?SaveSoilParas@@YAHH@Z     0049c53c f   SitePara.obj
 0001:0009cba0       ?ReSetCcomponent@@YAXXZ    0049dba0 f   SitePara.obj
 0001:0009cbdc       ?ReSetIniNO3NH4@@YAXXZ     0049dbdc f   SitePara.obj
 0001:0009cc05       ?ReadInputDatafromDND@@YAXPAD@Z 0049dc05 f   SitePara.obj
 0001:000a12bd       ?SetSoilH@@YAHXZ           004a22bd f   SitePara.obj
 0001:000a1415       ??0CropWorkArrayDefine@@QAE@XZ 004a2415 f   SitePara.obj
 0001:000a145b       ?dim@CropWorkArrayDefine@@QAEHHHH@Z 004a245b f   SitePara.obj
 0001:000a15be       ?dim@CropWorkArrayDefine@@QAEHHH@Z 004a25be f   SitePara.obj
 0001:000a1703       ?dim@CropWorkArrayDefine@@QAEHH@Z 004a2703 f   SitePara.obj
 0001:000a1827       ??1CropWorkArrayDefine@@QAE@XZ 004a2827 f   SitePara.obj
 0001:000a188c       ?clear@CropWorkArrayDefine@@QAEHXZ 004a288c f   SitePara.obj
 0001:000a18ea       ?SizeOfData@CropArray@@UAEHXZ 004a28ea f   SitePara.obj
 0001:000a1901       ?dim@CropArray@@QAEHHHH@Z  004a2901 f   SitePara.obj
 0001:000a194b       ??0CropArray@@QAE@XZ       004a294b f   SitePara.obj
 0001:000a1985       ??1CropArray@@QAE@XZ       004a2985 f   SitePara.obj
 0001:000a19bc       ?Reset@CropArray@@QAEHXZ   004a29bc f   SitePara.obj
 0001:000a19e2       ?get@CropArray@@QAEPAVCropParameter@@HHH@Z 004a29e2 f   SitePara.obj
 0001:000a1aa9       ??0StringArray@@QAE@XZ     004a2aa9 f   SitePara.obj
 0001:000a1acb       ??1StringArray@@QAE@XZ     004a2acb f   SitePara.obj
 0001:000a1b5b       ?dim@StringArray@@QAEHH@Z  004a2b5b f   SitePara.obj
 0001:000a1b7d       ?clear@StringArray@@QAEHXZ 004a2b7d f   SitePara.obj
 0001:000a1bdc       ?del@StringArray@@QAEHH@Z  004a2bdc f   SitePara.obj
 0001:000a1c8e       ?insert@StringArray@@QAEHHPAD@Z 004a2c8e f   SitePara.obj
 0001:000a1e03       ?get@StringArray@@QAEPADH@Z 004a2e03 f   SitePara.obj
 0001:000a1e61       ??0Site_BaseInformation@@QAE@XZ 004a2e61 f   SitePara.obj
 0001:000a233a       ?NewData@Site_BaseInformation@@QAEXXZ 004a333a f   SitePara.obj
 0001:000a245e       ?SaveCropParas@@YAHXZ      004a345e f   SitePara.obj
 0001:000a4302       ?SaveInterFarmParas@@YAHXZ 004a5302 f   SitePara.obj
 0001:000a5bf1       ?savetillage@@YAHPAU_iobuf@@PAVTillageParameter@@@Z 004a6bf1 f   SitePara.obj
 0001:000a5d08       ??0DNDCSystem@@QAE@XZ      004a6d08 f   SitePara.obj
 0001:000a5fd2       ??0DNDCDatabase@@QAE@XZ    004a6fd2 f   SitePara.obj
 0001:000a62a3       ?ChangeChar@@YAHPADDD@Z    004a72a3 f   SitePara.obj
 0001:000a630e       ?ChangeChar@@YA?AVCString@@V1@DD@Z 004a730e f   SitePara.obj
 0001:000a63d4       ?NumberToChar@@YAHPADH@Z   004a73d4 f   SitePara.obj
 0001:000a6476       ?ValueToCString@@YAPADPADM@Z 004a7476 f   SitePara.obj
 0001:000a649f       ?CheckValueRange@@YAMMHH@Z 004a749f f   SitePara.obj
 0001:000a64cf       ?PathAddFile@@YA?AVCString@@V1@0@Z 004a74cf f   SitePara.obj
 0001:000a662d       ?PathAddFile@@YAPADPAD0@Z  004a762d f   SitePara.obj
 0001:000a66f4       ?OrderNumber@@YA?AVCString@@HPADPAV1@@Z 004a76f4 f   SitePara.obj
 0001:000a67a8       ?ResetListItem@@YAHHHPADPAVCListCtrl@@@Z 004a77a8 f   SitePara.obj
 0001:000a68c9       ?Toend@@YAXPAD0H@Z         004a78c9 f   SitePara.obj
 0001:000a6942       ?HumadsFraction@@YAMMH@Z   004a7942 f   SitePara.obj
 0001:000a698a       ?SocProfile@@YAXXZ         004a798a f   SitePara.obj
 0001:000a69d3       ?XX@@YAXPAU_iobuf@@@Z      004a79d3 f   SitePara.obj
 0001:000a6a50       ??1Site_BaseInformation@@QAE@XZ 004a7a50 f i SitePara.obj
 0001:000a6bec       ?GetRuntimeClass@CSitePSheet@@UBEPAUCRuntimeClass@@XZ 004a7bec f   SitePSheet.obj
 0001:000a6c03       ??0CSitePSheet@@QAE@PAVCWnd@@@Z 004a7c03 f   SitePSheet.obj
 0001:000a6cd5       ??1CSitePSheet@@UAE@XZ     004a7cd5 f   SitePSheet.obj
 0001:000a6d61       ?GetMessageMap@CSitePSheet@@MBEPBUAFX_MSGMAP@@XZ 004a7d61 f   SitePSheet.obj
 0001:000a6d78       ?OnInitDialog@CSitePSheet@@UAEHXZ 004a7d78 f   SitePSheet.obj
 0001:000a6e31       ?GetRuntimeClass@CForestPSheet@@UBEPAUCRuntimeClass@@XZ 004a7e31 f   SitePSheet.obj
 0001:000a6e48       ??0CForestPSheet@@QAE@PAVCWnd@@@Z 004a7e48 f   SitePSheet.obj
 0001:000a6e82       ??1CForestPSheet@@UAE@XZ   004a7e82 f   SitePSheet.obj
 0001:000a6eaf       ?GetMessageMap@CForestPSheet@@MBEPBUAFX_MSGMAP@@XZ 004a7eaf f   SitePSheet.obj
 0001:000a6ec6       ?OnInitDialog@CForestPSheet@@UAEHXZ 004a7ec6 f   SitePSheet.obj
 0001:000a6f08       ?GetRuntimeClass@CCropPSheet@@UBEPAUCRuntimeClass@@XZ 004a7f08 f   SitePSheet.obj
 0001:000a6f1f       ??0CCropPSheet@@QAE@PAVCWnd@@@Z 004a7f1f f   SitePSheet.obj
 0001:000a70a3       ??1CCropPSheet@@UAE@XZ     004a80a3 f   SitePSheet.obj
 0001:000a7189       ?GetMessageMap@CCropPSheet@@MBEPBUAFX_MSGMAP@@XZ 004a8189 f   SitePSheet.obj
 0001:000a71a0       ?OnInitDialog@CCropPSheet@@UAEHXZ 004a81a0 f   SitePSheet.obj
 0001:000a71f0       ??_ECSitePSheet@@UAEPAXI@Z 004a81f0 f i SitePSheet.obj
 0001:000a71f0       ??_GCSitePSheet@@UAEPAXI@Z 004a81f0 f i SitePSheet.obj
 0001:000a7230       ??_GCForestPSheet@@UAEPAXI@Z 004a8230 f i SitePSheet.obj
 0001:000a7230       ??_ECForestPSheet@@UAEPAXI@Z 004a8230 f i SitePSheet.obj
 0001:000a7270       ??_GCCropPSheet@@UAEPAXI@Z 004a8270 f i SitePSheet.obj
 0001:000a7270       ??_ECCropPSheet@@UAEPAXI@Z 004a8270 f i SitePSheet.obj
 0001:000a72b0       ??0UncertaintyInput@@QAE@PAVCWnd@@@Z 004a82b0 f   UncertaintyInput.obj
 0001:000a7491       ?DoDataExchange@UncertaintyInput@@MAEXPAVCDataExchange@@@Z 004a8491 f   UncertaintyInput.obj
 0001:000a764d       ?GetMessageMap@UncertaintyInput@@MBEPBUAFX_MSGMAP@@XZ 004a864d f   UncertaintyInput.obj
 0001:000a7664       ?OnSelectIndexFile@UncertaintyInput@@IAEXXZ 004a8664 f   UncertaintyInput.obj
 0001:000a7a58       ?OnSelectClimFile@UncertaintyInput@@IAEXXZ 004a8a58 f   UncertaintyInput.obj
 0001:000a7c6e       ?OnSelectSoilFile@UncertaintyInput@@IAEXXZ 004a8c6e f   UncertaintyInput.obj
 0001:000a7e84       ?OnSelectCropFile@UncertaintyInput@@IAEXXZ 004a8e84 f   UncertaintyInput.obj
 0001:000a809a       ?OnSelchangeCountyNames@UncertaintyInput@@IAEXXZ 004a909a f   UncertaintyInput.obj
 0001:000a88b7       ?EraseFBSpace2@@YAPADPAD@Z 004a98b7 f   UncertaintyInput.obj
 0001:000a8941       ?OnOK@UncertaintyInput@@MAEXXZ 004a9941 f   UncertaintyInput.obj
 0001:000a8e4a       ?OnSelchangeWizardCrops@UncertaintyInput@@IAEXXZ 004a9e4a f   UncertaintyInput.obj
 0001:000a8e87       ?OnInitDialog@UncertaintyInput@@MAEHXZ 004a9e87 f   UncertaintyInput.obj
 0001:000a9029       ?OnReDefineSoil@UncertaintyInput@@IAEXXZ 004aa029 f   UncertaintyInput.obj
 0001:000a91ac       ?OnSetfocusMChumus@UncertaintyInput@@IAEXXZ 004aa1ac f   UncertaintyInput.obj
 0001:000a9230       ??_GUncertaintyInput@@UAEPAXI@Z 004aa230 f i UncertaintyInput.obj
 0001:000a9230       ??_EUncertaintyInput@@UAEPAXI@Z 004aa230 f i UncertaintyInput.obj
 0001:000a9270       ??0USAstate@@QAE@PAVCWnd@@@Z 004aa270 f   USAstate.obj
 0001:000a92e3       ?DoDataExchange@USAstate@@MAEXPAVCDataExchange@@@Z 004aa2e3 f   USAstate.obj
 0001:000a9322       ?GetMessageMap@USAstate@@MBEPBUAFX_MSGMAP@@XZ 004aa322 f   USAstate.obj
 0001:000a9339       ?OnSelchangeUSstate@USAstate@@IAEXXZ 004aa339 f   USAstate.obj
 0001:000a93f1       ?OnOK@USAstate@@MAEXXZ     004aa3f1 f   USAstate.obj
 0001:000a9c60       ??_GUSAstate@@UAEPAXI@Z    004aac60 f i USAstate.obj
 0001:000a9c60       ??_EUSAstate@@UAEPAXI@Z    004aac60 f i USAstate.obj
 0001:000a9ca0       ??0WizardCrops@@QAE@PAVCWnd@@@Z 004aaca0 f   WizardCrops.obj
 0001:000a9d3f       ?DoDataExchange@WizardCrops@@MAEXPAVCDataExchange@@@Z 004aad3f f   WizardCrops.obj
 0001:000a9d98       ?GetMessageMap@WizardCrops@@MBEPBUAFX_MSGMAP@@XZ 004aad98 f   WizardCrops.obj
 0001:000a9daf       ?OnInitDialog@WizardCrops@@MAEHXZ 004aadaf f   WizardCrops.obj
 0001:000aa214       ?OnSelchangeWizardCrops@WizardCrops@@IAEXXZ 004ab214 f   WizardCrops.obj
 0001:000aa24e       ?OnOK@WizardCrops@@MAEXXZ  004ab24e f   WizardCrops.obj
 0001:000aa433       ?SaveDatatoFile@WizardCrops@@QAEXXZ 004ab433 f   WizardCrops.obj
 0001:000ac661       ?OptimumYield@WizardCrops@@QAEMH@Z 004ad661 f   WizardCrops.obj
 0001:000ac90e       ?clay_texture@WizardCrops@@QAEHM@Z 004ad90e f   WizardCrops.obj
 0001:000aca40       ??_EWizardCrops@@UAEPAXI@Z 004ada40 f i WizardCrops.obj
 0001:000aca40       ??_GWizardCrops@@UAEPAXI@Z 004ada40 f i WizardCrops.obj
 0001:000aca80       ??1WizardCrops@@UAE@XZ     004ada80 f i WizardCrops.obj
 0001:000ae0cf       ??0WizardResult@@QAE@PAVCWnd@@@Z 004af0cf f   WizardResult.obj
 0001:000ae169       ?DoDataExchange@WizardResult@@MAEXPAVCDataExchange@@@Z 004af169 f   WizardResult.obj
 0001:000ae1ab       ?GetMessageMap@WizardResult@@MBEPBUAFX_MSGMAP@@XZ 004af1ab f   WizardResult.obj
 0001:000ae1c2       ?OnInitDialog@WizardResult@@MAEHXZ 004af1c2 f   WizardResult.obj
 0001:000ae3ae       ?OnGhg@WizardResult@@IAEXXZ 004af3ae f   WizardResult.obj
 0001:000af09d       ?OnAgronomy@WizardResult@@IAEXXZ 004b009d f   WizardResult.obj
 0001:000b05e5       ?OnCrop@WizardResult@@IAEXXZ 004b15e5 f   WizardResult.obj
 0001:000b2478       ?OnWater@WizardResult@@IAEXXZ 004b3478 f   WizardResult.obj
 0001:000b326d       ?OnGwp@WizardResult@@IAEXXZ 004b426d f   WizardResult.obj
 0001:000b3abc       ?OnSelchangeWizardYear@WizardResult@@IAEXXZ 004b4abc f   WizardResult.obj
 0001:000b3e29       ?read_summary@WizardResult@@QAEXH@Z 004b4e29 f   WizardResult.obj
 0001:000b53e0       ??_GWizardResult@@UAEPAXI@Z 004b63e0 f i WizardResult.obj
 0001:000b53e0       ??_EWizardResult@@UAEPAXI@Z 004b63e0 f i WizardResult.obj
 0001:000b5420       ??0WizardUncertainty@@QAE@PAVCWnd@@@Z 004b6420 f   WizardUncertainty.obj
 0001:000b55a5       ?DoDataExchange@WizardUncertainty@@MAEXPAVCDataExchange@@@Z 004b65a5 f   WizardUncertainty.obj
 0001:000b56a4       ?GetMessageMap@WizardUncertainty@@MBEPBUAFX_MSGMAP@@XZ 004b66a4 f   WizardUncertainty.obj
 0001:000b56bb       ?OnWizardUncertainData@WizardUncertainty@@IAEXXZ 004b66bb f   WizardUncertainty.obj
 0001:000b5fed       ?OnOK@WizardUncertainty@@MAEXXZ 004b6fed f   WizardUncertainty.obj
 0001:000b6231       ?OnCancel@WizardUncertainty@@MAEXXZ 004b7231 f   WizardUncertainty.obj
 0001:000b6255       ?OnMSFmethod@WizardUncertainty@@IAEXXZ 004b7255 f   WizardUncertainty.obj
 0001:000b657f       ?OnMSFmethod2@WizardUncertainty@@QAEXXZ 004b757f f   WizardUncertainty.obj
 0001:000b67c0       ??_EWizardUncertainty@@UAEPAXI@Z 004b77c0 f i WizardUncertainty.obj
 0001:000b67c0       ??_GWizardUncertainty@@UAEPAXI@Z 004b77c0 f i WizardUncertainty.obj
 0001:000b6800       ?GetName@COleFont@@QAE?AVCString@@XZ 004b7800 f   font.obj
 0001:000b6897       ?SetName@COleFont@@QAEXPBD@Z 004b7897 f   font.obj
 0001:000b68c9       ?GetSize@COleFont@@QAE?ATtagCY@@XZ 004b78c9 f   font.obj
 0001:000b6918       ?SetSize@COleFont@@QAEXABTtagCY@@@Z 004b7918 f   font.obj
 0001:000b694a       ?GetBold@COleFont@@QAEHXZ  004b794a f   font.obj
 0001:000b6982       ?SetBold@COleFont@@QAEXH@Z 004b7982 f   font.obj
 0001:000b69b4       ?GetItalic@COleFont@@QAEHXZ 004b79b4 f   font.obj
 0001:000b69ec       ?SetItalic@COleFont@@QAEXH@Z 004b79ec f   font.obj
 0001:000b6a1e       ?GetUnderline@COleFont@@QAEHXZ 004b7a1e f   font.obj
 0001:000b6a56       ?SetUnderline@COleFont@@QAEXH@Z 004b7a56 f   font.obj
 0001:000b6a88       ?GetStrikethrough@COleFont@@QAEHXZ 004b7a88 f   font.obj
 0001:000b6ac0       ?SetStrikethrough@COleFont@@QAEXH@Z 004b7ac0 f   font.obj
 0001:000b6af2       ?GetWeight@COleFont@@QAEFXZ 004b7af2 f   font.obj
 0001:000b6b2b       ?SetWeight@COleFont@@QAEXF@Z 004b7b2b f   font.obj
 0001:000b6b5e       ?GetCharset@COleFont@@QAEFXZ 004b7b5e f   font.obj
 0001:000b6b97       ?SetCharset@COleFont@@QAEXF@Z 004b7b97 f   font.obj
 0001:000b6bd0       ?CreateObject@CMoMap@@SGPAVCObject@@XZ 004b7bd0 f   map.obj
 0001:000b6c53       ?GetRuntimeClass@CMoMap@@UBEPAUCRuntimeClass@@XZ 004b7c53 f   map.obj
 0001:000b6c6a       ?GetLayers@CMoMap@@QAE?AVCMoLayers@@XZ 004b7c6a f   map.obj
 0001:000b6cc7       ?SetLayers@CMoMap@@QAEXPAUIDispatch@@@Z 004b7cc7 f   map.obj
 0001:000b6cf9       ?GetExtent@CMoMap@@QAE?AVCMoRectangle@@XZ 004b7cf9 f   map.obj
 0001:000b6d56       ?SetExtent@CMoMap@@QAEXPAUIDispatch@@@Z 004b7d56 f   map.obj
 0001:000b6d88       ?GetFullExtent@CMoMap@@QAE?AVCMoRectangle@@XZ 004b7d88 f   map.obj
 0001:000b6de5       ?SetFullExtent@CMoMap@@QAEXPAUIDispatch@@@Z 004b7de5 f   map.obj
 0001:000b6e17       ?GetBackColor@CMoMap@@QAEKXZ 004b7e17 f   map.obj
 0001:000b6e52       ?SetBackColor@CMoMap@@QAEXK@Z 004b7e52 f   map.obj
 0001:000b6e87       ?GetBorderStyle@CMoMap@@QAEFXZ 004b7e87 f   map.obj
 0001:000b6ec3       ?SetBorderStyle@CMoMap@@QAEXF@Z 004b7ec3 f   map.obj
 0001:000b6ef9       ?GetScrollBars@CMoMap@@QAEHXZ 004b7ef9 f   map.obj
 0001:000b6f31       ?SetScrollBars@CMoMap@@QAEXH@Z 004b7f31 f   map.obj
 0001:000b6f63       ?GetCancelAction@CMoMap@@QAEJXZ 004b7f63 f   map.obj
 0001:000b6f9b       ?SetCancelAction@CMoMap@@QAEXJ@Z 004b7f9b f   map.obj
 0001:000b6fcd       ?GetTrackingLayer@CMoMap@@QAE?AVCMoTrackingLayer@@XZ 004b7fcd f   map.obj
 0001:000b702a       ?SetTrackingLayer@CMoMap@@QAEXPAUIDispatch@@@Z 004b802a f   map.obj
 0001:000b705c       ?GetRefreshCount@CMoMap@@QAEJXZ 004b805c f   map.obj
 0001:000b7094       ?SetRefreshCount@CMoMap@@QAEXJ@Z 004b8094 f   map.obj
 0001:000b70c6       ?GetEnabled@CMoMap@@QAEHXZ 004b80c6 f   map.obj
 0001:000b7101       ?SetEnabled@CMoMap@@QAEXH@Z 004b8101 f   map.obj
 0001:000b7136       ?GetHWnd@CMoMap@@QAEIXZ    004b8136 f   map.obj
 0001:000b7171       ?SetHWnd@CMoMap@@QAEXI@Z   004b8171 f   map.obj
 0001:000b71a6       ?GetAppearance@CMoMap@@QAEFXZ 004b81a6 f   map.obj
 0001:000b71e2       ?SetAppearance@CMoMap@@QAEXF@Z 004b81e2 f   map.obj
 0001:000b7218       ?GetMinWidth@CMoMap@@QAENXZ 004b8218 f   map.obj
 0001:000b7257       ?SetMinWidth@CMoMap@@QAEXN@Z 004b8257 f   map.obj
 0001:000b728d       ?GetMousePointer@CMoMap@@QAEJXZ 004b828d f   map.obj
 0001:000b72c5       ?SetMousePointer@CMoMap@@QAEXJ@Z 004b82c5 f   map.obj
 0001:000b72f7       ?GetFullRedrawOnPan@CMoMap@@QAEHXZ 004b82f7 f   map.obj
 0001:000b732f       ?SetFullRedrawOnPan@CMoMap@@QAEXH@Z 004b832f f   map.obj
 0001:000b7361       ?GetCoordinateSystem@CMoMap@@QAE?AUtagVARIANT@@XZ 004b8361 f   map.obj
 0001:000b73bb       ?SetCoordinateSystem@CMoMap@@QAEXABUtagVARIANT@@@Z 004b83bb f   map.obj
 0001:000b73ed       ?GetMaxFileBuffer@CMoMap@@QAEJXZ 004b83ed f   map.obj
 0001:000b7425       ?SetMaxFileBuffer@CMoMap@@QAEXJ@Z 004b8425 f   map.obj
 0001:000b7457       ?GetWindowMode@CMoMap@@QAEJXZ 004b8457 f   map.obj
 0001:000b748f       ?SetWindowMode@CMoMap@@QAEXJ@Z 004b848f f   map.obj
 0001:000b74c1       ?GetRotationAngle@CMoMap@@QAENXZ 004b84c1 f   map.obj
 0001:000b7500       ?SetRotationAngle@CMoMap@@QAEXN@Z 004b8500 f   map.obj
 0001:000b7536       ?GetVisibleRegion@CMoMap@@QAEPAUIDispatch@@XZ 004b8536 f   map.obj
 0001:000b756e       ?SetVisibleRegion@CMoMap@@QAEXPAUIDispatch@@@Z 004b856e f   map.obj
 0001:000b75a0       ?GetGeometryEnvironment@CMoMap@@QAEJXZ 004b85a0 f   map.obj
 0001:000b75d8       ?SetGeometryEnvironment@CMoMap@@QAEXJ@Z 004b85d8 f   map.obj
 0001:000b760a       ?GetDisplayUnit@CMoMap@@QAEJXZ 004b860a f   map.obj
 0001:000b7642       ?SetDisplayUnit@CMoMap@@QAEXJ@Z 004b8642 f   map.obj
 0001:000b7674       ?AboutBox@CMoMap@@QAEXXZ   004b8674 f   map.obj
 0001:000b76a9       ?Pan@CMoMap@@QAEXXZ        004b86a9 f   map.obj
 0001:000b76db       ?ToMapPoint@CMoMap@@QAE?AVCMoPoint@@MM@Z 004b86db f   map.obj
 0001:000b7754       ?FlashShape@CMoMap@@QAEXPAUIDispatch@@F@Z 004b8754 f   map.obj
 0001:000b7794       ?Refresh@CMoMap@@QAEXXZ    004b8794 f   map.obj
 0001:000b77c9       ?DrawShape@CMoMap@@QAEXPAUIDispatch@@0@Z 004b87c9 f   map.obj
 0001:000b7808       ?DrawTextA@CMoMap@@QAEXPBDPAUIDispatch@@1@Z 004b8808 f   map.obj
 0001:000b784b       ?TrackCircle@CMoMap@@QAE?AVCMoEllipse@@XZ 004b884b f   map.obj
 0001:000b78af       ?TrackLine@CMoMap@@QAE?AVCMoLine@@XZ 004b88af f   map.obj
 0001:000b7913       ?TrackRectangle@CMoMap@@QAE?AVCMoRectangle@@XZ 004b8913 f   map.obj
 0001:000b7977       ?FromMapPoint@CMoMap@@QAEXPAUIDispatch@@PAM1@Z 004b8977 f   map.obj
 0001:000b79ba       ?ToMapDistance@CMoMap@@QAENM@Z 004b89ba f   map.obj
 0001:000b7a0f       ?FromMapDistance@CMoMap@@QAEMN@Z 004b8a0f f   map.obj
 0001:000b7a5c       ?TrackPolygon@CMoMap@@QAE?AVCMoPolygon@@XZ 004b8a5c f   map.obj
 0001:000b7ac0       ?OutputMap@CMoMap@@QAEXJ@Z 004b8ac0 f   map.obj
 0001:000b7afb       ?PrintMap@CMoMap@@QAEXPBD0H@Z 004b8afb f   map.obj
 0001:000b7b3e       ?ExportMap@CMoMap@@QAEXJPBDN@Z 004b8b3e f   map.obj
 0001:000b7b85       ?CopyMap@CMoMap@@QAEXN@Z   004b8b85 f   map.obj
 0001:000b7bc4       ?CenterAt@CMoMap@@QAEXNN@Z 004b8bc4 f   map.obj
 0001:000b7c0b       ?RefreshLayer@CMoMap@@QAEXFABUtagVARIANT@@@Z 004b8c0b f   map.obj
 0001:000b7c4b       ?ExportMap2@CMoMap@@QAEXJPBDNABUtagVARIANT@@@Z 004b8c4b f   map.obj
 0001:000b7c96       ?OutputMap2@CMoMap@@QAEXJJJJJABUtagVARIANT@@@Z 004b8c96 f   map.obj
 0001:000b7ce5       ?RefreshRect@CMoMap@@QAEXPAUIDispatch@@@Z 004b8ce5 f   map.obj
 0001:000b7d20       ?EnableTIFFLZW@CMoMap@@QAEXPBD@Z 004b8d20 f   map.obj
 0001:000b7d5b       ?EnableGIF@CMoMap@@QAEXPBD@Z 004b8d5b f   map.obj
 0001:000b7d96       ?EnableStreetMap@CMoMap@@QAEXPBD@Z 004b8d96 f   map.obj
 0001:000b7dd1       ?ExportMapToJpeg@CMoMap@@QAEXPBDJHNJ@Z 004b8dd1 f   map.obj
 0001:000b7e20       ?ExportMap3@CMoMap@@QAEXJABUtagVARIANT@@NJJJ@Z 004b8e20 f   map.obj
 0001:000b7e80       ??0CMoLayers@@QAE@PAUIDispatch@@@Z 004b8e80 f i map.obj
 0001:000b7eb0       ??0CMoRectangle@@QAE@PAUIDispatch@@@Z 004b8eb0 f i map.obj
 0001:000b7ee0       ??0CMoTrackingLayer@@QAE@PAUIDispatch@@@Z 004b8ee0 f i map.obj
 0001:000b7f10       ??0CMoPoint@@QAE@PAUIDispatch@@@Z 004b8f10 f i map.obj
 0001:000b7f40       ??0CMoEllipse@@QAE@PAUIDispatch@@@Z 004b8f40 f i map.obj
 0001:000b7f70       ??0CMoLine@@QAE@PAUIDispatch@@@Z 004b8f70 f i map.obj
 0001:000b7fa0       ??0CMoPolygon@@QAE@PAUIDispatch@@@Z 004b8fa0 f i map.obj
 0001:000b7fd0       ?GetLocation@CMoAddressLocation@@QAE?AVCMoPoint@@XZ 004b8fd0 f   moaddresslocation.obj
 0001:000b802d       ?SetLocation@CMoAddressLocation@@QAEXPAUIDispatch@@@Z 004b902d f   moaddresslocation.obj
 0001:000b805f       ?GetMatchScore@CMoAddressLocation@@QAEFXZ 004b905f f   moaddresslocation.obj
 0001:000b8098       ?SetMatchScore@CMoAddressLocation@@QAEXF@Z 004b9098 f   moaddresslocation.obj
 0001:000b80cb       ?GetStreetSide@CMoAddressLocation@@QAEJXZ 004b90cb f   moaddresslocation.obj
 0001:000b8103       ?SetStreetSide@CMoAddressLocation@@QAEXJ@Z 004b9103 f   moaddresslocation.obj
 0001:000b8140       ?GetSizeField@CMoChartRenderer@@QAE?AVCString@@XZ 004b9140 f   mochartrenderer.obj
 0001:000b81d7       ?SetSizeField@CMoChartRenderer@@QAEXPBD@Z 004b91d7 f   mochartrenderer.obj
 0001:000b8209       ?GetFieldCount@CMoChartRenderer@@QAEFXZ 004b9209 f   mochartrenderer.obj
 0001:000b8242       ?SetFieldCount@CMoChartRenderer@@QAEXF@Z 004b9242 f   mochartrenderer.obj
 0001:000b8275       ?GetNullValue@CMoChartRenderer@@QAENXZ 004b9275 f   mochartrenderer.obj
 0001:000b82b4       ?SetNullValue@CMoChartRenderer@@QAEXN@Z 004b92b4 f   mochartrenderer.obj
 0001:000b82ea       ?GetChartType@CMoChartRenderer@@QAEJXZ 004b92ea f   mochartrenderer.obj
 0001:000b8322       ?SetChartType@CMoChartRenderer@@QAEXJ@Z 004b9322 f   mochartrenderer.obj
 0001:000b8354       ?GetBarWidth@CMoChartRenderer@@QAEFXZ 004b9354 f   mochartrenderer.obj
 0001:000b838d       ?SetBarWidth@CMoChartRenderer@@QAEXF@Z 004b938d f   mochartrenderer.obj
 0001:000b83c0       ?GetBarHeight@CMoChartRenderer@@QAEFXZ 004b93c0 f   mochartrenderer.obj
 0001:000b83f9       ?SetBarHeight@CMoChartRenderer@@QAEXF@Z 004b93f9 f   mochartrenderer.obj
 0001:000b842c       ?GetNormalizationField@CMoChartRenderer@@QAE?AVCString@@XZ 004b942c f   mochartrenderer.obj
 0001:000b84c3       ?SetNormalizationField@CMoChartRenderer@@QAEXPBD@Z 004b94c3 f   mochartrenderer.obj
 0001:000b84f5       ?GetMinPieSize@CMoChartRenderer@@QAEFXZ 004b94f5 f   mochartrenderer.obj
 0001:000b852e       ?SetMinPieSize@CMoChartRenderer@@QAEXF@Z 004b952e f   mochartrenderer.obj
 0001:000b8561       ?GetMaxPieSize@CMoChartRenderer@@QAEFXZ 004b9561 f   mochartrenderer.obj
 0001:000b859a       ?SetMaxPieSize@CMoChartRenderer@@QAEXF@Z 004b959a f   mochartrenderer.obj
 0001:000b85cd       ?GetShowOutline@CMoChartRenderer@@QAEHXZ 004b95cd f   mochartrenderer.obj
 0001:000b8605       ?SetShowOutline@CMoChartRenderer@@QAEXH@Z 004b9605 f   mochartrenderer.obj
 0001:000b8637       ?GetTag@CMoChartRenderer@@QAE?AVCString@@XZ 004b9637 f   mochartrenderer.obj
 0001:000b86ce       ?SetTag@CMoChartRenderer@@QAEXPBD@Z 004b96ce f   mochartrenderer.obj
 0001:000b8700       ?GetCustomChart@CMoChartRenderer@@QAEPAUIUnknown@@XZ 004b9700 f   mochartrenderer.obj
 0001:000b8738       ?SetCustomChart@CMoChartRenderer@@QAEXPAUIUnknown@@@Z 004b9738 f   mochartrenderer.obj
 0001:000b876a       ?GetDrawBackground@CMoChartRenderer@@QAEHXZ 004b976a f   mochartrenderer.obj
 0001:000b87a2       ?SetDrawBackground@CMoChartRenderer@@QAEXH@Z 004b97a2 f   mochartrenderer.obj
 0001:000b87d4       ?GetField@CMoChartRenderer@@QAE?AVCString@@F@Z 004b97d4 f   mochartrenderer.obj
 0001:000b887b       ?SetField@CMoChartRenderer@@QAEXFPBD@Z 004b987b f   mochartrenderer.obj
 0001:000b88bb       ?GetColor@CMoChartRenderer@@QAEKF@Z 004b98bb f   mochartrenderer.obj
 0001:000b8905       ?SetColor@CMoChartRenderer@@QAEXFK@Z 004b9905 f   mochartrenderer.obj
 0001:000b8945       ?NoNullValue@CMoChartRenderer@@QAEXXZ 004b9945 f   mochartrenderer.obj
 0001:000b8980       ?GetField@CMoClassBreaksRenderer@@QAE?AVCString@@XZ 004b9980 f   moclassbreaksrenderer.obj
 0001:000b8a17       ?SetField@CMoClassBreaksRenderer@@QAEXPBD@Z 004b9a17 f   moclassbreaksrenderer.obj
 0001:000b8a49       ?GetBreakCount@CMoClassBreaksRenderer@@QAEFXZ 004b9a49 f   moclassbreaksrenderer.obj
 0001:000b8a82       ?SetBreakCount@CMoClassBreaksRenderer@@QAEXF@Z 004b9a82 f   moclassbreaksrenderer.obj
 0001:000b8ab5       ?GetTag@CMoClassBreaksRenderer@@QAE?AVCString@@XZ 004b9ab5 f   moclassbreaksrenderer.obj
 0001:000b8b4c       ?SetTag@CMoClassBreaksRenderer@@QAEXPBD@Z 004b9b4c f   moclassbreaksrenderer.obj
 0001:000b8b7e       ?GetSymbolType@CMoClassBreaksRenderer@@QAEJXZ 004b9b7e f   moclassbreaksrenderer.obj
 0001:000b8bb6       ?SetSymbolType@CMoClassBreaksRenderer@@QAEXJ@Z 004b9bb6 f   moclassbreaksrenderer.obj
 0001:000b8be8       ?GetDrawBackground@CMoClassBreaksRenderer@@QAEHXZ 004b9be8 f   moclassbreaksrenderer.obj
 0001:000b8c20       ?SetDrawBackground@CMoClassBreaksRenderer@@QAEXH@Z 004b9c20 f   moclassbreaksrenderer.obj
 0001:000b8c52       ?GetBreak@CMoClassBreaksRenderer@@QAENF@Z 004b9c52 f   moclassbreaksrenderer.obj
 0001:000b8ca3       ?SetBreak@CMoClassBreaksRenderer@@QAEXFN@Z 004b9ca3 f   moclassbreaksrenderer.obj
 0001:000b8ce7       ?GetSymbol@CMoClassBreaksRenderer@@QAE?AVCMoSymbol@@F@Z 004b9ce7 f   moclassbreaksrenderer.obj
 0001:000b8d54       ?SetRefSymbol@CMoClassBreaksRenderer@@QAEXFPAUIDispatch@@@Z 004b9d54 f   moclassbreaksrenderer.obj
 0001:000b8d94       ?RampColors@CMoClassBreaksRenderer@@QAEXKK@Z 004b9d94 f   moclassbreaksrenderer.obj
 0001:000b8dd3       ?SizeSymbols@CMoClassBreaksRenderer@@QAEXFF@Z 004b9dd3 f   moclassbreaksrenderer.obj
 0001:000b8e20       ??0CMoSymbol@@QAE@PAUIDispatch@@@Z 004b9e20 f i moclassbreaksrenderer.obj
 0001:000b8e50       ?GetConnected@CMoDataConnection@@QAEHXZ 004b9e50 f   modataconnection.obj
 0001:000b8e88       ?SetConnected@CMoDataConnection@@QAEXH@Z 004b9e88 f   modataconnection.obj
 0001:000b8eba       ?GetDatabase@CMoDataConnection@@QAE?AVCString@@XZ 004b9eba f   modataconnection.obj
 0001:000b8f51       ?SetDatabase@CMoDataConnection@@QAEXPBD@Z 004b9f51 f   modataconnection.obj
 0001:000b8f83       ?GetServer@CMoDataConnection@@QAE?AVCString@@XZ 004b9f83 f   modataconnection.obj
 0001:000b901a       ?SetServer@CMoDataConnection@@QAEXPBD@Z 004ba01a f   modataconnection.obj
 0001:000b904c       ?GetUser@CMoDataConnection@@QAE?AVCString@@XZ 004ba04c f   modataconnection.obj
 0001:000b90e3       ?SetUser@CMoDataConnection@@QAEXPBD@Z 004ba0e3 f   modataconnection.obj
 0001:000b9115       ?GetPassword@CMoDataConnection@@QAE?AVCString@@XZ 004ba115 f   modataconnection.obj
 0001:000b91ac       ?SetPassword@CMoDataConnection@@QAEXPBD@Z 004ba1ac f   modataconnection.obj
 0001:000b91de       ?GetGeoDatasets@CMoDataConnection@@QAEPAUIDispatch@@XZ 004ba1de f   modataconnection.obj
 0001:000b9216       ?SetGeoDatasets@CMoDataConnection@@QAEXPAUIDispatch@@@Z 004ba216 f   modataconnection.obj
 0001:000b9248       ?GetConnection@CMoDataConnection@@QAEJXZ 004ba248 f   modataconnection.obj
 0001:000b9280       ?SetConnection@CMoDataConnection@@QAEXJ@Z 004ba280 f   modataconnection.obj
 0001:000b92b2       ?GetConnectError@CMoDataConnection@@QAEJXZ 004ba2b2 f   modataconnection.obj
 0001:000b92ea       ?SetConnectError@CMoDataConnection@@QAEXJ@Z 004ba2ea f   modataconnection.obj
 0001:000b931c       ?GetExtendedError@CMoDataConnection@@QAEJXZ 004ba31c f   modataconnection.obj
 0001:000b9354       ?SetExtendedError@CMoDataConnection@@QAEXJ@Z 004ba354 f   modataconnection.obj
 0001:000b9386       ?GetExtendedErrorString@CMoDataConnection@@QAE?AVCString@@XZ 004ba386 f   modataconnection.obj
 0001:000b941d       ?SetExtendedErrorString@CMoDataConnection@@QAEXPBD@Z 004ba41d f   modataconnection.obj
 0001:000b944f       ?Connect@CMoDataConnection@@QAEHXZ 004ba44f f   modataconnection.obj
 0001:000b948f       ?Disconnect@CMoDataConnection@@QAEXXZ 004ba48f f   modataconnection.obj
 0001:000b94c1       ?FindGeoDataset@CMoDataConnection@@QAE?AVCMoGeoDataset@@PBD@Z 004ba4c1 f   modataconnection.obj
 0001:000b952d       ?AddGeoDataset@CMoDataConnection@@QAE?AVCMoGeoDataset@@PBDJPAUIDispatch@@ABUtagVARIANT@@2@Z 004ba52d f   modataconnection.obj
 0001:000b95a9       ?DeleteGeoDataset@CMoDataConnection@@QAEHPBD@Z 004ba5a9 f   modataconnection.obj
 0001:000b95f2       ?FindCoordinateSystem@CMoDataConnection@@QAEPAUIDispatch@@PBD@Z 004ba5f2 f   modataconnection.obj
 0001:000b963b       ?ClearConnectError@CMoDataConnection@@QAEXXZ 004ba63b f   modataconnection.obj
 0001:000b966d       ?FindArcInfoCoordinateSystem@CMoDataConnection@@QAEPAUIDispatch@@PBD@Z 004ba66d f   modataconnection.obj
 0001:000b96b6       ?ReturnVersions@CMoDataConnection@@QAE?AVCMoStrings@@XZ 004ba6b6 f   modataconnection.obj
 0001:000b971a       ?GetVersion@CMoDataConnection@@QAE?AVCString@@XZ 004ba71a f   modataconnection.obj
 0001:000b97b8       ?SetVersion@CMoDataConnection@@QAEXPBD@Z 004ba7b8 f   modataconnection.obj
 0001:000b9800       ??0CMoGeoDataset@@QAE@PAUIDispatch@@@Z 004ba800 f i modataconnection.obj
 0001:000b9830       ??0CMoStrings@@QAE@PAUIDispatch@@@Z 004ba830 f i modataconnection.obj
 0001:000b9860       ?GetType@CMoDatum@@QAEJXZ  004ba860 f   modatum.obj
 0001:000b9898       ?SetType@CMoDatum@@QAEXJ@Z 004ba898 f   modatum.obj
 0001:000b98ca       ?GetName@CMoDatum@@QAE?AVCString@@XZ 004ba8ca f   modatum.obj
 0001:000b9961       ?SetName@CMoDatum@@QAEXPBD@Z 004ba961 f   modatum.obj
 0001:000b9993       ?GetSpheroid@CMoDatum@@QAE?AVCMoSpheroid@@XZ 004ba993 f   modatum.obj
 0001:000b99f0       ?SetSpheroid@CMoDatum@@QAEXPAUIDispatch@@@Z 004ba9f0 f   modatum.obj
 0001:000b9a30       ??0CMoSpheroid@@QAE@PAUIDispatch@@@Z 004baa30 f i modatum.obj
 0001:000b9a60       ?GetField@CMoDotDensityRenderer@@QAE?AVCString@@XZ 004baa60 f   modotdensityrenderer.obj
 0001:000b9af7       ?SetField@CMoDotDensityRenderer@@QAEXPBD@Z 004baaf7 f   modotdensityrenderer.obj
 0001:000b9b29       ?GetDotValue@CMoDotDensityRenderer@@QAENXZ 004bab29 f   modotdensityrenderer.obj
 0001:000b9b68       ?SetDotValue@CMoDotDensityRenderer@@QAEXN@Z 004bab68 f   modotdensityrenderer.obj
 0001:000b9b9e       ?GetDotSize@CMoDotDensityRenderer@@QAEFXZ 004bab9e f   modotdensityrenderer.obj
 0001:000b9bd7       ?SetDotSize@CMoDotDensityRenderer@@QAEXF@Z 004babd7 f   modotdensityrenderer.obj
 0001:000b9c0a       ?GetDotColor@CMoDotDensityRenderer@@QAEKXZ 004bac0a f   modotdensityrenderer.obj
 0001:000b9c42       ?SetDotColor@CMoDotDensityRenderer@@QAEXK@Z 004bac42 f   modotdensityrenderer.obj
 0001:000b9c74       ?GetDrawBackground@CMoDotDensityRenderer@@QAEHXZ 004bac74 f   modotdensityrenderer.obj
 0001:000b9cac       ?SetDrawBackground@CMoDotDensityRenderer@@QAEXH@Z 004bacac f   modotdensityrenderer.obj
 0001:000b9cde       ?GetTag@CMoDotDensityRenderer@@QAE?AVCString@@XZ 004bacde f   modotdensityrenderer.obj
 0001:000b9d75       ?SetTag@CMoDotDensityRenderer@@QAEXPBD@Z 004bad75 f   modotdensityrenderer.obj
 0001:000b9db0       ?GetExtent@CMoEllipse@@QAE?AVCMoRectangle@@XZ 004badb0 f   moellipse.obj
 0001:000b9e0d       ?SetExtent@CMoEllipse@@QAEXPAUIDispatch@@@Z 004bae0d f   moellipse.obj
 0001:000b9e3f       ?GetLeft@CMoEllipse@@QAENXZ 004bae3f f   moellipse.obj
 0001:000b9e7e       ?SetLeft@CMoEllipse@@QAEXN@Z 004bae7e f   moellipse.obj
 0001:000b9eb4       ?GetRight@CMoEllipse@@QAENXZ 004baeb4 f   moellipse.obj
 0001:000b9ef3       ?SetRight@CMoEllipse@@QAEXN@Z 004baef3 f   moellipse.obj
 0001:000b9f29       ?GetTop@CMoEllipse@@QAENXZ 004baf29 f   moellipse.obj
 0001:000b9f68       ?SetTop@CMoEllipse@@QAEXN@Z 004baf68 f   moellipse.obj
 0001:000b9f9e       ?GetBottom@CMoEllipse@@QAENXZ 004baf9e f   moellipse.obj
 0001:000b9fdd       ?SetBottom@CMoEllipse@@QAEXN@Z 004bafdd f   moellipse.obj
 0001:000ba013       ?GetCenter@CMoEllipse@@QAE?AVCMoPoint@@XZ 004bb013 f   moellipse.obj
 0001:000ba070       ?SetCenter@CMoEllipse@@QAEXPAUIDispatch@@@Z 004bb070 f   moellipse.obj
 0001:000ba0a2       ?GetWidth@CMoEllipse@@QAENXZ 004bb0a2 f   moellipse.obj
 0001:000ba0e1       ?SetWidth@CMoEllipse@@QAEXN@Z 004bb0e1 f   moellipse.obj
 0001:000ba117       ?GetHeight@CMoEllipse@@QAENXZ 004bb117 f   moellipse.obj
 0001:000ba156       ?SetHeight@CMoEllipse@@QAEXN@Z 004bb156 f   moellipse.obj
 0001:000ba18c       ?GetShapeType@CMoEllipse@@QAEJXZ 004bb18c f   moellipse.obj
 0001:000ba1c4       ?SetShapeType@CMoEllipse@@QAEXJ@Z 004bb1c4 f   moellipse.obj
 0001:000ba1f6       ?IsPointIn@CMoEllipse@@QAEHPAUIDispatch@@@Z 004bb1f6 f   moellipse.obj
 0001:000ba23f       ?Offset@CMoEllipse@@QAEXNN@Z 004bb23f f   moellipse.obj
 0001:000ba286       ?Inset@CMoEllipse@@QAEXNN@Z 004bb286 f   moellipse.obj
 0001:000ba2cd       ?Union@CMoEllipse@@QAEPAUIDispatch@@PAU2@ABUtagVARIANT@@@Z 004bb2cd f   moellipse.obj
 0001:000ba31a       ?Xor@CMoEllipse@@QAEPAUIDispatch@@PAU2@ABUtagVARIANT@@@Z 004bb31a f   moellipse.obj
 0001:000ba367       ?Difference@CMoEllipse@@QAEPAUIDispatch@@PAU2@ABUtagVARIANT@@@Z 004bb367 f   moellipse.obj
 0001:000ba3b4       ?Intersect@CMoEllipse@@QAEPAUIDispatch@@PAU2@ABUtagVARIANT@@@Z 004bb3b4 f   moellipse.obj
 0001:000ba401       ?Buffer@CMoEllipse@@QAEPAUIDispatch@@NABUtagVARIANT@@@Z 004bb401 f   moellipse.obj
 0001:000ba460       ?GetTag@CMoEventRenderer@@QAE?AVCString@@XZ 004bb460 f   moeventrenderer.obj
 0001:000ba4f7       ?SetTag@CMoEventRenderer@@QAEXPBD@Z 004bb4f7 f   moeventrenderer.obj
 0001:000ba529       ?GetUseDefault@CMoEventRenderer@@QAEHXZ 004bb529 f   moeventrenderer.obj
 0001:000ba561       ?SetUseDefault@CMoEventRenderer@@QAEXH@Z 004bb561 f   moeventrenderer.obj
 0001:000ba593       ?GetDefaultSymbol@CMoEventRenderer@@QAE?AVCMoSymbol@@XZ 004bb593 f   moeventrenderer.obj
 0001:000ba5f0       ?SetDefaultSymbol@CMoEventRenderer@@QAEXPAUIDispatch@@@Z 004bb5f0 f   moeventrenderer.obj
 0001:000ba622       ?GetSymbolType@CMoEventRenderer@@QAEJXZ 004bb622 f   moeventrenderer.obj
 0001:000ba65a       ?SetSymbolType@CMoEventRenderer@@QAEXJ@Z 004bb65a f   moeventrenderer.obj
 0001:000ba68c       ?GetValueCount@CMoEventRenderer@@QAEFXZ 004bb68c f   moeventrenderer.obj
 0001:000ba6c5       ?SetValueCount@CMoEventRenderer@@QAEXF@Z 004bb6c5 f   moeventrenderer.obj
 0001:000ba6f8       ?GetFeatureRouteIDField@CMoEventRenderer@@QAE?AVCString@@XZ 004bb6f8 f   moeventrenderer.obj
 0001:000ba78f       ?SetFeatureRouteIDField@CMoEventRenderer@@QAEXPBD@Z 004bb78f f   moeventrenderer.obj
 0001:000ba7c1       ?GetEventRouteIDField@CMoEventRenderer@@QAE?AVCString@@XZ 004bb7c1 f   moeventrenderer.obj
 0001:000ba858       ?SetEventRouteIDField@CMoEventRenderer@@QAEXPBD@Z 004bb858 f   moeventrenderer.obj
 0001:000ba88a       ?GetStartMeasureField@CMoEventRenderer@@QAE?AVCString@@XZ 004bb88a f   moeventrenderer.obj
 0001:000ba921       ?SetStartMeasureField@CMoEventRenderer@@QAEXPBD@Z 004bb921 f   moeventrenderer.obj
 0001:000ba953       ?GetEndMeasureField@CMoEventRenderer@@QAE?AVCString@@XZ 004bb953 f   moeventrenderer.obj
 0001:000ba9ea       ?SetEndMeasureField@CMoEventRenderer@@QAEXPBD@Z 004bb9ea f   moeventrenderer.obj
 0001:000baa1c       ?GetSymbolField@CMoEventRenderer@@QAE?AVCString@@XZ 004bba1c f   moeventrenderer.obj
 0001:000baab3       ?SetSymbolField@CMoEventRenderer@@QAEXPBD@Z 004bbab3 f   moeventrenderer.obj
 0001:000baae5       ?GetDrawBackground@CMoEventRenderer@@QAEHXZ 004bbae5 f   moeventrenderer.obj
 0001:000bab1d       ?SetDrawBackground@CMoEventRenderer@@QAEXH@Z 004bbb1d f   moeventrenderer.obj
 0001:000bab4f       ?GetEventTable@CMoEventRenderer@@QAE?AVCMoTable@@XZ 004bbb4f f   moeventrenderer.obj
 0001:000babac       ?SetEventTable@CMoEventRenderer@@QAEXPAUIDispatch@@@Z 004bbbac f   moeventrenderer.obj
 0001:000babde       ?GetIndexEvents@CMoEventRenderer@@QAEHXZ 004bbbde f   moeventrenderer.obj
 0001:000bac16       ?SetIndexEvents@CMoEventRenderer@@QAEXH@Z 004bbc16 f   moeventrenderer.obj
 0001:000bac48       ?GetIndexExtent@CMoEventRenderer@@QAE?AVCMoRectangle@@XZ 004bbc48 f   moeventrenderer.obj
 0001:000baca5       ?SetIndexExtent@CMoEventRenderer@@QAEXPAUIDispatch@@@Z 004bbca5 f   moeventrenderer.obj
 0001:000bacd7       ?GetSymbol@CMoEventRenderer@@QAE?AVCMoSymbol@@F@Z 004bbcd7 f   moeventrenderer.obj
 0001:000bad44       ?GetValue@CMoEventRenderer@@QAE?AVCString@@F@Z 004bbd44 f   moeventrenderer.obj
 0001:000badeb       ?SetValue@CMoEventRenderer@@QAEXFPBD@Z 004bbdeb f   moeventrenderer.obj
 0001:000bae2b       ?InvalidateIndex@CMoEventRenderer@@QAEHPBD@Z 004bbe2b f   moeventrenderer.obj
 0001:000bae80       ??0CMoTable@@QAE@PAUIDispatch@@@Z 004bbe80 f i moeventrenderer.obj
 0001:000baeb0       ?GetName@CMoField@@QAE?AVCString@@XZ 004bbeb0 f   mofield.obj
 0001:000baf47       ?SetName@CMoField@@QAEXPBD@Z 004bbf47 f   mofield.obj
 0001:000baf79       ?GetType@CMoField@@QAEJXZ  004bbf79 f   mofield.obj
 0001:000bafb1       ?SetType@CMoField@@QAEXJ@Z 004bbfb1 f   mofield.obj
 0001:000bafe3       ?GetValueAsString@CMoField@@QAE?AVCString@@XZ 004bbfe3 f   mofield.obj
 0001:000bb07a       ?SetValueAsString@CMoField@@QAEXPBD@Z 004bc07a f   mofield.obj
 0001:000bb0ac       ?GetValue@CMoField@@QAE?AUtagVARIANT@@XZ 004bc0ac f   mofield.obj
 0001:000bb106       ?SetValue@CMoField@@QAEXABUtagVARIANT@@@Z 004bc106 f   mofield.obj
 0001:000bb138       ?Get_Value@CMoField@@QAE?AUtagVARIANT@@XZ 004bc138 f   mofield.obj
 0001:000bb192       ?Set_Value@CMoField@@QAEXABUtagVARIANT@@@Z 004bc192 f   mofield.obj
 0001:000bb1d0       ?GetCount@CMoFields@@QAEFXZ 004bc1d0 f   mofields.obj
 0001:000bb209       ?SetCount@CMoFields@@QAEXF@Z 004bc209 f   mofields.obj
 0001:000bb23c       ?Item@CMoFields@@QAE?AVCMoField@@ABUtagVARIANT@@@Z 004bc23c f   mofields.obj
 0001:000bb2b0       ??0CMoField@@QAE@PAUIDispatch@@@Z 004bc2b0 f i mofields.obj
 0001:000bb2e0       ?GetValid@CMoGeocoder@@QAEHXZ 004bc2e0 f   mogeocoder.obj
 0001:000bb318       ?SetValid@CMoGeocoder@@QAEXH@Z 004bc318 f   mogeocoder.obj
 0001:000bb34a       ?GetCandidateCount@CMoGeocoder@@QAEFXZ 004bc34a f   mogeocoder.obj
 0001:000bb383       ?SetCandidateCount@CMoGeocoder@@QAEXF@Z 004bc383 f   mogeocoder.obj
 0001:000bb3b6       ?GetSqueezeFactor@CMoGeocoder@@QAENXZ 004bc3b6 f   mogeocoder.obj
 0001:000bb3f5       ?SetSqueezeFactor@CMoGeocoder@@QAEXN@Z 004bc3f5 f   mogeocoder.obj
 0001:000bb42b       ?GetOffset@CMoGeocoder@@QAENXZ 004bc42b f   mogeocoder.obj
 0001:000bb46a       ?SetOffset@CMoGeocoder@@QAEXN@Z 004bc46a f   mogeocoder.obj
 0001:000bb4a0       ?GetMatchRules@CMoGeocoder@@QAE?AVCString@@XZ 004bc4a0 f   mogeocoder.obj
 0001:000bb537       ?SetMatchRules@CMoGeocoder@@QAEXPBD@Z 004bc537 f   mogeocoder.obj
 0001:000bb569       ?GetMatchVariableCount@CMoGeocoder@@QAEFXZ 004bc569 f   mogeocoder.obj
 0001:000bb5a2       ?SetMatchVariableCount@CMoGeocoder@@QAEXF@Z 004bc5a2 f   mogeocoder.obj
 0001:000bb5d5       ?GetStandardizer@CMoGeocoder@@QAE?AVCMoStandardizer@@XZ 004bc5d5 f   mogeocoder.obj
 0001:000bb632       ?SetStandardizer@CMoGeocoder@@QAEXPAUIDispatch@@@Z 004bc632 f   mogeocoder.obj
 0001:000bb664       ?GetStreetTable@CMoGeocoder@@QAE?AVCMoGeoDataset@@XZ 004bc664 f   mogeocoder.obj
 0001:000bb6c1       ?SetStreetTable@CMoGeocoder@@QAEXPAUIDispatch@@@Z 004bc6c1 f   mogeocoder.obj
 0001:000bb6f3       ?GetLastError@CMoGeocoder@@QAEJXZ 004bc6f3 f   mogeocoder.obj
 0001:000bb72b       ?SetLastError@CMoGeocoder@@QAEXJ@Z 004bc72b f   mogeocoder.obj
 0001:000bb75d       ?GetIntersectionMatchRules@CMoGeocoder@@QAE?AVCString@@XZ 004bc75d f   mogeocoder.obj
 0001:000bb7f4       ?SetIntersectionMatchRules@CMoGeocoder@@QAEXPBD@Z 004bc7f4 f   mogeocoder.obj
 0001:000bb826       ?GetIntersectionMatchVariableCount@CMoGeocoder@@QAEFXZ 004bc826 f   mogeocoder.obj
 0001:000bb85f       ?SetIntersectionMatchVariableCount@CMoGeocoder@@QAEXF@Z 004bc85f f   mogeocoder.obj
 0001:000bb892       ?GetMinimumMatchScore@CMoGeocoder@@QAEFXZ 004bc892 f   mogeocoder.obj
 0001:000bb8cb       ?SetMinimumMatchScore@CMoGeocoder@@QAEXF@Z 004bc8cb f   mogeocoder.obj
 0001:000bb8fe       ?GetSpellingSensitivity@CMoGeocoder@@QAEMXZ 004bc8fe f   mogeocoder.obj
 0001:000bb936       ?SetSpellingSensitivity@CMoGeocoder@@QAEXM@Z 004bc936 f   mogeocoder.obj
 0001:000bb96d       ?GetMatchWhenAmbiguous@CMoGeocoder@@QAEHXZ 004bc96d f   mogeocoder.obj
 0001:000bb9a5       ?SetMatchWhenAmbiguous@CMoGeocoder@@QAEXH@Z 004bc9a5 f   mogeocoder.obj
 0001:000bb9d7       ?GetSearchQueries@CMoGeocoder@@QAE?AVCMoStrings@@XZ 004bc9d7 f   mogeocoder.obj
 0001:000bba34       ?SetSearchQueries@CMoGeocoder@@QAEXPAUIDispatch@@@Z 004bca34 f   mogeocoder.obj
 0001:000bba66       ?GetCandidate@CMoGeocoder@@QAE?AVCString@@F@Z 004bca66 f   mogeocoder.obj
 0001:000bbb0d       ?GetMatchVariable@CMoGeocoder@@QAE?AVCString@@F@Z 004bcb0d f   mogeocoder.obj
 0001:000bbbb4       ?GetMatchVariableField@CMoGeocoder@@QAE?AVCString@@PBD@Z 004bcbb4 f   mogeocoder.obj
 0001:000bbc5a       ?SetMatchVariableField@CMoGeocoder@@QAEXPBD0@Z 004bcc5a f   mogeocoder.obj
 0001:000bbc99       ?LocateCandidate@CMoGeocoder@@QAE?AVCMoAddressLocation@@F@Z 004bcc99 f   mogeocoder.obj
 0001:000bbd06       ?GetIntersectionMatchVariable@CMoGeocoder@@QAE?AVCString@@F@Z 004bcd06 f   mogeocoder.obj
 0001:000bbdad       ?GetMatchVariableIntersectionLink@CMoGeocoder@@QAE?AVCString@@PBDJ@Z 004bcdad f   mogeocoder.obj
 0001:000bbe57       ?SetMatchVariableIntersectionLink@CMoGeocoder@@QAEXPBDJ0@Z 004bce57 f   mogeocoder.obj
 0001:000bbe9a       ?GetBatchMatchVariableField@CMoGeocoder@@QAE?AVCString@@PBD@Z 004bce9a f   mogeocoder.obj
 0001:000bbf40       ?SetBatchMatchVariableField@CMoGeocoder@@QAEXPBD0@Z 004bcf40 f   mogeocoder.obj
 0001:000bbf7f       ?ListIndices@CMoGeocoder@@QAE?AVCMoStrings@@XZ 004bcf7f f   mogeocoder.obj
 0001:000bbfe3       ?IndexStatus@CMoGeocoder@@QAEJXZ 004bcfe3 f   mogeocoder.obj
 0001:000bc023       ?EraseIndices@CMoGeocoder@@QAEHXZ 004bd023 f   mogeocoder.obj
 0001:000bc063       ?AddIndex@CMoGeocoder@@QAEHPBD0J@Z 004bd063 f   mogeocoder.obj
 0001:000bc0b4       ?BuildIndices@CMoGeocoder@@QAEHH@Z 004bd0b4 f   mogeocoder.obj
 0001:000bc0fd       ?GenerateCandidates@CMoGeocoder@@QAEJXZ 004bd0fd f   mogeocoder.obj
 0001:000bc13d       ?BatchMatch@CMoGeocoder@@QAEJPAUIDispatch@@PBD010@Z 004bd13d f   mogeocoder.obj
 0001:000bc1a0       ??0CMoStandardizer@@QAE@PAUIDispatch@@@Z 004bd1a0 f i mogeocoder.obj
 0001:000bc1d0       ??0CMoAddressLocation@@QAE@PAUIDispatch@@@Z 004bd1d0 f i mogeocoder.obj
 0001:000bc200       ?GetType@CMoGeoCoordSys@@QAEJXZ 004bd200 f   mogeocoordsys.obj
 0001:000bc238       ?SetType@CMoGeoCoordSys@@QAEXJ@Z 004bd238 f   mogeocoordsys.obj
 0001:000bc26a       ?GetName@CMoGeoCoordSys@@QAE?AVCString@@XZ 004bd26a f   mogeocoordsys.obj
 0001:000bc301       ?SetName@CMoGeoCoordSys@@QAEXPBD@Z 004bd301 f   mogeocoordsys.obj
 0001:000bc333       ?GetDatum@CMoGeoCoordSys@@QAE?AVCMoDatum@@XZ 004bd333 f   mogeocoordsys.obj
 0001:000bc390       ?SetDatum@CMoGeoCoordSys@@QAEXPAUIDispatch@@@Z 004bd390 f   mogeocoordsys.obj
 0001:000bc3c2       ?GetUnit@CMoGeoCoordSys@@QAE?AVCMoUnit@@XZ 004bd3c2 f   mogeocoordsys.obj
 0001:000bc41f       ?SetUnit@CMoGeoCoordSys@@QAEXPAUIDispatch@@@Z 004bd41f f   mogeocoordsys.obj
 0001:000bc451       ?GetPrimeMeridian@CMoGeoCoordSys@@QAE?AVCMoPrimeMeridian@@XZ 004bd451 f   mogeocoordsys.obj
 0001:000bc4ae       ?SetPrimeMeridian@CMoGeoCoordSys@@QAEXPAUIDispatch@@@Z 004bd4ae f   mogeocoordsys.obj
 0001:000bc4e0       ?GetIsProjected@CMoGeoCoordSys@@QAEHXZ 004bd4e0 f   mogeocoordsys.obj
 0001:000bc518       ?SetIsProjected@CMoGeoCoordSys@@QAEXH@Z 004bd518 f   mogeocoordsys.obj
 0001:000bc54a       ?Transform@CMoGeoCoordSys@@QAEPAUIDispatch@@PAU2@0ABUtagVARIANT@@1@Z 004bd54a f   mogeocoordsys.obj
 0001:000bc59f       ?Export@CMoGeoCoordSys@@QAEXPBD@Z 004bd59f f   mogeocoordsys.obj
 0001:000bc5da       ?ReturnDescription@CMoGeoCoordSys@@QAE?AVCString@@XZ 004bd5da f   mogeocoordsys.obj
 0001:000bc680       ??0CMoDatum@@QAE@PAUIDispatch@@@Z 004bd680 f i mogeocoordsys.obj
 0001:000bc6b0       ??0CMoUnit@@QAE@PAUIDispatch@@@Z 004bd6b0 f i mogeocoordsys.obj
 0001:000bc6e0       ??0CMoPrimeMeridian@@QAE@PAUIDispatch@@@Z 004bd6e0 f i mogeocoordsys.obj
 0001:000bc710       ?GetName@CMoGeoDataset@@QAE?AVCString@@XZ 004bd710 f   mogeodataset.obj
 0001:000bc7a7       ?SetName@CMoGeoDataset@@QAEXPBD@Z 004bd7a7 f   mogeodataset.obj
 0001:000bc7d9       ?GetAllowSharing@CMoGeoDataset@@QAEHXZ 004bd7d9 f   mogeodataset.obj
 0001:000bc811       ?SetAllowSharing@CMoGeoDataset@@QAEXH@Z 004bd811 f   mogeodataset.obj
 0001:000bc843       ?GetHasZ@CMoGeoDataset@@QAEHXZ 004bd843 f   mogeodataset.obj
 0001:000bc87b       ?SetHasZ@CMoGeoDataset@@QAEXH@Z 004bd87b f   mogeodataset.obj
 0001:000bc8ad       ?GetHasMeasure@CMoGeoDataset@@QAEHXZ 004bd8ad f   mogeodataset.obj
 0001:000bc8e5       ?SetHasMeasure@CMoGeoDataset@@QAEXH@Z 004bd8e5 f   mogeodataset.obj
 0001:000bc920       ?GetCount@CMoGeoDatasets@@QAEFXZ 004bd920 f   mogeodatasets.obj
 0001:000bc959       ?SetCount@CMoGeoDatasets@@QAEXF@Z 004bd959 f   mogeodatasets.obj
 0001:000bc98c       ?Item@CMoGeoDatasets@@QAEPAUIDispatch@@ABUtagVARIANT@@@Z 004bd98c f   mogeodatasets.obj
 0001:000bc9e0       ?GetTag@CMoGeoEvent@@QAE?AVCString@@XZ 004bd9e0 f   mogeoevent.obj
 0001:000bca77       ?SetTag@CMoGeoEvent@@QAEXPBD@Z 004bda77 f   mogeoevent.obj
 0001:000bcaa9       ?GetSymbolIndex@CMoGeoEvent@@QAEJXZ 004bdaa9 f   mogeoevent.obj
 0001:000bcae1       ?SetSymbolIndex@CMoGeoEvent@@QAEXJ@Z 004bdae1 f   mogeoevent.obj
 0001:000bcb13       ?GetX@CMoGeoEvent@@QAENXZ  004bdb13 f   mogeoevent.obj
 0001:000bcb52       ?SetX@CMoGeoEvent@@QAEXN@Z 004bdb52 f   mogeoevent.obj
 0001:000bcb88       ?GetY@CMoGeoEvent@@QAENXZ  004bdb88 f   mogeoevent.obj
 0001:000bcbc7       ?SetY@CMoGeoEvent@@QAEXN@Z 004bdbc7 f   mogeoevent.obj
 0001:000bcbfd       ?GetIndex@CMoGeoEvent@@QAEJXZ 004bdbfd f   mogeoevent.obj
 0001:000bcc35       ?SetIndex@CMoGeoEvent@@QAEXJ@Z 004bdc35 f   mogeoevent.obj
 0001:000bcc67       ?GetShape@CMoGeoEvent@@QAEPAUIDispatch@@XZ 004bdc67 f   mogeoevent.obj
 0001:000bcc9f       ?SetShape@CMoGeoEvent@@QAEXPAUIDispatch@@@Z 004bdc9f f   mogeoevent.obj
 0001:000bccd1       ?MoveTo@CMoGeoEvent@@QAEXNN@Z 004bdcd1 f   mogeoevent.obj
 0001:000bcd18       ?Move@CMoGeoEvent@@QAEXNN@Z 004bdd18 f   mogeoevent.obj
 0001:000bcd60       ?GetType@CMoGeoTransformation@@QAEJXZ 004bdd60 f   mogeotransformation.obj
 0001:000bcd98       ?SetType@CMoGeoTransformation@@QAEXJ@Z 004bdd98 f   mogeotransformation.obj
 0001:000bcdca       ?GetName@CMoGeoTransformation@@QAE?AVCString@@XZ 004bddca f   mogeotransformation.obj
 0001:000bce61       ?SetName@CMoGeoTransformation@@QAEXPBD@Z 004bde61 f   mogeotransformation.obj
 0001:000bce93       ?GetFromGeoCoordSys@CMoGeoTransformation@@QAE?AVCMoGeoCoordSys@@XZ 004bde93 f   mogeotransformation.obj
 0001:000bcef0       ?SetFromGeoCoordSys@CMoGeoTransformation@@QAEXPAUIDispatch@@@Z 004bdef0 f   mogeotransformation.obj
 0001:000bcf22       ?GetToGeoCoordSys@CMoGeoTransformation@@QAE?AVCMoGeoCoordSys@@XZ 004bdf22 f   mogeotransformation.obj
 0001:000bcf7f       ?SetToGeoCoordSys@CMoGeoTransformation@@QAEXPAUIDispatch@@@Z 004bdf7f f   mogeotransformation.obj
 0001:000bcfb1       ?GetMethod@CMoGeoTransformation@@QAEJXZ 004bdfb1 f   mogeotransformation.obj
 0001:000bcfe9       ?SetMethod@CMoGeoTransformation@@QAEXJ@Z 004bdfe9 f   mogeotransformation.obj
 0001:000bd01b       ?GetDirection@CMoGeoTransformation@@QAEJXZ 004be01b f   mogeotransformation.obj
 0001:000bd053       ?SetDirection@CMoGeoTransformation@@QAEXJ@Z 004be053 f   mogeotransformation.obj
 0001:000bd085       ?GetSecondType@CMoGeoTransformation@@QAEJXZ 004be085 f   mogeotransformation.obj
 0001:000bd0bd       ?SetSecondType@CMoGeoTransformation@@QAEXJ@Z 004be0bd f   mogeotransformation.obj
 0001:000bd0ef       ?GetSecondName@CMoGeoTransformation@@QAE?AVCString@@XZ 004be0ef f   mogeotransformation.obj
 0001:000bd186       ?SetSecondName@CMoGeoTransformation@@QAEXPBD@Z 004be186 f   mogeotransformation.obj
 0001:000bd1b8       ?GetSecondDirection@CMoGeoTransformation@@QAEJXZ 004be1b8 f   mogeotransformation.obj
 0001:000bd1f0       ?SetSecondDirection@CMoGeoTransformation@@QAEXJ@Z 004be1f0 f   mogeotransformation.obj
 0001:000bd222       ?SetParameter@CMoGeoTransformation@@QAEXJN@Z 004be222 f   mogeotransformation.obj
 0001:000bd265       ?GetParameter@CMoGeoTransformation@@QAENJ@Z 004be265 f   mogeotransformation.obj
 0001:000bd2c0       ??0CMoGeoCoordSys@@QAE@PAUIDispatch@@@Z 004be2c0 f i mogeotransformation.obj
 0001:000bd2f0       ?GetCount@CMoGroupRenderer@@QAEFXZ 004be2f0 f   mogrouprenderer.obj
 0001:000bd329       ?SetCount@CMoGroupRenderer@@QAEXF@Z 004be329 f   mogrouprenderer.obj
 0001:000bd35c       ?GetDrawBackground@CMoGroupRenderer@@QAEHXZ 004be35c f   mogrouprenderer.obj
 0001:000bd394       ?SetDrawBackground@CMoGroupRenderer@@QAEXH@Z 004be394 f   mogrouprenderer.obj
 0001:000bd3c6       ?GetTag@CMoGroupRenderer@@QAE?AVCString@@XZ 004be3c6 f   mogrouprenderer.obj
 0001:000bd45d       ?SetTag@CMoGroupRenderer@@QAEXPBD@Z 004be45d f   mogrouprenderer.obj
 0001:000bd48f       ?GetRenderer@CMoGroupRenderer@@QAEPAUIDispatch@@F@Z 004be48f f   mogrouprenderer.obj
 0001:000bd4d9       ?SetRefRenderer@CMoGroupRenderer@@QAEXFPAUIDispatch@@@Z 004be4d9 f   mogrouprenderer.obj
 0001:000bd519       ?Add@CMoGroupRenderer@@QAEFPAUIDispatch@@@Z 004be519 f   mogrouprenderer.obj
 0001:000bd563       ?Remove@CMoGroupRenderer@@QAEXF@Z 004be563 f   mogrouprenderer.obj
 0001:000bd5a0       ?GetVisible@CMoImageLayer@@QAEHXZ 004be5a0 f   moimagelayer.obj
 0001:000bd5d8       ?SetVisible@CMoImageLayer@@QAEXH@Z 004be5d8 f   moimagelayer.obj
 0001:000bd60a       ?GetName@CMoImageLayer@@QAE?AVCString@@XZ 004be60a f   moimagelayer.obj
 0001:000bd6a1       ?SetName@CMoImageLayer@@QAEXPBD@Z 004be6a1 f   moimagelayer.obj
 0001:000bd6d3       ?GetExtent@CMoImageLayer@@QAE?AVCMoRectangle@@XZ 004be6d3 f   moimagelayer.obj
 0001:000bd730       ?SetExtent@CMoImageLayer@@QAEXPAUIDispatch@@@Z 004be730 f   moimagelayer.obj
 0001:000bd762       ?GetFile@CMoImageLayer@@QAE?AVCString@@XZ 004be762 f   moimagelayer.obj
 0001:000bd7f9       ?SetFile@CMoImageLayer@@QAEXPBD@Z 004be7f9 f   moimagelayer.obj
 0001:000bd82b       ?GetLayerType@CMoImageLayer@@QAEJXZ 004be82b f   moimagelayer.obj
 0001:000bd863       ?SetLayerType@CMoImageLayer@@QAEXJ@Z 004be863 f   moimagelayer.obj
 0001:000bd895       ?GetTag@CMoImageLayer@@QAE?AVCString@@XZ 004be895 f   moimagelayer.obj
 0001:000bd92c       ?SetTag@CMoImageLayer@@QAEXPBD@Z 004be92c f   moimagelayer.obj
 0001:000bd95e       ?GetValid@CMoImageLayer@@QAEHXZ 004be95e f   moimagelayer.obj
 0001:000bd996       ?SetValid@CMoImageLayer@@QAEXH@Z 004be996 f   moimagelayer.obj
 0001:000bd9c8       ?GetUpdateWhileDrawing@CMoImageLayer@@QAEHXZ 004be9c8 f   moimagelayer.obj
 0001:000bda00       ?SetUpdateWhileDrawing@CMoImageLayer@@QAEXH@Z 004bea00 f   moimagelayer.obj
 0001:000bda32       ?GetTransparent@CMoImageLayer@@QAEHXZ 004bea32 f   moimagelayer.obj
 0001:000bda6a       ?SetTransparent@CMoImageLayer@@QAEXH@Z 004bea6a f   moimagelayer.obj
 0001:000bda9c       ?GetTransparentColor@CMoImageLayer@@QAEKXZ 004bea9c f   moimagelayer.obj
 0001:000bdad4       ?SetTransparentColor@CMoImageLayer@@QAEXK@Z 004bead4 f   moimagelayer.obj
 0001:000bdb06       ?OpenCatalog@CMoImageLayer@@QAEXPAUIDispatch@@PBDJ@Z 004beb06 f   moimagelayer.obj
 0001:000bdb49       ?GetColumns@CMoImageLayer@@QAEJXZ 004beb49 f   moimagelayer.obj
 0001:000bdb89       ?GetRows@CMoImageLayer@@QAEJXZ 004beb89 f   moimagelayer.obj
 0001:000bdbc9       ?GetClipExtent@CMoImageLayer@@QAE?AVCMoRectangle@@XZ 004bebc9 f   moimagelayer.obj
 0001:000bdc2d       ?SetClipExtent@CMoImageLayer@@QAEXPAUIDispatch@@@Z 004bec2d f   moimagelayer.obj
 0001:000bdc70       ?GetField@CMoLabelPlacer@@QAE?AVCString@@XZ 004bec70 f   molabelplacer.obj
 0001:000bdd07       ?SetField@CMoLabelPlacer@@QAEXPBD@Z 004bed07 f   molabelplacer.obj
 0001:000bdd39       ?GetDrawBackground@CMoLabelPlacer@@QAEHXZ 004bed39 f   molabelplacer.obj
 0001:000bdd71       ?SetDrawBackground@CMoLabelPlacer@@QAEXH@Z 004bed71 f   molabelplacer.obj
 0001:000bdda3       ?GetAllowDuplicates@CMoLabelPlacer@@QAEHXZ 004beda3 f   molabelplacer.obj
 0001:000bdddb       ?SetAllowDuplicates@CMoLabelPlacer@@QAEXH@Z 004beddb f   molabelplacer.obj
 0001:000bde0d       ?GetPlaceAbove@CMoLabelPlacer@@QAEHXZ 004bee0d f   molabelplacer.obj
 0001:000bde45       ?SetPlaceAbove@CMoLabelPlacer@@QAEXH@Z 004bee45 f   molabelplacer.obj
 0001:000bde77       ?GetPlaceBelow@CMoLabelPlacer@@QAEHXZ 004bee77 f   molabelplacer.obj
 0001:000bdeaf       ?SetPlaceBelow@CMoLabelPlacer@@QAEXH@Z 004beeaf f   molabelplacer.obj
 0001:000bdee1       ?GetPlaceOn@CMoLabelPlacer@@QAEHXZ 004beee1 f   molabelplacer.obj
 0001:000bdf19       ?SetPlaceOn@CMoLabelPlacer@@QAEXH@Z 004bef19 f   molabelplacer.obj
 0001:000bdf4b       ?GetDefaultSymbol@CMoLabelPlacer@@QAE?AVCMoTextSymbol@@XZ 004bef4b f   molabelplacer.obj
 0001:000bdfa8       ?SetDefaultSymbol@CMoLabelPlacer@@QAEXPAUIDispatch@@@Z 004befa8 f   molabelplacer.obj
 0001:000bdfda       ?GetUseDefault@CMoLabelPlacer@@QAEHXZ 004befda f   molabelplacer.obj
 0001:000be012       ?SetUseDefault@CMoLabelPlacer@@QAEXH@Z 004bf012 f   molabelplacer.obj
 0001:000be044       ?GetValueCount@CMoLabelPlacer@@QAEFXZ 004bf044 f   molabelplacer.obj
 0001:000be07d       ?SetValueCount@CMoLabelPlacer@@QAEXF@Z 004bf07d f   molabelplacer.obj
 0001:000be0b0       ?GetValueField@CMoLabelPlacer@@QAE?AVCString@@XZ 004bf0b0 f   molabelplacer.obj
 0001:000be147       ?SetValueField@CMoLabelPlacer@@QAEXPBD@Z 004bf147 f   molabelplacer.obj
 0001:000be179       ?GetBackgroundRenderer@CMoLabelPlacer@@QAEPAUIDispatch@@XZ 004bf179 f   molabelplacer.obj
 0001:000be1b1       ?SetBackgroundRenderer@CMoLabelPlacer@@QAEXPAUIDispatch@@@Z 004bf1b1 f   molabelplacer.obj
 0001:000be1e3       ?GetMaskLabels@CMoLabelPlacer@@QAEHXZ 004bf1e3 f   molabelplacer.obj
 0001:000be21b       ?SetMaskLabels@CMoLabelPlacer@@QAEXH@Z 004bf21b f   molabelplacer.obj
 0001:000be24d       ?GetMaskColor@CMoLabelPlacer@@QAEKXZ 004bf24d f   molabelplacer.obj
 0001:000be285       ?SetMaskColor@CMoLabelPlacer@@QAEXK@Z 004bf285 f   molabelplacer.obj
 0001:000be2b7       ?GetSymbolWidth@CMoLabelPlacer@@QAEFXZ 004bf2b7 f   molabelplacer.obj
 0001:000be2f0       ?SetSymbolWidth@CMoLabelPlacer@@QAEXF@Z 004bf2f0 f   molabelplacer.obj
 0001:000be323       ?GetSymbolHeight@CMoLabelPlacer@@QAEFXZ 004bf323 f   molabelplacer.obj
 0001:000be35c       ?SetSymbolHeight@CMoLabelPlacer@@QAEXF@Z 004bf35c f   molabelplacer.obj
 0001:000be38f       ?GetTag@CMoLabelPlacer@@QAE?AVCString@@XZ 004bf38f f   molabelplacer.obj
 0001:000be426       ?SetTag@CMoLabelPlacer@@QAEXPBD@Z 004bf426 f   molabelplacer.obj
 0001:000be458       ?GetSymbol@CMoLabelPlacer@@QAE?AVCMoTextSymbol@@F@Z 004bf458 f   molabelplacer.obj
 0001:000be4c5       ?GetValue@CMoLabelPlacer@@QAE?AVCString@@F@Z 004bf4c5 f   molabelplacer.obj
 0001:000be56c       ?SetValue@CMoLabelPlacer@@QAEXFPBD@Z 004bf56c f   molabelplacer.obj
 0001:000be5b0       ??0CMoTextSymbol@@QAE@PAUIDispatch@@@Z 004bf5b0 f i molabelplacer.obj
 0001:000be5e0       ?GetField@CMoLabelRenderer@@QAE?AVCString@@XZ 004bf5e0 f   molabelrenderer.obj
 0001:000be677       ?SetField@CMoLabelRenderer@@QAEXPBD@Z 004bf677 f   molabelrenderer.obj
 0001:000be6a9       ?GetDrawBackground@CMoLabelRenderer@@QAEHXZ 004bf6a9 f   molabelrenderer.obj
 0001:000be6e1       ?SetDrawBackground@CMoLabelRenderer@@QAEXH@Z 004bf6e1 f   molabelrenderer.obj
 0001:000be713       ?GetSymbolField@CMoLabelRenderer@@QAE?AVCString@@XZ 004bf713 f   molabelrenderer.obj
 0001:000be7aa       ?SetSymbolField@CMoLabelRenderer@@QAEXPBD@Z 004bf7aa f   molabelrenderer.obj
 0001:000be7dc       ?GetLevelField@CMoLabelRenderer@@QAE?AVCString@@XZ 004bf7dc f   molabelrenderer.obj
 0001:000be873       ?SetLevelField@CMoLabelRenderer@@QAEXPBD@Z 004bf873 f   molabelrenderer.obj
 0001:000be8a5       ?GetMinLevel@CMoLabelRenderer@@QAEFXZ 004bf8a5 f   molabelrenderer.obj
 0001:000be8de       ?SetMinLevel@CMoLabelRenderer@@QAEXF@Z 004bf8de f   molabelrenderer.obj
 0001:000be911       ?GetMaxLevel@CMoLabelRenderer@@QAEFXZ 004bf911 f   molabelrenderer.obj
 0001:000be94a       ?SetMaxLevel@CMoLabelRenderer@@QAEXF@Z 004bf94a f   molabelrenderer.obj
 0001:000be97d       ?GetRotationField@CMoLabelRenderer@@QAE?AVCString@@XZ 004bf97d f   molabelrenderer.obj
 0001:000bea14       ?SetRotationField@CMoLabelRenderer@@QAEXPBD@Z 004bfa14 f   molabelrenderer.obj
 0001:000bea46       ?GetHeightField@CMoLabelRenderer@@QAE?AVCString@@XZ 004bfa46 f   molabelrenderer.obj
 0001:000beadd       ?SetHeightField@CMoLabelRenderer@@QAEXPBD@Z 004bfadd f   molabelrenderer.obj
 0001:000beb0f       ?GetSplinedText@CMoLabelRenderer@@QAEHXZ 004bfb0f f   molabelrenderer.obj
 0001:000beb47       ?SetSplinedText@CMoLabelRenderer@@QAEXH@Z 004bfb47 f   molabelrenderer.obj
 0001:000beb79       ?GetAllowDuplicates@CMoLabelRenderer@@QAEHXZ 004bfb79 f   molabelrenderer.obj
 0001:000bebb1       ?SetAllowDuplicates@CMoLabelRenderer@@QAEXH@Z 004bfbb1 f   molabelrenderer.obj
 0001:000bebe3       ?GetTag@CMoLabelRenderer@@QAE?AVCString@@XZ 004bfbe3 f   molabelrenderer.obj
 0001:000bec7a       ?SetTag@CMoLabelRenderer@@QAEXPBD@Z 004bfc7a f   molabelrenderer.obj
 0001:000becac       ?GetFlip@CMoLabelRenderer@@QAEHXZ 004bfcac f   molabelrenderer.obj
 0001:000bece4       ?SetFlip@CMoLabelRenderer@@QAEXH@Z 004bfce4 f   molabelrenderer.obj
 0001:000bed16       ?GetXOffsetField@CMoLabelRenderer@@QAE?AVCString@@XZ 004bfd16 f   molabelrenderer.obj
 0001:000bedad       ?SetXOffsetField@CMoLabelRenderer@@QAEXPBD@Z 004bfdad f   molabelrenderer.obj
 0001:000beddf       ?GetYOffsetField@CMoLabelRenderer@@QAE?AVCString@@XZ 004bfddf f   molabelrenderer.obj
 0001:000bee76       ?SetYOffsetField@CMoLabelRenderer@@QAEXPBD@Z 004bfe76 f   molabelrenderer.obj
 0001:000beea8       ?GetFittedField@CMoLabelRenderer@@QAE?AVCString@@XZ 004bfea8 f   molabelrenderer.obj
 0001:000bef3f       ?SetFittedField@CMoLabelRenderer@@QAEXPBD@Z 004bff3f f   molabelrenderer.obj
 0001:000bef71       ?GetSymbolCount@CMoLabelRenderer@@QAEFXZ 004bff71 f   molabelrenderer.obj
 0001:000befaa       ?SetSymbolCount@CMoLabelRenderer@@QAEXF@Z 004bffaa f   molabelrenderer.obj
 0001:000befdd       ?GetSymbol@CMoLabelRenderer@@QAE?AVCMoTextSymbol@@F@Z 004bffdd f   molabelrenderer.obj
 0001:000bf050       ?GetCount@CMoLayers@@QAEFXZ 004c0050 f   molayers.obj
 0001:000bf089       ?SetCount@CMoLayers@@QAEXF@Z 004c0089 f   molayers.obj
 0001:000bf0bc       ?Item@CMoLayers@@QAEPAUIDispatch@@ABUtagVARIANT@@@Z 004c00bc f   molayers.obj
 0001:000bf105       ?Add@CMoLayers@@QAEHPAUIDispatch@@@Z 004c0105 f   molayers.obj
 0001:000bf14e       ?Remove@CMoLayers@@QAEXF@Z 004c014e f   molayers.obj
 0001:000bf18a       ?Clear@CMoLayers@@QAEXXZ   004c018a f   molayers.obj
 0001:000bf1bc       ?MoveTo@CMoLayers@@QAEXFF@Z 004c01bc f   molayers.obj
 0001:000bf1fd       ?MoveToTop@CMoLayers@@QAEXF@Z 004c01fd f   molayers.obj
 0001:000bf239       ?MoveToBottom@CMoLayers@@QAEXF@Z 004c0239 f   molayers.obj
 0001:000bf280       ?GetExtent@CMoLine@@QAE?AVCMoRectangle@@XZ 004c0280 f   moline.obj
 0001:000bf2dd       ?SetExtent@CMoLine@@QAEXPAUIDispatch@@@Z 004c02dd f   moline.obj
 0001:000bf30f       ?GetParts@CMoLine@@QAE?AVCMoParts@@XZ 004c030f f   moline.obj
 0001:000bf36c       ?SetParts@CMoLine@@QAEXPAUIDispatch@@@Z 004c036c f   moline.obj
 0001:000bf39e       ?GetLength@CMoLine@@QAENXZ 004c039e f   moline.obj
 0001:000bf3dd       ?SetLength@CMoLine@@QAEXN@Z 004c03dd f   moline.obj
 0001:000bf413       ?GetShapeType@CMoLine@@QAEJXZ 004c0413 f   moline.obj
 0001:000bf44b       ?SetShapeType@CMoLine@@QAEXJ@Z 004c044b f   moline.obj
 0001:000bf47d       ?GetIsFullyMeasured@CMoLine@@QAEHXZ 004c047d f   moline.obj
 0001:000bf4b5       ?SetIsFullyMeasured@CMoLine@@QAEXH@Z 004c04b5 f   moline.obj
 0001:000bf4e7       ?Offset@CMoLine@@QAEXNN@Z  004c04e7 f   moline.obj
 0001:000bf52e       ?DistanceTo@CMoLine@@QAENPAUIDispatch@@@Z 004c052e f   moline.obj
 0001:000bf57e       ?GetCrossings@CMoLine@@QAE?AVCMoPoints@@PAUIDispatch@@@Z 004c057e f   moline.obj
 0001:000bf5ea       ?ReturnPointEvents@CMoLine@@QAE?AVCMoPoints@@N@Z 004c05ea f   moline.obj
 0001:000bf65a       ?ReturnLineEvent@CMoLine@@QAE?AV1@NN@Z 004c065a f   moline.obj
 0001:000bf6d2       ?ReturnMeasure@CMoLine@@QAENPAUIDispatch@@@Z 004c06d2 f   moline.obj
 0001:000bf722       ?UpdateMeasures@CMoLine@@QAEXXZ 004c0722 f   moline.obj
 0001:000bf754       ?SetMeasures@CMoLine@@QAEXNN@Z 004c0754 f   moline.obj
 0001:000bf79b       ?SetMeasuresAsLength@CMoLine@@QAEXXZ 004c079b f   moline.obj
 0001:000bf7cd       ?OffsetMeasures@CMoLine@@QAEXN@Z 004c07cd f   moline.obj
 0001:000bf80c       ?MultiplyMeasures@CMoLine@@QAEXN@Z 004c080c f   moline.obj
 0001:000bf84b       ?Union@CMoLine@@QAEPAUIDispatch@@PAU2@ABUtagVARIANT@@@Z 004c084b f   moline.obj
 0001:000bf898       ?Xor@CMoLine@@QAEPAUIDispatch@@PAU2@ABUtagVARIANT@@@Z 004c0898 f   moline.obj
 0001:000bf8e5       ?Difference@CMoLine@@QAEPAUIDispatch@@PAU2@ABUtagVARIANT@@@Z 004c08e5 f   moline.obj
 0001:000bf932       ?Intersect@CMoLine@@QAEPAUIDispatch@@PAU2@ABUtagVARIANT@@@Z 004c0932 f   moline.obj
 0001:000bf97f       ?Buffer@CMoLine@@QAEPAUIDispatch@@NABUtagVARIANT@@@Z 004c097f f   moline.obj
 0001:000bf9d0       ??0CMoParts@@QAE@PAUIDispatch@@@Z 004c09d0 f i moline.obj
 0001:000bfa00       ??0CMoPoints@@QAE@PAUIDispatch@@@Z 004c0a00 f i moline.obj
 0001:000bfa30       ?GetName@CMoMapLayer@@QAE?AVCString@@XZ 004c0a30 f   momaplayer.obj
 0001:000bfac7       ?SetName@CMoMapLayer@@QAEXPBD@Z 004c0ac7 f   momaplayer.obj
 0001:000bfaf9       ?GetExtent@CMoMapLayer@@QAE?AVCMoRectangle@@XZ 004c0af9 f   momaplayer.obj
 0001:000bfb56       ?SetExtent@CMoMapLayer@@QAEXPAUIDispatch@@@Z 004c0b56 f   momaplayer.obj
 0001:000bfb88       ?GetVisible@CMoMapLayer@@QAEHXZ 004c0b88 f   momaplayer.obj
 0001:000bfbc0       ?SetVisible@CMoMapLayer@@QAEXH@Z 004c0bc0 f   momaplayer.obj
 0001:000bfbf2       ?GetRecords@CMoMapLayer@@QAE?AVCMoRecordset@@XZ 004c0bf2 f   momaplayer.obj
 0001:000bfc4f       ?SetRecords@CMoMapLayer@@QAEXPAUIDispatch@@@Z 004c0c4f f   momaplayer.obj
 0001:000bfc81       ?GetSymbol@CMoMapLayer@@QAE?AVCMoSymbol@@XZ 004c0c81 f   momaplayer.obj
 0001:000bfcde       ?SetSymbol@CMoMapLayer@@QAEXPAUIDispatch@@@Z 004c0cde f   momaplayer.obj
 0001:000bfd10       ?GetGeoDataset@CMoMapLayer@@QAE?AVCMoGeoDataset@@XZ 004c0d10 f   momaplayer.obj
 0001:000bfd6d       ?SetGeoDataset@CMoMapLayer@@QAEXPAUIDispatch@@@Z 004c0d6d f   momaplayer.obj
 0001:000bfd9f       ?GetLayerType@CMoMapLayer@@QAEJXZ 004c0d9f f   momaplayer.obj
 0001:000bfdd7       ?SetLayerType@CMoMapLayer@@QAEXJ@Z 004c0dd7 f   momaplayer.obj
 0001:000bfe09       ?GetAreaOfInterest@CMoMapLayer@@QAE?AVCMoRectangle@@XZ 004c0e09 f   momaplayer.obj
 0001:000bfe66       ?SetAreaOfInterest@CMoMapLayer@@QAEXPAUIDispatch@@@Z 004c0e66 f   momaplayer.obj
 0001:000bfe98       ?GetRenderer@CMoMapLayer@@QAEPAUIDispatch@@XZ 004c0e98 f   momaplayer.obj
 0001:000bfed0       ?SetRenderer@CMoMapLayer@@QAEXPAUIDispatch@@@Z 004c0ed0 f   momaplayer.obj
 0001:000bff02       ?GetTag@CMoMapLayer@@QAE?AVCString@@XZ 004c0f02 f   momaplayer.obj
 0001:000bff99       ?SetTag@CMoMapLayer@@QAEXPBD@Z 004c0f99 f   momaplayer.obj
 0001:000bffcb       ?GetShapeType@CMoMapLayer@@QAEJXZ 004c0fcb f   momaplayer.obj
 0001:000c0003       ?SetShapeType@CMoMapLayer@@QAEXJ@Z 004c1003 f   momaplayer.obj
 0001:000c0035       ?GetValid@CMoMapLayer@@QAEHXZ 004c1035 f   momaplayer.obj
 0001:000c006d       ?SetValid@CMoMapLayer@@QAEXH@Z 004c106d f   momaplayer.obj
 0001:000c009f       ?GetIndexed@CMoMapLayer@@QAEHXZ 004c109f f   momaplayer.obj
 0001:000c00d7       ?SetIndexed@CMoMapLayer@@QAEXH@Z 004c10d7 f   momaplayer.obj
 0001:000c0109       ?GetCoordinateSystem@CMoMapLayer@@QAE?AUtagVARIANT@@XZ 004c1109 f   momaplayer.obj
 0001:000c0163       ?SetCoordinateSystem@CMoMapLayer@@QAEXABUtagVARIANT@@@Z 004c1163 f   momaplayer.obj
 0001:000c0195       ?GetGeographicTransformation@CMoMapLayer@@QAE?AUtagVARIANT@@XZ 004c1195 f   momaplayer.obj
 0001:000c01ef       ?SetGeographicTransformation@CMoMapLayer@@QAEXABUtagVARIANT@@@Z 004c11ef f   momaplayer.obj
 0001:000c0221       ?GetDensificationTolerance@CMoMapLayer@@QAENXZ 004c1221 f   momaplayer.obj
 0001:000c0260       ?SetDensificationTolerance@CMoMapLayer@@QAEXN@Z 004c1260 f   momaplayer.obj
 0001:000c0296       ?GetFilterShape@CMoMapLayer@@QAE?AUtagVARIANT@@XZ 004c1296 f   momaplayer.obj
 0001:000c02f0       ?SetFilterShape@CMoMapLayer@@QAEXABUtagVARIANT@@@Z 004c12f0 f   momaplayer.obj
 0001:000c0322       ?GetFilterOperator@CMoMapLayer@@QAEJXZ 004c1322 f   momaplayer.obj
 0001:000c035a       ?SetFilterOperator@CMoMapLayer@@QAEXJ@Z 004c135a f   momaplayer.obj
 0001:000c038c       ?GetFilterExpression@CMoMapLayer@@QAE?AVCString@@XZ 004c138c f   momaplayer.obj
 0001:000c0423       ?SetFilterExpression@CMoMapLayer@@QAEXPBD@Z 004c1423 f   momaplayer.obj
 0001:000c0455       ?GetFilterFields@CMoMapLayer@@QAE?AVCMoStrings@@XZ 004c1455 f   momaplayer.obj
 0001:000c04b2       ?SetFilterFields@CMoMapLayer@@QAEXPAUIDispatch@@@Z 004c14b2 f   momaplayer.obj
 0001:000c04e4       ?GetFilterOrder@CMoMapLayer@@QAEJXZ 004c14e4 f   momaplayer.obj
 0001:000c051c       ?SetFilterOrder@CMoMapLayer@@QAEXJ@Z 004c151c f   momaplayer.obj
 0001:000c054e       ?GetFilterTables@CMoMapLayer@@QAE?AVCMoStrings@@XZ 004c154e f   momaplayer.obj
 0001:000c05ab       ?SetFilterTables@CMoMapLayer@@QAEXPAUIDispatch@@@Z 004c15ab f   momaplayer.obj
 0001:000c05dd       ?SearchExpression@CMoMapLayer@@QAE?AVCMoRecordset@@PBD@Z 004c15dd f   momaplayer.obj
 0001:000c0649       ?AddRelate@CMoMapLayer@@QAEHPBDPAUIDispatch@@0ABUtagVARIANT@@@Z 004c1649 f   momaplayer.obj
 0001:000c069e       ?RemoveRelates@CMoMapLayer@@QAEXXZ 004c169e f   momaplayer.obj
 0001:000c06d0       ?SearchByDistance@CMoMapLayer@@QAE?AVCMoRecordset@@PAUIDispatch@@NPBD@Z 004c16d0 f   momaplayer.obj
 0001:000c0748       ?SearchShape@CMoMapLayer@@QAE?AVCMoRecordset@@PAUIDispatch@@JPBD@Z 004c1748 f   momaplayer.obj
 0001:000c07bb       ?BuildIndex@CMoMapLayer@@QAEHH@Z 004c17bb f   momaplayer.obj
 0001:000c0810       ??0CMoRecordset@@QAE@PAUIDispatch@@@Z 004c1810 f i momaplayer.obj
 0001:000c0840       ?GetCount@CMoParts@@QAEFXZ 004c1840 f   moparts.obj
 0001:000c0879       ?SetCount@CMoParts@@QAEXF@Z 004c1879 f   moparts.obj
 0001:000c08ac       ?Add@CMoParts@@QAEXPAUIDispatch@@@Z 004c18ac f   moparts.obj
 0001:000c08e7       ?Set@CMoParts@@QAEXFPAUIDispatch@@@Z 004c18e7 f   moparts.obj
 0001:000c0927       ?Remove@CMoParts@@QAEXF@Z  004c1927 f   moparts.obj
 0001:000c0963       ?Insert@CMoParts@@QAEXFPAUIDispatch@@@Z 004c1963 f   moparts.obj
 0001:000c09a3       ?Item@CMoParts@@QAEPAUIDispatch@@ABUtagVARIANT@@@Z 004c19a3 f   moparts.obj
 0001:000c09f0       ?GetIndexed@CMoPlaceLocator@@QAEHXZ 004c19f0 f   moplacelocator.obj
 0001:000c0a28       ?SetIndexed@CMoPlaceLocator@@QAEXH@Z 004c1a28 f   moplacelocator.obj
 0001:000c0a5a       ?GetPlaceNameTable@CMoPlaceLocator@@QAE?AVCMoGeoDataset@@XZ 004c1a5a f   moplacelocator.obj
 0001:000c0ab7       ?SetPlaceNameTable@CMoPlaceLocator@@QAEXPAUIDispatch@@@Z 004c1ab7 f   moplacelocator.obj
 0001:000c0ae9       ?BuildIndex@CMoPlaceLocator@@QAEHPBDH@Z 004c1ae9 f   moplacelocator.obj
 0001:000c0b36       ?Locate@CMoPlaceLocator@@QAE?AVCMoPoints@@PBD@Z 004c1b36 f   moplacelocator.obj
 0001:000c0ba2       ?FindApproximateMatches@CMoPlaceLocator@@QAE?AVCMoStrings@@PBD@Z 004c1ba2 f   moplacelocator.obj
 0001:000c0c0e       ?FindAllPlaceNames@CMoPlaceLocator@@QAE?AVCMoStrings@@PBD@Z 004c1c0e f   moplacelocator.obj
 0001:000c0c80       ?GetY@CMoPoint@@QAENXZ     004c1c80 f   mopoint.obj
 0001:000c0cbf       ?SetY@CMoPoint@@QAEXN@Z    004c1cbf f   mopoint.obj
 0001:000c0cf5       ?GetX@CMoPoint@@QAENXZ     004c1cf5 f   mopoint.obj
 0001:000c0d34       ?SetX@CMoPoint@@QAEXN@Z    004c1d34 f   mopoint.obj
 0001:000c0d6a       ?GetZ@CMoPoint@@QAENXZ     004c1d6a f   mopoint.obj
 0001:000c0da9       ?SetZ@CMoPoint@@QAEXN@Z    004c1da9 f   mopoint.obj
 0001:000c0ddf       ?GetMeasure@CMoPoint@@QAENXZ 004c1ddf f   mopoint.obj
 0001:000c0e1e       ?SetMeasure@CMoPoint@@QAEXN@Z 004c1e1e f   mopoint.obj
 0001:000c0e54       ?GetShapeType@CMoPoint@@QAEJXZ 004c1e54 f   mopoint.obj
 0001:000c0e8c       ?SetShapeType@CMoPoint@@QAEXJ@Z 004c1e8c f   mopoint.obj
 0001:000c0ebe       ?DistanceTo@CMoPoint@@QAENPAUIDispatch@@@Z 004c1ebe f   mopoint.obj
 0001:000c0f0e       ?DistanceToSegment@CMoPoint@@QAENPAUIDispatch@@0@Z 004c1f0e f   mopoint.obj
 0001:000c0f62       ?GetCrossings@CMoPoint@@QAE?AVCMoPoints@@PAUIDispatch@@@Z 004c1f62 f   mopoint.obj
 0001:000c0fce       ?Union@CMoPoint@@QAEPAUIDispatch@@PAU2@ABUtagVARIANT@@@Z 004c1fce f   mopoint.obj
 0001:000c101b       ?Xor@CMoPoint@@QAEPAUIDispatch@@PAU2@ABUtagVARIANT@@@Z 004c201b f   mopoint.obj
 0001:000c1068       ?Difference@CMoPoint@@QAEPAUIDispatch@@PAU2@ABUtagVARIANT@@@Z 004c2068 f   mopoint.obj
 0001:000c10b5       ?Intersect@CMoPoint@@QAEPAUIDispatch@@PAU2@ABUtagVARIANT@@@Z 004c20b5 f   mopoint.obj
 0001:000c1102       ?Buffer@CMoPoint@@QAEPAUIDispatch@@NABUtagVARIANT@@@Z 004c2102 f   mopoint.obj
 0001:000c1153       ?Set@CMoPoint@@QAEXNNNN@Z  004c2153 f   mopoint.obj
 0001:000c11aa       ?Get@CMoPoint@@QAEXPAN000@Z 004c21aa f   mopoint.obj
 0001:000c1200       ?GetCount@CMoPoints@@QAEJXZ 004c2200 f   mopoints.obj
 0001:000c1238       ?SetCount@CMoPoints@@QAEXJ@Z 004c2238 f   mopoints.obj
 0001:000c126a       ?GetShapeType@CMoPoints@@QAEJXZ 004c226a f   mopoints.obj
 0001:000c12a2       ?SetShapeType@CMoPoints@@QAEXJ@Z 004c22a2 f   mopoints.obj
 0001:000c12d4       ?GetExtent@CMoPoints@@QAE?AVCMoRectangle@@XZ 004c22d4 f   mopoints.obj
 0001:000c1331       ?SetExtent@CMoPoints@@QAEXPAUIDispatch@@@Z 004c2331 f   mopoints.obj
 0001:000c1363       ?Item@CMoPoints@@QAE?AVCMoPoint@@ABUtagVARIANT@@@Z 004c2363 f   mopoints.obj
 0001:000c13cf       ?Add@CMoPoints@@QAEXPAUIDispatch@@@Z 004c23cf f   mopoints.obj
 0001:000c140a       ?Set@CMoPoints@@QAEXJPAUIDispatch@@@Z 004c240a f   mopoints.obj
 0001:000c1449       ?Remove@CMoPoints@@QAEXJ@Z 004c2449 f   mopoints.obj
 0001:000c1484       ?Insert@CMoPoints@@QAEXJPAUIDispatch@@@Z 004c2484 f   mopoints.obj
 0001:000c14c3       ?Reverse@CMoPoints@@QAEXXZ 004c24c3 f   mopoints.obj
 0001:000c14f5       ?Offset@CMoPoints@@QAEXNN@Z 004c24f5 f   mopoints.obj
 0001:000c153c       ?DistanceTo@CMoPoints@@QAENPAUIDispatch@@@Z 004c253c f   mopoints.obj
 0001:000c158c       ?GetCrossings@CMoPoints@@QAE?AV1@PAUIDispatch@@@Z 004c258c f   mopoints.obj
 0001:000c15f8       ?Union@CMoPoints@@QAEPAUIDispatch@@PAU2@ABUtagVARIANT@@@Z 004c25f8 f   mopoints.obj
 0001:000c1645       ?Xor@CMoPoints@@QAEPAUIDispatch@@PAU2@ABUtagVARIANT@@@Z 004c2645 f   mopoints.obj
 0001:000c1692       ?Difference@CMoPoints@@QAEPAUIDispatch@@PAU2@ABUtagVARIANT@@@Z 004c2692 f   mopoints.obj
 0001:000c16df       ?Intersect@CMoPoints@@QAEPAUIDispatch@@PAU2@ABUtagVARIANT@@@Z 004c26df f   mopoints.obj
 0001:000c172c       ?Buffer@CMoPoints@@QAEPAUIDispatch@@NABUtagVARIANT@@@Z 004c272c f   mopoints.obj
 0001:000c1780       ?GetExtent@CMoPolygon@@QAE?AVCMoRectangle@@XZ 004c2780 f   mopolygon.obj
 0001:000c17dd       ?SetExtent@CMoPolygon@@QAEXPAUIDispatch@@@Z 004c27dd f   mopolygon.obj
 0001:000c180f       ?GetParts@CMoPolygon@@QAE?AVCMoParts@@XZ 004c280f f   mopolygon.obj
 0001:000c186c       ?SetParts@CMoPolygon@@QAEXPAUIDispatch@@@Z 004c286c f   mopolygon.obj
 0001:000c189e       ?GetCentroid@CMoPolygon@@QAE?AVCMoPoint@@XZ 004c289e f   mopolygon.obj
 0001:000c18fb       ?SetCentroid@CMoPolygon@@QAEXPAUIDispatch@@@Z 004c28fb f   mopolygon.obj
 0001:000c192d       ?GetArea@CMoPolygon@@QAENXZ 004c292d f   mopolygon.obj
 0001:000c196c       ?SetArea@CMoPolygon@@QAEXN@Z 004c296c f   mopolygon.obj
 0001:000c19a2       ?GetPerimeter@CMoPolygon@@QAENXZ 004c29a2 f   mopolygon.obj
 0001:000c19e1       ?SetPerimeter@CMoPolygon@@QAEXN@Z 004c29e1 f   mopolygon.obj
 0001:000c1a17       ?GetShapeType@CMoPolygon@@QAEJXZ 004c2a17 f   mopolygon.obj
 0001:000c1a4f       ?SetShapeType@CMoPolygon@@QAEXJ@Z 004c2a4f f   mopolygon.obj
 0001:000c1a81       ?IsPointIn@CMoPolygon@@QAEHPAUIDispatch@@@Z 004c2a81 f   mopolygon.obj
 0001:000c1aca       ?Offset@CMoPolygon@@QAEXNN@Z 004c2aca f   mopolygon.obj
 0001:000c1b11       ?DistanceTo@CMoPolygon@@QAENPAUIDispatch@@@Z 004c2b11 f   mopolygon.obj
 0001:000c1b61       ?GetCrossings@CMoPolygon@@QAE?AVCMoPoints@@PAUIDispatch@@@Z 004c2b61 f   mopolygon.obj
 0001:000c1bcd       ?Union@CMoPolygon@@QAEPAUIDispatch@@PAU2@ABUtagVARIANT@@@Z 004c2bcd f   mopolygon.obj
 0001:000c1c1a       ?Xor@CMoPolygon@@QAEPAUIDispatch@@PAU2@ABUtagVARIANT@@@Z 004c2c1a f   mopolygon.obj
 0001:000c1c67       ?Difference@CMoPolygon@@QAEPAUIDispatch@@PAU2@ABUtagVARIANT@@@Z 004c2c67 f   mopolygon.obj
 0001:000c1cb4       ?Intersect@CMoPolygon@@QAEPAUIDispatch@@PAU2@ABUtagVARIANT@@@Z 004c2cb4 f   mopolygon.obj
 0001:000c1d01       ?Buffer@CMoPolygon@@QAEPAUIDispatch@@NABUtagVARIANT@@@Z 004c2d01 f   mopolygon.obj
 0001:000c1d60       ?GetType@CMoPrimeMeridian@@QAEJXZ 004c2d60 f   moprimemeridian.obj
 0001:000c1d98       ?SetType@CMoPrimeMeridian@@QAEXJ@Z 004c2d98 f   moprimemeridian.obj
 0001:000c1dca       ?GetName@CMoPrimeMeridian@@QAE?AVCString@@XZ 004c2dca f   moprimemeridian.obj
 0001:000c1e61       ?SetName@CMoPrimeMeridian@@QAEXPBD@Z 004c2e61 f   moprimemeridian.obj
 0001:000c1e93       ?GetLongitude@CMoPrimeMeridian@@QAENXZ 004c2e93 f   moprimemeridian.obj
 0001:000c1ed2       ?SetLongitude@CMoPrimeMeridian@@QAEXN@Z 004c2ed2 f   moprimemeridian.obj
 0001:000c1f10       ?GetType@CMoProjCoordSys@@QAEJXZ 004c2f10 f   moprojcoordsys.obj
 0001:000c1f48       ?SetType@CMoProjCoordSys@@QAEXJ@Z 004c2f48 f   moprojcoordsys.obj
 0001:000c1f7a       ?GetName@CMoProjCoordSys@@QAE?AVCString@@XZ 004c2f7a f   moprojcoordsys.obj
 0001:000c2011       ?SetName@CMoProjCoordSys@@QAEXPBD@Z 004c3011 f   moprojcoordsys.obj
 0001:000c2043       ?GetGeoCoordSys@CMoProjCoordSys@@QAE?AVCMoGeoCoordSys@@XZ 004c3043 f   moprojcoordsys.obj
 0001:000c20a0       ?SetGeoCoordSys@CMoProjCoordSys@@QAEXPAUIDispatch@@@Z 004c30a0 f   moprojcoordsys.obj
 0001:000c20d2       ?GetUnit@CMoProjCoordSys@@QAE?AVCMoUnit@@XZ 004c30d2 f   moprojcoordsys.obj
 0001:000c212f       ?SetUnit@CMoProjCoordSys@@QAEXPAUIDispatch@@@Z 004c312f f   moprojcoordsys.obj
 0001:000c2161       ?GetProjection@CMoProjCoordSys@@QAE?AVCMoProjection@@XZ 004c3161 f   moprojcoordsys.obj
 0001:000c21be       ?SetProjection@CMoProjCoordSys@@QAEXPAUIDispatch@@@Z 004c31be f   moprojcoordsys.obj
 0001:000c21f0       ?GetIsProjected@CMoProjCoordSys@@QAEHXZ 004c31f0 f   moprojcoordsys.obj
 0001:000c2228       ?SetIsProjected@CMoProjCoordSys@@QAEXH@Z 004c3228 f   moprojcoordsys.obj
 0001:000c225a       ?SetParameter@CMoProjCoordSys@@QAEXJN@Z 004c325a f   moprojcoordsys.obj
 0001:000c229d       ?GetParameter@CMoProjCoordSys@@QAENJ@Z 004c329d f   moprojcoordsys.obj
 0001:000c22ed       ?Transform@CMoProjCoordSys@@QAEPAUIDispatch@@PAU2@0ABUtagVARIANT@@1@Z 004c32ed f   moprojcoordsys.obj
 0001:000c2342       ?Export@CMoProjCoordSys@@QAEXPBD@Z 004c3342 f   moprojcoordsys.obj
 0001:000c237d       ?ReturnDescription@CMoProjCoordSys@@QAE?AVCString@@XZ 004c337d f   moprojcoordsys.obj
 0001:000c2420       ??0CMoProjection@@QAE@PAUIDispatch@@@Z 004c3420 f i moprojcoordsys.obj
 0001:000c2450       ?GetType@CMoProjection@@QAEJXZ 004c3450 f   moprojection.obj
 0001:000c2488       ?SetType@CMoProjection@@QAEXJ@Z 004c3488 f   moprojection.obj
 0001:000c24ba       ?GetName@CMoProjection@@QAE?AVCString@@XZ 004c34ba f   moprojection.obj
 0001:000c2551       ?SetName@CMoProjection@@QAEXPBD@Z 004c3551 f   moprojection.obj
 0001:000c2583       ?GetCustom@CMoProjection@@QAEPAUIUnknown@@XZ 004c3583 f   moprojection.obj
 0001:000c25bb       ?SetCustom@CMoProjection@@QAEXPAUIUnknown@@@Z 004c35bb f   moprojection.obj
 0001:000c25ed       ?GetIsCustom@CMoProjection@@QAEHXZ 004c35ed f   moprojection.obj
 0001:000c2625       ?SetIsCustom@CMoProjection@@QAEXH@Z 004c3625 f   moprojection.obj
 0001:000c2660       ?GetFields@CMoRecordset@@QAE?AVCMoFields@@XZ 004c3660 f   morecordset.obj
 0001:000c26bd       ?SetFields@CMoRecordset@@QAEXPAUIDispatch@@@Z 004c36bd f   morecordset.obj
 0001:000c26ef       ?GetEof@CMoRecordset@@QAEHXZ 004c36ef f   morecordset.obj
 0001:000c2727       ?SetEof@CMoRecordset@@QAEXH@Z 004c3727 f   morecordset.obj
 0001:000c2759       ?GetCount@CMoRecordset@@QAEJXZ 004c3759 f   morecordset.obj
 0001:000c2791       ?SetCount@CMoRecordset@@QAEXJ@Z 004c3791 f   morecordset.obj
 0001:000c27c3       ?GetEditMode@CMoRecordset@@QAEJXZ 004c37c3 f   morecordset.obj
 0001:000c27fb       ?SetEditMode@CMoRecordset@@QAEXJ@Z 004c37fb f   morecordset.obj
 0001:000c282d       ?GetUpdatable@CMoRecordset@@QAEHXZ 004c382d f   morecordset.obj
 0001:000c2865       ?SetUpdatable@CMoRecordset@@QAEXH@Z 004c3865 f   morecordset.obj
 0001:000c2897       ?GetTableDesc@CMoRecordset@@QAE?AVCMoTableDesc@@XZ 004c3897 f   morecordset.obj
 0001:000c28f4       ?SetTableDesc@CMoRecordset@@QAEXPAUIDispatch@@@Z 004c38f4 f   morecordset.obj
 0001:000c2926       ?GetAutoFlush@CMoRecordset@@QAEHXZ 004c3926 f   morecordset.obj
 0001:000c295e       ?SetAutoFlush@CMoRecordset@@QAEXH@Z 004c395e f   morecordset.obj
 0001:000c2990       ?GetSupportsTransactions@CMoRecordset@@QAEHXZ 004c3990 f   morecordset.obj
 0001:000c29c8       ?SetSupportsTransactions@CMoRecordset@@QAEXH@Z 004c39c8 f   morecordset.obj
 0001:000c29fa       ?MoveFirst@CMoRecordset@@QAEXXZ 004c39fa f   morecordset.obj
 0001:000c2a2c       ?MoveNext@CMoRecordset@@QAEXXZ 004c3a2c f   morecordset.obj
 0001:000c2a5e       ?MovePrevious@CMoRecordset@@QAEXXZ 004c3a5e f   morecordset.obj
 0001:000c2a90       ?CalculateStatistics@CMoRecordset@@QAE?AVCMoStatistics@@PBD@Z 004c3a90 f   morecordset.obj
 0001:000c2afc       ?Delete@CMoRecordset@@QAEXXZ 004c3afc f   morecordset.obj
 0001:000c2b2e       ?Edit@CMoRecordset@@QAEXXZ 004c3b2e f   morecordset.obj
 0001:000c2b60       ?AddNew@CMoRecordset@@QAEXXZ 004c3b60 f   morecordset.obj
 0001:000c2b92       ?Update@CMoRecordset@@QAEXXZ 004c3b92 f   morecordset.obj
 0001:000c2bc4       ?CancelUpdate@CMoRecordset@@QAEXXZ 004c3bc4 f   morecordset.obj
 0001:000c2bf6       ?StopEditing@CMoRecordset@@QAEXXZ 004c3bf6 f   morecordset.obj
 0001:000c2c28       ?Export@CMoRecordset@@QAE?AVCMoGeoDataset@@PBDABUtagVARIANT@@@Z 004c3c28 f   morecordset.obj
 0001:000c2c98       ?StartTransaction@CMoRecordset@@QAEXXZ 004c3c98 f   morecordset.obj
 0001:000c2cca       ?RollbackTransaction@CMoRecordset@@QAEXXZ 004c3cca f   morecordset.obj
 0001:000c2cfc       ?CommitTransaction@CMoRecordset@@QAEXXZ 004c3cfc f   morecordset.obj
 0001:000c2d30       ??0CMoFields@@QAE@PAUIDispatch@@@Z 004c3d30 f i morecordset.obj
 0001:000c2d60       ??0CMoTableDesc@@QAE@PAUIDispatch@@@Z 004c3d60 f i morecordset.obj
 0001:000c2d90       ??0CMoStatistics@@QAE@PAUIDispatch@@@Z 004c3d90 f i morecordset.obj
 0001:000c2dc0       ?GetLeft@CMoRectangle@@QAENXZ 004c3dc0 f   morectangle.obj
 0001:000c2dff       ?SetLeft@CMoRectangle@@QAEXN@Z 004c3dff f   morectangle.obj
 0001:000c2e35       ?GetRight@CMoRectangle@@QAENXZ 004c3e35 f   morectangle.obj
 0001:000c2e74       ?SetRight@CMoRectangle@@QAEXN@Z 004c3e74 f   morectangle.obj
 0001:000c2eaa       ?GetTop@CMoRectangle@@QAENXZ 004c3eaa f   morectangle.obj
 0001:000c2ee9       ?SetTop@CMoRectangle@@QAEXN@Z 004c3ee9 f   morectangle.obj
 0001:000c2f1f       ?GetBottom@CMoRectangle@@QAENXZ 004c3f1f f   morectangle.obj
 0001:000c2f5e       ?SetBottom@CMoRectangle@@QAEXN@Z 004c3f5e f   morectangle.obj
 0001:000c2f94       ?GetWidth@CMoRectangle@@QAENXZ 004c3f94 f   morectangle.obj
 0001:000c2fd3       ?SetWidth@CMoRectangle@@QAEXN@Z 004c3fd3 f   morectangle.obj
 0001:000c3009       ?GetHeight@CMoRectangle@@QAENXZ 004c4009 f   morectangle.obj
 0001:000c3048       ?SetHeight@CMoRectangle@@QAEXN@Z 004c4048 f   morectangle.obj
 0001:000c307e       ?GetCenter@CMoRectangle@@QAE?AVCMoPoint@@XZ 004c407e f   morectangle.obj
 0001:000c30db       ?SetCenter@CMoRectangle@@QAEXPAUIDispatch@@@Z 004c40db f   morectangle.obj
 0001:000c310d       ?GetFloor@CMoRectangle@@QAENXZ 004c410d f   morectangle.obj
 0001:000c314c       ?SetFloor@CMoRectangle@@QAEXN@Z 004c414c f   morectangle.obj
 0001:000c3182       ?GetCeiling@CMoRectangle@@QAENXZ 004c4182 f   morectangle.obj
 0001:000c31c1       ?SetCeiling@CMoRectangle@@QAEXN@Z 004c41c1 f   morectangle.obj
 0001:000c31f7       ?GetDepth@CMoRectangle@@QAENXZ 004c41f7 f   morectangle.obj
 0001:000c3236       ?SetDepth@CMoRectangle@@QAEXN@Z 004c4236 f   morectangle.obj
 0001:000c326c       ?GetShapeType@CMoRectangle@@QAEJXZ 004c426c f   morectangle.obj
 0001:000c32a4       ?SetShapeType@CMoRectangle@@QAEXJ@Z 004c42a4 f   morectangle.obj
 0001:000c32d6       ?ScaleRectangle@CMoRectangle@@QAEXN@Z 004c42d6 f   morectangle.obj
 0001:000c3315       ?Offset@CMoRectangle@@QAEXNN@Z 004c4315 f   morectangle.obj
 0001:000c335c       ?Inset@CMoRectangle@@QAEXNN@Z 004c435c f   morectangle.obj
 0001:000c33a3       ?IsPointIn@CMoRectangle@@QAEHPAUIDispatch@@@Z 004c43a3 f   morectangle.obj
 0001:000c33ec       ?Intersects@CMoRectangle@@QAEHPAUIDispatch@@@Z 004c43ec f   morectangle.obj
 0001:000c3435       ?DistanceTo@CMoRectangle@@QAENPAUIDispatch@@@Z 004c4435 f   morectangle.obj
 0001:000c3485       ?GetCrossings@CMoRectangle@@QAE?AVCMoPoints@@PAUIDispatch@@@Z 004c4485 f   morectangle.obj
 0001:000c34f1       ?Difference@CMoRectangle@@QAEPAUIDispatch@@PAU2@ABUtagVARIANT@@@Z 004c44f1 f   morectangle.obj
 0001:000c353e       ?Intersect@CMoRectangle@@QAEPAUIDispatch@@PAU2@ABUtagVARIANT@@@Z 004c453e f   morectangle.obj
 0001:000c358b       ?Xor@CMoRectangle@@QAEPAUIDispatch@@PAU2@ABUtagVARIANT@@@Z 004c458b f   morectangle.obj
 0001:000c35d8       ?Union@CMoRectangle@@QAEPAUIDispatch@@PAU2@ABUtagVARIANT@@@Z 004c45d8 f   morectangle.obj
 0001:000c3625       ?Buffer@CMoRectangle@@QAEPAUIDispatch@@NABUtagVARIANT@@@Z 004c4625 f   morectangle.obj
 0001:000c3676       ?GetExtent@CMoRectangle@@QAE?AV1@XZ 004c4676 f   morectangle.obj
 0001:000c36e0       ?GetType@CMoSpheroid@@QAEJXZ 004c46e0 f   mospheroid.obj
 0001:000c3718       ?SetType@CMoSpheroid@@QAEXJ@Z 004c4718 f   mospheroid.obj
 0001:000c374a       ?GetAxis@CMoSpheroid@@QAENXZ 004c474a f   mospheroid.obj
 0001:000c3789       ?SetAxis@CMoSpheroid@@QAEXN@Z 004c4789 f   mospheroid.obj
 0001:000c37bf       ?GetFlattening@CMoSpheroid@@QAENXZ 004c47bf f   mospheroid.obj
 0001:000c37fe       ?SetFlattening@CMoSpheroid@@QAEXN@Z 004c47fe f   mospheroid.obj
 0001:000c3834       ?GetName@CMoSpheroid@@QAE?AVCString@@XZ 004c4834 f   mospheroid.obj
 0001:000c38cb       ?SetName@CMoSpheroid@@QAEXPBD@Z 004c48cb f   mospheroid.obj
 0001:000c3900       ?GetValid@CMoStandardizer@@QAEHXZ 004c4900 f   mostandardizer.obj
 0001:000c3938       ?SetValid@CMoStandardizer@@QAEXH@Z 004c4938 f   mostandardizer.obj
 0001:000c396a       ?GetFieldCount@CMoStandardizer@@QAEFXZ 004c496a f   mostandardizer.obj
 0001:000c39a3       ?SetFieldCount@CMoStandardizer@@QAEXF@Z 004c49a3 f   mostandardizer.obj
 0001:000c39d6       ?GetStandardizingRules@CMoStandardizer@@QAE?AVCString@@XZ 004c49d6 f   mostandardizer.obj
 0001:000c3a6d       ?SetStandardizingRules@CMoStandardizer@@QAEXPBD@Z 004c4a6d f   mostandardizer.obj
 0001:000c3a9f       ?GetLastError@CMoStandardizer@@QAEJXZ 004c4a9f f   mostandardizer.obj
 0001:000c3ad7       ?SetLastError@CMoStandardizer@@QAEXJ@Z 004c4ad7 f   mostandardizer.obj
 0001:000c3b09       ?GetIntersectionStandardizingRules@CMoStandardizer@@QAE?AVCString@@XZ 004c4b09 f   mostandardizer.obj
 0001:000c3ba0       ?SetIntersectionStandardizingRules@CMoStandardizer@@QAEXPBD@Z 004c4ba0 f   mostandardizer.obj
 0001:000c3bd2       ?StandardizeAddress@CMoStandardizer@@QAEHPBD@Z 004c4bd2 f   mostandardizer.obj
 0001:000c3c1b       ?GetFieldName@CMoStandardizer@@QAE?AVCString@@F@Z 004c4c1b f   mostandardizer.obj
 0001:000c3cc2       ?GetFieldValue@CMoStandardizer@@QAE?AVCString@@PBD@Z 004c4cc2 f   mostandardizer.obj
 0001:000c3d68       ?SetFieldValue@CMoStandardizer@@QAEXPBD0@Z 004c4d68 f   mostandardizer.obj
 0001:000c3db0       ?GetMax@CMoStatistics@@QAENXZ 004c4db0 f   mostatistics.obj
 0001:000c3def       ?SetMax@CMoStatistics@@QAEXN@Z 004c4def f   mostatistics.obj
 0001:000c3e25       ?GetMin@CMoStatistics@@QAENXZ 004c4e25 f   mostatistics.obj
 0001:000c3e64       ?SetMin@CMoStatistics@@QAEXN@Z 004c4e64 f   mostatistics.obj
 0001:000c3e9a       ?GetMean@CMoStatistics@@QAENXZ 004c4e9a f   mostatistics.obj
 0001:000c3ed9       ?SetMean@CMoStatistics@@QAEXN@Z 004c4ed9 f   mostatistics.obj
 0001:000c3f0f       ?GetStdDev@CMoStatistics@@QAENXZ 004c4f0f f   mostatistics.obj
 0001:000c3f4e       ?SetStdDev@CMoStatistics@@QAEXN@Z 004c4f4e f   mostatistics.obj
 0001:000c3f84       ?GetSum@CMoStatistics@@QAENXZ 004c4f84 f   mostatistics.obj
 0001:000c3fc3       ?SetSum@CMoStatistics@@QAEXN@Z 004c4fc3 f   mostatistics.obj
 0001:000c3ff9       ?GetCount@CMoStatistics@@QAEJXZ 004c4ff9 f   mostatistics.obj
 0001:000c4031       ?SetCount@CMoStatistics@@QAEXJ@Z 004c5031 f   mostatistics.obj
 0001:000c4070       ?GetCount@CMoStrings@@QAEFXZ 004c5070 f   mostrings.obj
 0001:000c40a9       ?SetCount@CMoStrings@@QAEXF@Z 004c50a9 f   mostrings.obj
 0001:000c40dc       ?GetUnique@CMoStrings@@QAEHXZ 004c50dc f   mostrings.obj
 0001:000c4114       ?SetUnique@CMoStrings@@QAEXH@Z 004c5114 f   mostrings.obj
 0001:000c4146       ?GetCount2@CMoStrings@@QAEJXZ 004c5146 f   mostrings.obj
 0001:000c417e       ?SetCount2@CMoStrings@@QAEXJ@Z 004c517e f   mostrings.obj
 0001:000c41b0       ?GetPopulateUsingNewConstants@CMoStrings@@QAEHXZ 004c51b0 f   mostrings.obj
 0001:000c41e8       ?SetPopulateUsingNewConstants@CMoStrings@@QAEXH@Z 004c51e8 f   mostrings.obj
 0001:000c421a       ?Item@CMoStrings@@QAE?AVCString@@ABUtagVARIANT@@@Z 004c521a f   mostrings.obj
 0001:000c42c0       ?Add@CMoStrings@@QAEHPBD@Z 004c52c0 f   mostrings.obj
 0001:000c4309       ?Clear@CMoStrings@@QAEXXZ  004c5309 f   mostrings.obj
 0001:000c433b       ?Find@CMoStrings@@QAEJPBDABUtagVARIANT@@@Z 004c533b f   mostrings.obj
 0001:000c4388       ?PopulateWithUnits@CMoStrings@@QAEXXZ 004c5388 f   mostrings.obj
 0001:000c43ba       ?PopulateWithSpheroids@CMoStrings@@QAEXXZ 004c53ba f   mostrings.obj
 0001:000c43ec       ?PopulateWithDatums@CMoStrings@@QAEXXZ 004c53ec f   mostrings.obj
 0001:000c441e       ?PopulateWithMeridians@CMoStrings@@QAEXXZ 004c541e f   mostrings.obj
 0001:000c4450       ?PopulateWithProjections@CMoStrings@@QAEXXZ 004c5450 f   mostrings.obj
 0001:000c4482       ?PopulateWithProjectedCoordSys@CMoStrings@@QAEXXZ 004c5482 f   mostrings.obj
 0001:000c44b4       ?PopulateWithGeographicCoordSys@CMoStrings@@QAEXXZ 004c54b4 f   mostrings.obj
 0001:000c44e6       ?PopulateWithGeoTransformations@CMoStrings@@QAEXXZ 004c54e6 f   mostrings.obj
 0001:000c4518       ?PopulateWithParameters@CMoStrings@@QAEXJ@Z 004c5518 f   mostrings.obj
 0001:000c4553       ?PopulateWithMethods@CMoStrings@@QAEXXZ 004c5553 f   mostrings.obj
 0001:000c4585       ?Sort@CMoStrings@@QAEXJ@Z  004c5585 f   mostrings.obj
 0001:000c45c0       ?GetSize@CMoSymbol@@QAEFXZ 004c55c0 f   mosymbol.obj
 0001:000c45f9       ?SetSize@CMoSymbol@@QAEXF@Z 004c55f9 f   mosymbol.obj
 0001:000c462c       ?GetStyle@CMoSymbol@@QAEFXZ 004c562c f   mosymbol.obj
 0001:000c4665       ?SetStyle@CMoSymbol@@QAEXF@Z 004c5665 f   mosymbol.obj
 0001:000c4698       ?GetColor@CMoSymbol@@QAEKXZ 004c5698 f   mosymbol.obj
 0001:000c46d0       ?SetColor@CMoSymbol@@QAEXK@Z 004c56d0 f   mosymbol.obj
 0001:000c4702       ?GetCharacterIndex@CMoSymbol@@QAEFXZ 004c5702 f   mosymbol.obj
 0001:000c473b       ?SetCharacterIndex@CMoSymbol@@QAEXF@Z 004c573b f   mosymbol.obj
 0001:000c476e       ?GetFont@CMoSymbol@@QAE?AVCOleFont@@XZ 004c576e f   mosymbol.obj
 0001:000c47cb       ?SetFont@CMoSymbol@@QAEXPAUIDispatch@@@Z 004c57cb f   mosymbol.obj
 0001:000c47fd       ?GetOutlineColor@CMoSymbol@@QAEKXZ 004c57fd f   mosymbol.obj
 0001:000c4835       ?SetOutlineColor@CMoSymbol@@QAEXK@Z 004c5835 f   mosymbol.obj
 0001:000c4867       ?GetSymbolType@CMoSymbol@@QAEJXZ 004c5867 f   mosymbol.obj
 0001:000c489f       ?SetSymbolType@CMoSymbol@@QAEXJ@Z 004c589f f   mosymbol.obj
 0001:000c48d1       ?GetOutline@CMoSymbol@@QAEHXZ 004c58d1 f   mosymbol.obj
 0001:000c4909       ?SetOutline@CMoSymbol@@QAEXH@Z 004c5909 f   mosymbol.obj
 0001:000c493b       ?GetCenterOnAscent@CMoSymbol@@QAEHXZ 004c593b f   mosymbol.obj
 0001:000c4973       ?SetCenterOnAscent@CMoSymbol@@QAEXH@Z 004c5973 f   mosymbol.obj
 0001:000c49a5       ?GetCustom@CMoSymbol@@QAEPAUIUnknown@@XZ 004c59a5 f   mosymbol.obj
 0001:000c49dd       ?SetCustom@CMoSymbol@@QAEXPAUIUnknown@@@Z 004c59dd f   mosymbol.obj
 0001:000c4a0f       ?GetRotation@CMoSymbol@@QAENXZ 004c5a0f f   mosymbol.obj
 0001:000c4a4e       ?SetRotation@CMoSymbol@@QAEXN@Z 004c5a4e f   mosymbol.obj
 0001:000c4a90       ??0COleFont@@QAE@PAUIDispatch@@@Z 004c5a90 f i mosymbol.obj
 0001:000c4ac0       ?GetUser@CMoTable@@QAE?AVCString@@XZ 004c5ac0 f   motable.obj
 0001:000c4b57       ?SetUser@CMoTable@@QAEXPBD@Z 004c5b57 f   motable.obj
 0001:000c4b89       ?GetPassword@CMoTable@@QAE?AVCString@@XZ 004c5b89 f   motable.obj
 0001:000c4c20       ?SetPassword@CMoTable@@QAEXPBD@Z 004c5c20 f   motable.obj
 0001:000c4c52       ?GetDatabase@CMoTable@@QAE?AVCString@@XZ 004c5c52 f   motable.obj
 0001:000c4ce9       ?SetDatabase@CMoTable@@QAEXPBD@Z 004c5ce9 f   motable.obj
 0001:000c4d1b       ?GetName@CMoTable@@QAE?AVCString@@XZ 004c5d1b f   motable.obj
 0001:000c4db2       ?SetName@CMoTable@@QAEXPBD@Z 004c5db2 f   motable.obj
 0001:000c4de4       ?GetRecords@CMoTable@@QAE?AVCMoRecordset@@XZ 004c5de4 f   motable.obj
 0001:000c4e41       ?SetRecords@CMoTable@@QAEXPAUIDispatch@@@Z 004c5e41 f   motable.obj
 0001:000c4e73       ?GetServer@CMoTable@@QAE?AVCString@@XZ 004c5e73 f   motable.obj
 0001:000c4f0a       ?SetServer@CMoTable@@QAEXPBD@Z 004c5f0a f   motable.obj
 0001:000c4f3c       ?SearchExpression@CMoTable@@QAE?AVCMoRecordset@@PBD@Z 004c5f3c f   motable.obj
 0001:000c4fa8       ?GetVersion@CMoTable@@QAE?AVCString@@XZ 004c5fa8 f   motable.obj
 0001:000c5046       ?SetVersion@CMoTable@@QAEXPBD@Z 004c6046 f   motable.obj
 0001:000c5081       ?GetCommand@CMoTable@@QAEPAUIDispatch@@XZ 004c6081 f   motable.obj
 0001:000c50c1       ?SetRefCommand@CMoTable@@QAEXPAUIDispatch@@@Z 004c60c1 f   motable.obj
 0001:000c50fc       ?GetMaxCachedRelateRecords@CMoTable@@QAEJXZ 004c60fc f   motable.obj
 0001:000c513c       ?SetMaxCachedRelateRecords@CMoTable@@QAEXJ@Z 004c613c f   motable.obj
 0001:000c5180       ?GetFieldCount@CMoTableDesc@@QAEFXZ 004c6180 f   motabledesc.obj
 0001:000c51b9       ?SetFieldCount@CMoTableDesc@@QAEXF@Z 004c61b9 f   motabledesc.obj
 0001:000c51ec       ?GetCodePage@CMoTableDesc@@QAEJXZ 004c61ec f   motabledesc.obj
 0001:000c5224       ?SetCodePage@CMoTableDesc@@QAEXJ@Z 004c6224 f   motabledesc.obj
 0001:000c5256       ?GetFieldName@CMoTableDesc@@QAE?AVCString@@F@Z 004c6256 f   motabledesc.obj
 0001:000c52fd       ?SetFieldName@CMoTableDesc@@QAEXFPBD@Z 004c62fd f   motabledesc.obj
 0001:000c533d       ?GetFieldType@CMoTableDesc@@QAEJF@Z 004c633d f   motabledesc.obj
 0001:000c5387       ?SetFieldType@CMoTableDesc@@QAEXFJ@Z 004c6387 f   motabledesc.obj
 0001:000c53c7       ?GetFieldPrecision@CMoTableDesc@@QAEFF@Z 004c63c7 f   motabledesc.obj
 0001:000c5412       ?SetFieldPrecision@CMoTableDesc@@QAEXFF@Z 004c6412 f   motabledesc.obj
 0001:000c5453       ?GetFieldLength@CMoTableDesc@@QAEFF@Z 004c6453 f   motabledesc.obj
 0001:000c549e       ?SetFieldLength@CMoTableDesc@@QAEXFF@Z 004c649e f   motabledesc.obj
 0001:000c54df       ?GetFieldScale@CMoTableDesc@@QAEFF@Z 004c64df f   motabledesc.obj
 0001:000c552a       ?SetFieldScale@CMoTableDesc@@QAEXFF@Z 004c652a f   motabledesc.obj
 0001:000c5570       ?GetHorizontalAlignment@CMoTextSymbol@@QAEJXZ 004c6570 f   motextsymbol.obj
 0001:000c55a8       ?SetHorizontalAlignment@CMoTextSymbol@@QAEXJ@Z 004c65a8 f   motextsymbol.obj
 0001:000c55da       ?GetVerticalAlignment@CMoTextSymbol@@QAEJXZ 004c65da f   motextsymbol.obj
 0001:000c5612       ?SetVerticalAlignment@CMoTextSymbol@@QAEXJ@Z 004c6612 f   motextsymbol.obj
 0001:000c5644       ?GetColor@CMoTextSymbol@@QAEKXZ 004c6644 f   motextsymbol.obj
 0001:000c567c       ?SetColor@CMoTextSymbol@@QAEXK@Z 004c667c f   motextsymbol.obj
 0001:000c56ae       ?GetFont@CMoTextSymbol@@QAE?AVCOleFont@@XZ 004c66ae f   motextsymbol.obj
 0001:000c570b       ?SetFont@CMoTextSymbol@@QAEXPAUIDispatch@@@Z 004c670b f   motextsymbol.obj
 0001:000c573d       ?GetRotation@CMoTextSymbol@@QAENXZ 004c673d f   motextsymbol.obj
 0001:000c577c       ?SetRotation@CMoTextSymbol@@QAEXN@Z 004c677c f   motextsymbol.obj
 0001:000c57b2       ?GetHeight@CMoTextSymbol@@QAENXZ 004c67b2 f   motextsymbol.obj
 0001:000c57f1       ?SetHeight@CMoTextSymbol@@QAEXN@Z 004c67f1 f   motextsymbol.obj
 0001:000c5827       ?GetFitted@CMoTextSymbol@@QAEHXZ 004c6827 f   motextsymbol.obj
 0001:000c585f       ?SetFitted@CMoTextSymbol@@QAEXH@Z 004c685f f   motextsymbol.obj
 0001:000c58a0       ?GetEventCount@CMoTrackingLayer@@QAEJXZ 004c68a0 f   motrackinglayer.obj
 0001:000c58d8       ?SetEventCount@CMoTrackingLayer@@QAEXJ@Z 004c68d8 f   motrackinglayer.obj
 0001:000c590a       ?GetSymbolCount@CMoTrackingLayer@@QAEJXZ 004c690a f   motrackinglayer.obj
 0001:000c5942       ?SetSymbolCount@CMoTrackingLayer@@QAEXJ@Z 004c6942 f   motrackinglayer.obj
 0001:000c5974       ?GetVisible@CMoTrackingLayer@@QAEHXZ 004c6974 f   motrackinglayer.obj
 0001:000c59ac       ?SetVisible@CMoTrackingLayer@@QAEXH@Z 004c69ac f   motrackinglayer.obj
 0001:000c59de       ?GetSymbol@CMoTrackingLayer@@QAE?AVCMoSymbol@@J@Z 004c69de f   motrackinglayer.obj
 0001:000c5a4a       ?GetEvent@CMoTrackingLayer@@QAE?AVCMoGeoEvent@@J@Z 004c6a4a f   motrackinglayer.obj
 0001:000c5ab6       ?RemoveEvent@CMoTrackingLayer@@QAEXJ@Z 004c6ab6 f   motrackinglayer.obj
 0001:000c5af1       ?AddEvent@CMoTrackingLayer@@QAE?AVCMoGeoEvent@@PAUIDispatch@@J@Z 004c6af1 f   motrackinglayer.obj
 0001:000c5b61       ?ClearEvents@CMoTrackingLayer@@QAEXXZ 004c6b61 f   motrackinglayer.obj
 0001:000c5b93       ?Refresh@CMoTrackingLayer@@QAEXHABUtagVARIANT@@@Z 004c6b93 f   motrackinglayer.obj
 0001:000c5bd2       ?FindEvent@CMoTrackingLayer@@QAE?AVCMoGeoEvent@@PBD@Z 004c6bd2 f   motrackinglayer.obj
 0001:000c5c40       ??0CMoGeoEvent@@QAE@PAUIDispatch@@@Z 004c6c40 f i motrackinglayer.obj
 0001:000c5c70       ?GetType@CMoUnit@@QAEJXZ   004c6c70 f   mounit.obj
 0001:000c5ca8       ?SetType@CMoUnit@@QAEXJ@Z  004c6ca8 f   mounit.obj
 0001:000c5cda       ?GetName@CMoUnit@@QAE?AVCString@@XZ 004c6cda f   mounit.obj
 0001:000c5d71       ?SetName@CMoUnit@@QAEXPBD@Z 004c6d71 f   mounit.obj
 0001:000c5da3       ?GetFactor@CMoUnit@@QAENXZ 004c6da3 f   mounit.obj
 0001:000c5de2       ?SetFactor@CMoUnit@@QAEXN@Z 004c6de2 f   mounit.obj
 0001:000c5e20       ?GetField@CMoValueMapRenderer@@QAE?AVCString@@XZ 004c6e20 f   movaluemaprenderer.obj
 0001:000c5eb7       ?SetField@CMoValueMapRenderer@@QAEXPBD@Z 004c6eb7 f   movaluemaprenderer.obj
 0001:000c5ee9       ?GetDefaultSymbol@CMoValueMapRenderer@@QAE?AVCMoSymbol@@XZ 004c6ee9 f   movaluemaprenderer.obj
 0001:000c5f46       ?SetDefaultSymbol@CMoValueMapRenderer@@QAEXPAUIDispatch@@@Z 004c6f46 f   movaluemaprenderer.obj
 0001:000c5f78       ?GetUseDefault@CMoValueMapRenderer@@QAEHXZ 004c6f78 f   movaluemaprenderer.obj
 0001:000c5fb0       ?SetUseDefault@CMoValueMapRenderer@@QAEXH@Z 004c6fb0 f   movaluemaprenderer.obj
 0001:000c5fe2       ?GetValueCount@CMoValueMapRenderer@@QAEFXZ 004c6fe2 f   movaluemaprenderer.obj
 0001:000c601b       ?SetValueCount@CMoValueMapRenderer@@QAEXF@Z 004c701b f   movaluemaprenderer.obj
 0001:000c604e       ?GetTag@CMoValueMapRenderer@@QAE?AVCString@@XZ 004c704e f   movaluemaprenderer.obj
 0001:000c60e5       ?SetTag@CMoValueMapRenderer@@QAEXPBD@Z 004c70e5 f   movaluemaprenderer.obj
 0001:000c6117       ?GetSymbolType@CMoValueMapRenderer@@QAEJXZ 004c7117 f   movaluemaprenderer.obj
 0001:000c614f       ?SetSymbolType@CMoValueMapRenderer@@QAEXJ@Z 004c714f f   movaluemaprenderer.obj
 0001:000c6181       ?GetRotationField@CMoValueMapRenderer@@QAE?AVCString@@XZ 004c7181 f   movaluemaprenderer.obj
 0001:000c6218       ?SetRotationField@CMoValueMapRenderer@@QAEXPBD@Z 004c7218 f   movaluemaprenderer.obj
 0001:000c624a       ?GetScalingField@CMoValueMapRenderer@@QAE?AVCString@@XZ 004c724a f   movaluemaprenderer.obj
 0001:000c62e1       ?SetScalingField@CMoValueMapRenderer@@QAEXPBD@Z 004c72e1 f   movaluemaprenderer.obj
 0001:000c6313       ?GetValue@CMoValueMapRenderer@@QAE?AVCString@@F@Z 004c7313 f   movaluemaprenderer.obj
 0001:000c63ba       ?SetValue@CMoValueMapRenderer@@QAEXFPBD@Z 004c73ba f   movaluemaprenderer.obj
 0001:000c63fa       ?GetSymbol@CMoValueMapRenderer@@QAE?AVCMoSymbol@@F@Z 004c73fa f   movaluemaprenderer.obj
 0001:000c6470       ?GetTag@CMoZRenderer@@QAE?AVCString@@XZ 004c7470 f   mozrenderer.obj
 0001:000c6507       ?SetTag@CMoZRenderer@@QAEXPBD@Z 004c7507 f   mozrenderer.obj
 0001:000c6539       ?GetSymbolType@CMoZRenderer@@QAEJXZ 004c7539 f   mozrenderer.obj
 0001:000c6571       ?SetSymbolType@CMoZRenderer@@QAEXJ@Z 004c7571 f   mozrenderer.obj
 0001:000c65a3       ?GetBreakCount@CMoZRenderer@@QAEFXZ 004c75a3 f   mozrenderer.obj
 0001:000c65dc       ?SetBreakCount@CMoZRenderer@@QAEXF@Z 004c75dc f   mozrenderer.obj
 0001:000c660f       ?GetValueCalculation@CMoZRenderer@@QAEJXZ 004c760f f   mozrenderer.obj
 0001:000c6647       ?SetValueCalculation@CMoZRenderer@@QAEXJ@Z 004c7647 f   mozrenderer.obj
 0001:000c6679       ?GetDrawBackground@CMoZRenderer@@QAEHXZ 004c7679 f   mozrenderer.obj
 0001:000c66b1       ?SetDrawBackground@CMoZRenderer@@QAEXH@Z 004c76b1 f   mozrenderer.obj
 0001:000c66e3       ?GetBreak@CMoZRenderer@@QAENF@Z 004c76e3 f   mozrenderer.obj
 0001:000c6734       ?SetBreak@CMoZRenderer@@QAEXFN@Z 004c7734 f   mozrenderer.obj
 0001:000c6778       ?GetSymbol@CMoZRenderer@@QAEPAUIDispatch@@F@Z 004c7778 f   mozrenderer.obj
 0001:000c67c2       ?RampColors@CMoZRenderer@@QAEXKK@Z 004c77c2 f   mozrenderer.obj
 0001:000c6802       _Model_link@84             004c7802 f   DNDCgo:DNDCgo.dll
 0001:000c6808       _page_1@4                  004c7808 f   DNDCgo:DNDCgo.dll
 0001:000c680e       _County_end@28             004c780e f   DNDCgo:DNDCgo.dll
 0001:000c6820       ?UnlockResource@@YGHPAX@Z  004c7820 f i nafxcwd:dlgcore.obj
 0001:000c6830       ??_9@$BMM@AE               004c7830 f i nafxcwd:dlgcore.obj
 0001:000c6840       ??_9@$BNA@AE               004c7840 f i nafxcwd:dlgcore.obj
 0001:000c6850       _InitMultipleMonitorStubs  004c7850 f   nafxcwd:wincore.obj
 0001:000c6999       _xGetSystemMetrics@4       004c7999 f   nafxcwd:wincore.obj
 0001:000c6a14       _xMonitorFromPoint@12      004c7a14 f   nafxcwd:wincore.obj
 0001:000c6a71       _xMonitorFromRect@8        004c7a71 f   nafxcwd:wincore.obj
 0001:000c6ad5       _xMonitorFromWindow@8      004c7ad5 f   nafxcwd:wincore.obj
 0001:000c6b54       _xGetMonitorInfo@8         004c7b54 f   nafxcwd:wincore.obj
 0001:000c6c2d       _xEnumDisplayMonitors@16   004c7c2d f   nafxcwd:wincore.obj
 0001:000c6d60       ?LookupPermanent@CHandleMap@@QAEPAVCObject@@PAX@Z 004c7d60 f i nafxcwd:wincore.obj
 0001:000c6d80       ?LookupTemporary@CHandleMap@@QAEPAVCObject@@PAX@Z 004c7d80 f i nafxcwd:wincore.obj
 0001:000c6da0       ?GetNextWindow@@YAPAUHWND__@@PAU1@I@Z 004c7da0 f i nafxcwd:wincore.obj
 0001:000c6dc0       ?A2T@@YAPADPAD@Z           004c7dc0 f i nafxcwd:wincore.obj
 0001:000c6dd0       ??_ECNoTrackObject@@UAEPAXI@Z 004c7dd0 f i nafxcwd:wincore.obj
 0001:000c6dd0       ??_GCNoTrackObject@@UAEPAXI@Z 004c7dd0 f i nafxcwd:wincore.obj
 0001:000c6e00       ??1CNoTrackObject@@UAE@XZ  004c7e00 f i nafxcwd:wincore.obj
 0001:000c6e20       ?IsEqualGUID@@YAHABU_GUID@@0@Z 004c7e20 f i nafxcwd:cmdtarg.obj
 0001:000c6e40       __tcscmp                   004c7e40 f i nafxcwd:afxinl1.obj
 0001:000c6e60       __tcsicmp                  004c7e60 f i nafxcwd:afxinl1.obj
 0001:000c6e80       __tcscoll                  004c7e80 f i nafxcwd:afxinl1.obj
 0001:000c6ea0       __tcsicoll                 004c7ea0 f i nafxcwd:afxinl1.obj
 0001:000c6ec0       ?data@CStringData@@QAEPADXZ 004c7ec0 f i nafxcwd:strcore.obj
 0001:000c6ee0       __tcschr                   004c7ee0 f i nafxcwd:strcore.obj
 0001:000c6f00       __tcspbrk                  004c7f00 f i nafxcwd:strcore.obj
 0001:000c6f20       __tcsupr                   004c7f20 f i nafxcwd:strcore.obj
 0001:000c6f40       __tcslwr                   004c7f40 f i nafxcwd:strcore.obj
 0001:000c6f60       __tcsrev                   004c7f60 f i nafxcwd:strcore.obj
 0001:000c6f80       __tcsinc                   004c7f80 f i nafxcwd:strex.obj
 0001:000c6fa0       __tcsstr                   004c7fa0 f i nafxcwd:strex.obj
 0001:000c6fc0       __tcsspn                   004c7fc0 f i nafxcwd:strex.obj
 0001:000c6fe0       __tcscspn                  004c7fe0 f i nafxcwd:strex.obj
 0001:000c7000       __tcsrchr                  004c8000 f i nafxcwd:strex.obj
 0001:000c7020       __tcsncmp                  004c8020 f i nafxcwd:strex.obj
 0001:000c7040       __tclen                    004c8040 f i nafxcwd:strex.obj
 0001:000c7060       ?T2CA@@YAPBDPBD@Z          004c8060 f i nafxcwd:appcore.obj
 0001:000c7070       ?GetSize@CRecentFileList@@QBEHXZ 004c8070 f i nafxcwd:appcore.obj
 0001:000c7090       ??ACRecentFileList@@QAEAAVCString@@H@Z 004c8090 f i nafxcwd:appcore.obj
 0001:000c70e0       ?GetHead@CSimpleList@@QBEPAXXZ 004c80e0 f i nafxcwd:thrdcore.obj
 0001:000c7125       ?AfxEnableControlContainer@@YAXPAVCOccManager@@@Z 004c8125 f   nafxcwd:occmgr.obj
 0001:000c7159       ?_AfxFindFirstDlgItem@@YGPAUDLGITEMTEMPLATE@@PBUDLGTEMPLATE@@@Z 004c8159 f   nafxcwd:occmgr.obj
 0001:000c7272       ?_AfxFindNextDlgItem@@YGPAUDLGITEMTEMPLATE@@PAU1@H@Z 004c8272 f   nafxcwd:occmgr.obj
 0001:000c731f       ?OnEvent@COccManager@@UAEHPAVCCmdTarget@@IPAUAFX_EVENT@@PAUAFX_CMDHANDLERINFO@@@Z 004c831f f   nafxcwd:occmgr.obj
 0001:000c7340       ?CreateContainer@COccManager@@UAEPAVCOleControlContainer@@PAVCWnd@@@Z 004c8340 f   nafxcwd:occmgr.obj
 0001:000c73b7       ?CreateSite@COccManager@@UAEPAVCOleControlSite@@PAVCOleControlContainer@@@Z 004c83b7 f   nafxcwd:occmgr.obj
 0001:000c7431       ?PreCreateDialog@COccManager@@UAEPBUDLGTEMPLATE@@PAU_AFX_OCC_DIALOG_INFO@@PBU2@@Z 004c8431 f   nafxcwd:occmgr.obj
 0001:000c74f5       ?PostCreateDialog@COccManager@@UAEXPAU_AFX_OCC_DIALOG_INFO@@@Z 004c84f5 f   nafxcwd:occmgr.obj
 0001:000c752e       ?SplitDialogTemplate@COccManager@@UAEPAUDLGTEMPLATE@@PBU2@PAPAUDLGITEMTEMPLATE@@@Z 004c852e f   nafxcwd:occmgr.obj
 0001:000c7794       ?CreateDlgControls@COccManager@@UAEHPAVCWnd@@PBDPAU_AFX_OCC_DIALOG_INFO@@@Z 004c8794 f   nafxcwd:occmgr.obj
 0001:000c78e5       ?CreateDlgControls@COccManager@@UAEHPAVCWnd@@PAXPAU_AFX_OCC_DIALOG_INFO@@@Z 004c88e5 f   nafxcwd:occmgr.obj
 0001:000c7ca1       ?BindControls@COccManager@@IAEXPAVCWnd@@@Z 004c8ca1 f   nafxcwd:occmgr.obj
 0001:000c7ee7       ?CreateDlgControl@COccManager@@IAEPAUHWND__@@PAVCWnd@@PAU2@HPAUDLGITEMTEMPLATE@@GPAEK@Z 004c8ee7 f   nafxcwd:occmgr.obj
 0001:000c8561       ?PrepareOleCtrl@CDataExchange@@QAEPAVCWnd@@H@Z 004c9561 f   nafxcwd:occmgr.obj
 0001:000c8630       ??1?$CProcessLocal@VCOccManager@@@@QAE@XZ 004c9630 f i nafxcwd:occmgr.obj
 0001:000c8650       ?GetData@?$CProcessLocal@VCOccManager@@@@QAEPAVCOccManager@@XZ 004c9650 f i nafxcwd:occmgr.obj
 0001:000c86a0       ?CreateObject@?$CProcessLocal@VCOccManager@@@@SGPAVCNoTrackObject@@XZ 004c96a0 f i nafxcwd:occmgr.obj
 0001:000c8710       ??0COccManager@@QAE@XZ     004c9710 f i nafxcwd:occmgr.obj
 0001:000c8730       ??_ECOccManager@@UAEPAXI@Z 004c9730 f i nafxcwd:occmgr.obj
 0001:000c8730       ??_GCOccManager@@UAEPAXI@Z 004c9730 f i nafxcwd:occmgr.obj
 0001:000c8760       ??1COccManager@@UAE@XZ     004c9760 f i nafxcwd:occmgr.obj
 0001:000c8780       ?DrawState@@YGHPAUHDC__@@PAUHBRUSH__@@P6GH0JIHH@ZJIHHHHI@Z 004c9780 f i nafxcwd:afxinl2.obj
 0001:000c87c0       ?AtlA2WHelper@@YGPAGPAGPBDH@Z 004c97c0 f i nafxcwd:doccore.obj
 0001:000c87e0       ?AtlA2WHelper@@YGPAGPAGPBDHI@Z 004c97e0 f i nafxcwd:doccore.obj
 0001:000c8870       ??0AFX_CLASSINIT@@QAE@PAUCRuntimeClass@@@Z 004c9870 f i nafxcwd:array_o.obj
 0001:000c8890       ??_9@$BOI@AE               004c9890 f i nafxcwd:viewcore.obj
 0001:000c88a0       ??0CPushRoutingView@@QAE@PAVCView@@@Z 004c98a0 f i nafxcwd:viewcore.obj
 0001:000c88e0       ??1CPushRoutingView@@QAE@XZ 004c98e0 f i nafxcwd:viewcore.obj
 0001:000c8900       ??0CPushRoutingFrame@@QAE@PAVCFrameWnd@@@Z 004c9900 f i nafxcwd:winfrm.obj
 0001:000c8940       ??1CPushRoutingFrame@@QAE@XZ 004c9940 f i nafxcwd:winfrm.obj
 0001:000c8960       ?GetFileTitle@@YGFPBDPADG@Z 004c9960 f i nafxcwd:filecore.obj
 0001:000c8980       ?GetWindowTask@@YAPAUHTASK__@@PAUHWND__@@@Z 004c9980 f i nafxcwd:winfrmx.obj
 0001:000c89a0       ?CreateControl@CWnd@@QAEHPBD0KABUtagRECT@@PAV1@IPAVCFile@@HPAG@Z 004c99a0 f   nafxcwd:occcont.obj
 0001:000c8a18       ?CreateControl@CWnd@@QAEHABU_GUID@@PBDKABUtagRECT@@PAV1@IPAVCFile@@HPAG@Z 004c9a18 f   nafxcwd:occcont.obj
 0001:000c8a9d       ?CreateControl@CWnd@@QAEHABU_GUID@@PBDKPBUtagPOINT@@PBUtagSIZE@@PAV1@IPAVCFile@@HPAG@Z 004c9a9d f   nafxcwd:occcont.obj
 0001:000c8b4a       ?InitControlContainer@CWnd@@IAEHXZ 004c9b4a f   nafxcwd:occcont.obj
 0001:000c8c67       ?GetInterfaceMap@COleControlContainer@@MBEPBUAFX_INTERFACEMAP@@XZ 004c9c67 f   nafxcwd:occcont.obj
 0001:000c8c77       ?GetDispatchMap@COleControlContainer@@MBEPBUAFX_DISPMAP@@XZ 004c9c77 f   nafxcwd:occcont.obj
 0001:000c8c87       ??0COleControlContainer@@QAE@PAVCWnd@@@Z 004c9c87 f   nafxcwd:occcont.obj
 0001:000c8d2d       ??1COleControlContainer@@UAE@XZ 004c9d2d f   nafxcwd:occcont.obj
 0001:000c8e88       ?CreateControl@COleControlContainer@@QAEHPAVCWnd@@ABU_GUID@@PBDKABUtagRECT@@IPAVCFile@@HPAGPAPAVCOleControlSite@@@Z 004c9e88 f   nafxcwd:occcont.obj
 0001:000c8f11       ?CreateControl@COleControlContainer@@QAEHPAVCWnd@@ABU_GUID@@PBDKPBUtagPOINT@@PBUtagSIZE@@IPAVCFile@@HPAGPAPAVCOleControlSite@@@Z 004c9f11 f   nafxcwd:occcont.obj
 0001:000c9089       ?FindItem@COleControlContainer@@UBEPAVCOleControlSite@@I@Z 004ca089 f   nafxcwd:occcont.obj
 0001:000c90d9       ?GetAmbientProp@COleControlContainer@@UAEHPAVCOleControlSite@@JPAUtagVARIANT@@@Z 004ca0d9 f   nafxcwd:occcont.obj
 0001:000c93cb       ?CreateOleFont@COleControlContainer@@QAEXPAVCFont@@@Z 004ca3cb f   nafxcwd:occcont.obj
 0001:000c9619       ?FreezeAllEvents@COleControlContainer@@QAEXH@Z 004ca619 f   nafxcwd:occcont.obj
 0001:000c9661       ?ScrollChildren@COleControlContainer@@UAEXHH@Z 004ca661 f   nafxcwd:occcont.obj
 0001:000c972d       ?OnUIActivate@COleControlContainer@@UAEXPAVCOleControlSite@@@Z 004ca72d f   nafxcwd:occcont.obj
 0001:000c978d       ?OnUIDeactivate@COleControlContainer@@UAEXPAVCOleControlSite@@@Z 004ca78d f   nafxcwd:occcont.obj
 0001:000c97af       ?CheckDlgButton@COleControlContainer@@UAEXHI@Z 004ca7af f   nafxcwd:occcont.obj
 0001:000c9813       ?CheckRadioButton@COleControlContainer@@UAEXHHH@Z 004ca813 f   nafxcwd:occcont.obj
 0001:000c98a2       ?GetDlgItem@COleControlContainer@@UBEPAVCWnd@@H@Z 004ca8a2 f   nafxcwd:occcont.obj
 0001:000c98cd       ?GetDlgItem@COleControlContainer@@UBEXHPAPAUHWND__@@@Z 004ca8cd f   nafxcwd:occcont.obj
 0001:000c9924       ?GetDlgItemInt@COleControlContainer@@UBEIHPAHH@Z 004ca924 f   nafxcwd:occcont.obj
 0001:000c9a1d       ?GetDlgItemTextA@COleControlContainer@@UBEHHPADH@Z 004caa1d f   nafxcwd:occcont.obj
 0001:000c9a58       ?SendDlgItemMessageA@COleControlContainer@@UAEJHIIJ@Z 004caa58 f   nafxcwd:occcont.obj
 0001:000c9a97       ?SetDlgItemInt@COleControlContainer@@UAEXHIH@Z 004caa97 f   nafxcwd:occcont.obj
 0001:000c9ae8       ?SetDlgItemTextA@COleControlContainer@@UAEXHPBD@Z 004caae8 f   nafxcwd:occcont.obj
 0001:000c9b1d       ?IsDlgButtonChecked@COleControlContainer@@UBEIH@Z 004cab1d f   nafxcwd:occcont.obj
 0001:000c9c09       ?QueryInterface@XOleIPFrame@COleControlContainer@@UAGJABU_GUID@@PAPAX@Z 004cac09 f   nafxcwd:occcont.obj
 0001:000c9c2c       ?AddRef@XOleIPFrame@COleControlContainer@@UAGKXZ 004cac2c f   nafxcwd:occcont.obj
 0001:000c9c47       ?Release@XOleIPFrame@COleControlContainer@@UAGKXZ 004cac47 f   nafxcwd:occcont.obj
 0001:000c9c62       ?GetWindow@XOleIPFrame@COleControlContainer@@UAGJPAPAUHWND__@@@Z 004cac62 f   nafxcwd:occcont.obj
 0001:000c9c85       ?ContextSensitiveHelp@XOleIPFrame@COleControlContainer@@UAGJH@Z 004cac85 f   nafxcwd:occcont.obj
 0001:000c9c91       ?GetBorder@XOleIPFrame@COleControlContainer@@UAGJPAUtagRECT@@@Z 004cac91 f   nafxcwd:occcont.obj
 0001:000c9c9d       ?RequestBorderSpace@XOleIPFrame@COleControlContainer@@UAGJPBUtagRECT@@@Z 004cac9d f   nafxcwd:occcont.obj
 0001:000c9ca9       ?SetBorderSpace@XOleIPFrame@COleControlContainer@@UAGJPBUtagRECT@@@Z 004caca9 f   nafxcwd:occcont.obj
 0001:000c9cb5       ?SetActiveObject@XOleIPFrame@COleControlContainer@@UAGJPAUIOleInPlaceActiveObject@@PBG@Z 004cacb5 f   nafxcwd:occcont.obj
 0001:000c9d11       ?InsertMenus@XOleIPFrame@COleControlContainer@@UAGJPAUHMENU__@@PAUtagOleMenuGroupWidths@@@Z 004cad11 f   nafxcwd:occcont.obj
 0001:000c9d1d       ?SetMenu@XOleIPFrame@COleControlContainer@@UAGJPAUHMENU__@@PAXPAUHWND__@@@Z 004cad1d f   nafxcwd:occcont.obj
 0001:000c9d29       ?RemoveMenus@XOleIPFrame@COleControlContainer@@UAGJPAUHMENU__@@@Z 004cad29 f   nafxcwd:occcont.obj
 0001:000c9d35       ?SetStatusText@XOleIPFrame@COleControlContainer@@UAGJPBG@Z 004cad35 f   nafxcwd:occcont.obj
 0001:000c9d41       ?EnableModeless@XOleIPFrame@COleControlContainer@@UAGJH@Z 004cad41 f   nafxcwd:occcont.obj
 0001:000c9d4a       ?TranslateAcceleratorA@XOleIPFrame@COleControlContainer@@UAGJPAUtagMSG@@G@Z 004cad4a f   nafxcwd:occcont.obj
 0001:000c9d56       ?GetInterfaceMap@CEnumUnknown@@MBEPBUAFX_INTERFACEMAP@@XZ 004cad56 f   nafxcwd:occcont.obj
 0001:000c9d66       ??1CEnumUnknown@@UAE@XZ    004cad66 f   nafxcwd:occcont.obj
 0001:000c9e26       ?OnNext@CEnumUnknown@@MAEHPAX@Z 004cae26 f   nafxcwd:occcont.obj
 0001:000c9e84       ?QueryInterface@XOleContainer@COleControlContainer@@UAGJABU_GUID@@PAPAX@Z 004cae84 f   nafxcwd:occcont.obj
 0001:000c9ea7       ?Release@XOleContainer@COleControlContainer@@UAGKXZ 004caea7 f   nafxcwd:occcont.obj
 0001:000c9ec2       ?AddRef@XOleContainer@COleControlContainer@@UAGKXZ 004caec2 f   nafxcwd:occcont.obj
 0001:000c9edd       ?ParseDisplayName@XOleContainer@COleControlContainer@@UAGJPAUIBindCtx@@PAGPAKPAPAUIMoniker@@@Z 004caedd f   nafxcwd:occcont.obj
 0001:000c9ee9       ?EnumObjects@XOleContainer@COleControlContainer@@UAGJKPAPAUIEnumUnknown@@@Z 004caee9 f   nafxcwd:occcont.obj
 0001:000ca1c2       ?LockContainer@XOleContainer@COleControlContainer@@UAGJH@Z 004cb1c2 f   nafxcwd:occcont.obj
 0001:000ca1d0       ??_GCOleControlContainer@@UAEPAXI@Z 004cb1d0 f i nafxcwd:occcont.obj
 0001:000ca1d0       ??_ECOleControlContainer@@UAEPAXI@Z 004cb1d0 f i nafxcwd:occcont.obj
 0001:000ca200       ??0XOleIPFrame@COleControlContainer@@QAE@XZ 004cb200 f i nafxcwd:occcont.obj
 0001:000ca220       ??0XOleContainer@COleControlContainer@@QAE@XZ 004cb220 f i nafxcwd:occcont.obj
 0001:000ca240       ??0IOleInPlaceFrame@@QAE@XZ 004cb240 f i nafxcwd:occcont.obj
 0001:000ca260       ??0IOleContainer@@QAE@XZ   004cb260 f i nafxcwd:occcont.obj
 0001:000ca280       ??0IOleInPlaceUIWindow@@QAE@XZ 004cb280 f i nafxcwd:occcont.obj
 0001:000ca2a0       ??0IParseDisplayName@@QAE@XZ 004cb2a0 f i nafxcwd:occcont.obj
 0001:000ca2c0       ??0IOleWindow@@QAE@XZ      004cb2c0 f i nafxcwd:occcont.obj
 0001:000ca2e0       ??0IUnknown@@QAE@XZ        004cb2e0 f i nafxcwd:occcont.obj
 0001:000ca2f0       ??_ECEnumUnknown@@UAEPAXI@Z 004cb2f0 f i nafxcwd:occcont.obj
 0001:000ca2f0       ??_GCEnumUnknown@@UAEPAXI@Z 004cb2f0 f i nafxcwd:occcont.obj
 0001:000ca320       ??0CEnumUnknown@@QAE@PBXI@Z 004cb320 f i nafxcwd:occcont.obj
 0001:000ca350       ??8@YAHABU_GUID@@0@Z       004cb350 f i nafxcwd:oleunk.obj
 0001:000ca370       ??0CSimpleList@@QAE@H@Z    004cb370 f i nafxcwd:afxstate.obj
 0001:000ca3a0       ?Construct@CSimpleList@@QAEXH@Z 004cb3a0 f i nafxcwd:afxstate.obj
 0001:000ca3e0       ??0CTypeLibCache@@QAE@XZ   004cb3e0 f i nafxcwd:afxstate.obj
 0001:000ca420       ??_ECHandleMap@@UAEPAXI@Z  004cb420 f i nafxcwd:winhand.obj
 0001:000ca420       ??_GCHandleMap@@UAEPAXI@Z  004cb420 f i nafxcwd:winhand.obj
 0001:000ca450       ??1CHandleMap@@UAE@XZ      004cb450 f i nafxcwd:winhand.obj
 0001:000ca4c0       ?GetNextPtr@CSimpleList@@QBEPAPAXPAX@Z 004cb4c0 f i nafxcwd:afxtls.obj
 0001:000ca500       ??2CThreadSlotData@@SGPAXIPAX@Z 004cb500 f i nafxcwd:afxtls.obj
 0001:000ca510       __tcsdec                   004cb510 f i nafxcwd:docmgr.obj
 0001:000ca530       ?OnEvent@CCmdTarget@@QAEHIPAUAFX_EVENT@@PAUAFX_CMDHANDLERINFO@@@Z 004cb530 f   nafxcwd:occevent.obj
 0001:000ca9a1       ?GetEventSinkEntry@CCmdTarget@@IAGPBUAFX_EVENTSINKMAP_ENTRY@@IPAUAFX_EVENT@@@Z 004cb9a1 f   nafxcwd:occevent.obj
 0001:000caa60       ?GetInterfaceMap@COleControlSite@@MBEPBUAFX_INTERFACEMAP@@XZ 004cba60 f   nafxcwd:occsite.obj
 0001:000caa70       ??0COleControlSite@@QAE@PAVCOleControlContainer@@@Z 004cba70 f   nafxcwd:occsite.obj
 0001:000cac4b       ??1COleControlSite@@UAE@XZ 004cbc4b f   nafxcwd:occsite.obj
 0001:000cae46       ?SetExtent@COleControlSite@@IAEHXZ 004cbe46 f   nafxcwd:occsite.obj
 0001:000caf2e       ?CreateControl@COleControlSite@@QAEJPAVCWnd@@ABU_GUID@@PBDKABUtagRECT@@IPAVCFile@@HPAG@Z 004cbf2e f   nafxcwd:occsite.obj
 0001:000cafb3       ?CreateControl@COleControlSite@@QAEJPAVCWnd@@ABU_GUID@@PBDKPBUtagPOINT@@PBUtagSIZE@@IPAVCFile@@HPAG@Z 004cbfb3 f   nafxcwd:occsite.obj
 0001:000cb459       ?DestroyControl@COleControlSite@@UAEHXZ 004cc459 f   nafxcwd:occsite.obj
 0001:000cb4e4       ?_AfxCoCreateInstanceLic@@YGJABU_GUID@@PAUIUnknown@@K0PAPAXPAG@Z 004cc4e4 f   nafxcwd:occsite.obj
 0001:000cb5e7       ?QuickActivate@COleControlSite@@UAEHXZ 004cc5e7 f   nafxcwd:occsite.obj
 0001:000cb88a       ?CreateOrLoad@COleControlSite@@IAEJABU_GUID@@PAVCFile@@HPAG@Z 004cc88a f   nafxcwd:occsite.obj
 0001:000cc040       ?GetID@COleControlSite@@QAEIXZ 004cd040 f   nafxcwd:occsite.obj
 0001:000cc051       ?DoVerb@COleControlSite@@UAEJJPAUtagMSG@@@Z 004cd051 f   nafxcwd:occsite.obj
 0001:000cc09d       ?IsDefaultButton@COleControlSite@@QAEHXZ 004cd09d f   nafxcwd:occsite.obj
 0001:000cc0da       ?GetDefBtnCode@COleControlSite@@QAEKXZ 004cd0da f   nafxcwd:occsite.obj
 0001:000cc10b       ?SetDefaultButton@COleControlSite@@QAEXH@Z 004cd10b f   nafxcwd:occsite.obj
 0001:000cc1bc       ?ConnectSink@COleControlSite@@IAEKABU_GUID@@PAUIUnknown@@@Z 004cd1bc f   nafxcwd:occsite.obj
 0001:000cc2bc       ?DisconnectSink@COleControlSite@@IAEXABU_GUID@@K@Z 004cd2bc f   nafxcwd:occsite.obj
 0001:000cc38e       ?GetEventIID@COleControlSite@@QAEHPAU_GUID@@@Z 004cd38e f   nafxcwd:occsite.obj
 0001:000cc712       ?GetControlInfo@COleControlSite@@QAEXXZ 004cd712 f   nafxcwd:occsite.obj
 0001:000cc7a6       ?IsMatchingMnemonic@COleControlSite@@QAEHPAUtagMSG@@@Z 004cd7a6 f   nafxcwd:occsite.obj
 0001:000cc8db       ?SendMnemonic@COleControlSite@@QAEXPAUtagMSG@@@Z 004cd8db f   nafxcwd:occsite.obj
 0001:000cc96f       ?FreezeEvents@COleControlSite@@QAEXH@Z 004cd96f f   nafxcwd:occsite.obj
 0001:000cc9e5       ?AttachWindow@COleControlSite@@IAEXXZ 004cd9e5 f   nafxcwd:occsite.obj
 0001:000ccad6       ?DetachWindow@COleControlSite@@IAEXXZ 004cdad6 f   nafxcwd:occsite.obj
 0001:000ccb82       ?OnEvent@COleControlSite@@IAEHPAUAFX_EVENT@@@Z 004cdb82 f   nafxcwd:occsite.obj
 0001:000ccbe9       ?InvokeHelperV@COleControlSite@@UAEXJGGPAXPBEPAD@Z 004cdbe9 f   nafxcwd:occsite.obj
 0001:000ccca1       ?SetPropertyV@COleControlSite@@UAEXJGPAD@Z 004cdca1 f   nafxcwd:occsite.obj
 0001:000ccd59       ?InvokeHelper@COleControlSite@@UAAXJGGPAXPBEZZ 004cdd59 f   nafxcwd:occsite.obj
 0001:000ccd93       ?GetProperty@COleControlSite@@UBEXJGPAX@Z 004cdd93 f   nafxcwd:occsite.obj
 0001:000ccdc0       ?SetProperty@COleControlSite@@UAAXJGZZ 004cddc0 f   nafxcwd:occsite.obj
 0001:000ccded       ?SafeSetProperty@COleControlSite@@UAAHJGZZ 004cdded f   nafxcwd:occsite.obj
 0001:000ccea5       ?GetStyle@COleControlSite@@UBEKXZ 004cdea5 f   nafxcwd:occsite.obj
 0001:000ccfee       ?GetExStyle@COleControlSite@@UBEKXZ 004cdfee f   nafxcwd:occsite.obj
 0001:000cd0b0       ?ModifyStyle@COleControlSite@@UAEHKKI@Z 004ce0b0 f   nafxcwd:occsite.obj
 0001:000cd19c       ?ModifyStyleEx@COleControlSite@@UAEHKKI@Z 004ce19c f   nafxcwd:occsite.obj
 0001:000cd210       ?SetWindowTextA@COleControlSite@@UAEXPBD@Z 004ce210 f   nafxcwd:occsite.obj
 0001:000cd286       ?GetWindowTextA@COleControlSite@@UBEXAAVCString@@@Z 004ce286 f   nafxcwd:occsite.obj
 0001:000cd3b0       ?GetWindowTextA@COleControlSite@@UBEHPADH@Z 004ce3b0 f   nafxcwd:occsite.obj
 0001:000cd45b       ?GetWindowTextLengthA@COleControlSite@@UBEHXZ 004ce45b f   nafxcwd:occsite.obj
 0001:000cd4c5       ?GetDlgCtrlID@COleControlSite@@UBEHXZ 004ce4c5 f   nafxcwd:occsite.obj
 0001:000cd4d6       ?SetDlgCtrlID@COleControlSite@@UAEHH@Z 004ce4d6 f   nafxcwd:occsite.obj
 0001:000cd4fa       ?MoveWindow@COleControlSite@@UAEXHHHHH@Z 004ce4fa f   nafxcwd:occsite.obj
 0001:000cd61d       ?SetWindowPos@COleControlSite@@UAEHPBVCWnd@@HHHHI@Z 004ce61d f   nafxcwd:occsite.obj
 0001:000cd734       ?ShowWindow@COleControlSite@@UAEHH@Z 004ce734 f   nafxcwd:occsite.obj
 0001:000cd7b2       ?IsWindowEnabled@COleControlSite@@UBEHXZ 004ce7b2 f   nafxcwd:occsite.obj
 0001:000cd851       ?EnableWindow@COleControlSite@@UAEHH@Z 004ce851 f   nafxcwd:occsite.obj
 0001:000cd918       ?SetFocus@COleControlSite@@UAEPAVCWnd@@XZ 004ce918 f   nafxcwd:occsite.obj
 0001:000cd964       ?EnableDSC@COleControlSite@@UAEXXZ 004ce964 f   nafxcwd:occsite.obj
 0001:000cd9ff       ?BindDefaultProperty@COleControlSite@@UAEXJGPBDPAVCWnd@@@Z 004ce9ff f   nafxcwd:occsite.obj
 0001:000cdb4f       ?BindProperty@COleControlSite@@UAEXJPAVCWnd@@@Z 004ceb4f f   nafxcwd:occsite.obj
 0001:000cdd8c       ?AddRef@XOleClientSite@COleControlSite@@UAGKXZ 004ced8c f   nafxcwd:occsite.obj
 0001:000cdda9       ?Release@XOleClientSite@COleControlSite@@UAGKXZ 004ceda9 f   nafxcwd:occsite.obj
 0001:000cddc6       ?QueryInterface@XOleClientSite@COleControlSite@@UAGJABU_GUID@@PAPAX@Z 004cedc6 f   nafxcwd:occsite.obj
 0001:000cddeb       ?SaveObject@XOleClientSite@COleControlSite@@UAGJXZ 004cedeb f   nafxcwd:occsite.obj
 0001:000cddf7       ?GetMoniker@XOleClientSite@COleControlSite@@UAGJKKPAPAUIMoniker@@@Z 004cedf7 f   nafxcwd:occsite.obj
 0001:000cde03       ?GetContainer@XOleClientSite@COleControlSite@@UAGJPAPAUIOleContainer@@@Z 004cee03 f   nafxcwd:occsite.obj
 0001:000cde2c       ?ShowObject@XOleClientSite@COleControlSite@@UAGJXZ 004cee2c f   nafxcwd:occsite.obj
 0001:000cde4b       ?OnShowWindow@XOleClientSite@COleControlSite@@UAGJH@Z 004cee4b f   nafxcwd:occsite.obj
 0001:000cde54       ?RequestNewObjectLayout@XOleClientSite@COleControlSite@@UAGJXZ 004cee54 f   nafxcwd:occsite.obj
 0001:000cde60       ?AddRef@XOleIPSite@COleControlSite@@UAGKXZ 004cee60 f   nafxcwd:occsite.obj
 0001:000cde7d       ?Release@XOleIPSite@COleControlSite@@UAGKXZ 004cee7d f   nafxcwd:occsite.obj
 0001:000cde9a       ?QueryInterface@XOleIPSite@COleControlSite@@UAGJABU_GUID@@PAPAX@Z 004cee9a f   nafxcwd:occsite.obj
 0001:000cdebf       ?GetWindow@XOleIPSite@COleControlSite@@UAGJPAPAUHWND__@@@Z 004ceebf f   nafxcwd:occsite.obj
 0001:000cdefa       ?ContextSensitiveHelp@XOleIPSite@COleControlSite@@UAGJH@Z 004ceefa f   nafxcwd:occsite.obj
 0001:000cdf06       ?CanInPlaceActivate@XOleIPSite@COleControlSite@@UAGJXZ 004cef06 f   nafxcwd:occsite.obj
 0001:000cdf0f       ?OnInPlaceActivate@XOleIPSite@COleControlSite@@UAGJXZ 004cef0f f   nafxcwd:occsite.obj
 0001:000cdf18       ?OnUIActivate@XOleIPSite@COleControlSite@@UAGJXZ 004cef18 f   nafxcwd:occsite.obj
 0001:000cdf44       ?GetWindowContext@XOleIPSite@COleControlSite@@UAGJPAPAUIOleInPlaceFrame@@PAPAUIOleInPlaceUIWindow@@PAUtagRECT@@2PAUtagOIFI@@@Z 004cef44 f   nafxcwd:occsite.obj
 0001:000ce0fb       ?Scroll@XOleIPSite@COleControlSite@@UAGJUtagSIZE@@@Z 004cf0fb f   nafxcwd:occsite.obj
 0001:000ce107       ?OnUIDeactivate@XOleIPSite@COleControlSite@@UAGJH@Z 004cf107 f   nafxcwd:occsite.obj
 0001:000ce133       ?OnInPlaceDeactivate@XOleIPSite@COleControlSite@@UAGJXZ 004cf133 f   nafxcwd:occsite.obj
 0001:000ce152       ?DiscardUndoState@XOleIPSite@COleControlSite@@UAGJXZ 004cf152 f   nafxcwd:occsite.obj
 0001:000ce15b       ?DeactivateAndUndo@XOleIPSite@COleControlSite@@UAGJXZ 004cf15b f   nafxcwd:occsite.obj
 0001:000ce184       ?OnPosRectChange@XOleIPSite@COleControlSite@@UAGJPBUtagRECT@@@Z 004cf184 f   nafxcwd:occsite.obj
 0001:000ce20a       ?AddRef@XOleControlSite@COleControlSite@@UAGKXZ 004cf20a f   nafxcwd:occsite.obj
 0001:000ce227       ?Release@XOleControlSite@COleControlSite@@UAGKXZ 004cf227 f   nafxcwd:occsite.obj
 0001:000ce244       ?QueryInterface@XOleControlSite@COleControlSite@@UAGJABU_GUID@@PAPAX@Z 004cf244 f   nafxcwd:occsite.obj
 0001:000ce269       ?OnControlInfoChanged@XOleControlSite@COleControlSite@@UAGJXZ 004cf269 f   nafxcwd:occsite.obj
 0001:000ce288       ?LockInPlaceActive@XOleControlSite@COleControlSite@@UAGJH@Z 004cf288 f   nafxcwd:occsite.obj
 0001:000ce294       ?GetExtendedControl@XOleControlSite@COleControlSite@@UAGJPAPAUIDispatch@@@Z 004cf294 f   nafxcwd:occsite.obj
 0001:000ce2a0       ?TransformCoords@XOleControlSite@COleControlSite@@UAGJPAU_POINTL@@PAUtagPOINTF@@K@Z 004cf2a0 f   nafxcwd:occsite.obj
 0001:000ce404       ?TranslateAcceleratorA@XOleControlSite@COleControlSite@@UAGJPAUtagMSG@@K@Z 004cf404 f   nafxcwd:occsite.obj
 0001:000ce410       ?OnFocus@XOleControlSite@COleControlSite@@UAGJH@Z 004cf410 f   nafxcwd:occsite.obj
 0001:000ce419       ?ShowPropertyFrame@XOleControlSite@COleControlSite@@UAGJXZ 004cf419 f   nafxcwd:occsite.obj
 0001:000ce425       ?AddRef@XAmbientProps@COleControlSite@@UAGKXZ 004cf425 f   nafxcwd:occsite.obj
 0001:000ce442       ?Release@XAmbientProps@COleControlSite@@UAGKXZ 004cf442 f   nafxcwd:occsite.obj
 0001:000ce45f       ?QueryInterface@XAmbientProps@COleControlSite@@UAGJABU_GUID@@PAPAX@Z 004cf45f f   nafxcwd:occsite.obj
 0001:000ce484       ?GetTypeInfoCount@XAmbientProps@COleControlSite@@UAGJPAI@Z 004cf484 f   nafxcwd:occsite.obj
 0001:000ce490       ?GetTypeInfo@XAmbientProps@COleControlSite@@UAGJIKPAPAUITypeInfo@@@Z 004cf490 f   nafxcwd:occsite.obj
 0001:000ce49c       ?GetIDsOfNames@XAmbientProps@COleControlSite@@UAGJABU_GUID@@PAPAGIKPAJ@Z 004cf49c f   nafxcwd:occsite.obj
 0001:000ce4a8       ?Invoke@XAmbientProps@COleControlSite@@UAGJJABU_GUID@@KGPAUtagDISPPARAMS@@PAUtagVARIANT@@PAUtagEXCEPINFO@@PAI@Z 004cf4a8 f   nafxcwd:occsite.obj
 0001:000ce58d       ?QueryInterface@XPropertyNotifySink@COleControlSite@@UAGJABU_GUID@@PAPAX@Z 004cf58d f   nafxcwd:occsite.obj
 0001:000ce5e9       ?AddRef@XPropertyNotifySink@COleControlSite@@UAGKXZ 004cf5e9 f   nafxcwd:occsite.obj
 0001:000ce5f5       ?Release@XPropertyNotifySink@COleControlSite@@UAGKXZ 004cf5f5 f   nafxcwd:occsite.obj
 0001:000ce5fe       ?OnChanged@XPropertyNotifySink@COleControlSite@@UAGJJ@Z 004cf5fe f   nafxcwd:occsite.obj
 0001:000ce75c       ?OnRequestEdit@XPropertyNotifySink@COleControlSite@@UAGJJ@Z 004cf75c f   nafxcwd:occsite.obj
 0001:000ce7bc       ?AddRef@XEventSink@COleControlSite@@UAGKXZ 004cf7bc f   nafxcwd:occsite.obj
 0001:000ce7c8       ?Release@XEventSink@COleControlSite@@UAGKXZ 004cf7c8 f   nafxcwd:occsite.obj
 0001:000ce7d1       ?QueryInterface@XEventSink@COleControlSite@@UAGJABU_GUID@@PAPAX@Z 004cf7d1 f   nafxcwd:occsite.obj
 0001:000ce844       ?GetTypeInfoCount@XEventSink@COleControlSite@@UAGJPAI@Z 004cf844 f   nafxcwd:occsite.obj
 0001:000ce850       ?GetTypeInfo@XEventSink@COleControlSite@@UAGJIKPAPAUITypeInfo@@@Z 004cf850 f   nafxcwd:occsite.obj
 0001:000ce85c       ?GetIDsOfNames@XEventSink@COleControlSite@@UAGJABU_GUID@@PAPAGIKPAJ@Z 004cf85c f   nafxcwd:occsite.obj
 0001:000ce868       ?Invoke@XEventSink@COleControlSite@@UAGJJABU_GUID@@KGPAUtagDISPPARAMS@@PAUtagVARIANT@@PAUtagEXCEPINFO@@PAI@Z 004cf868 f   nafxcwd:occsite.obj
 0001:000ce92e       ??0CDataSourceControl@@QAE@PAVCOleControlSite@@@Z 004cf92e f   nafxcwd:occsite.obj
 0001:000cea3c       ??1CDataSourceControl@@QAE@XZ 004cfa3c f   nafxcwd:occsite.obj
 0001:000cee00       ?Initialize@CDataSourceControl@@QAEJXZ 004cfe00 f   nafxcwd:occsite.obj
 0001:000cf01e       ?GetCursor@CDataSourceControl@@UAEPAUIUnknown@@XZ 004d001e f   nafxcwd:occsite.obj
 0001:000cf121       ?GetMetaData@CDataSourceControl@@QAEJXZ 004d0121 f   nafxcwd:occsite.obj
 0001:000cf7dc       ?CopyColumnID@CDataSourceControl@@QAEHPAUtagDBCOLUMNID@@PBU2@@Z 004d07dc f   nafxcwd:occsite.obj
 0001:000cf8a5       ?BindProp@CDataSourceControl@@UAEXPAVCOleControlSite@@H@Z 004d08a5 f   nafxcwd:occsite.obj
 0001:000cfaff       ?BindProp@CDataSourceControl@@UAEXPAVCDataBoundProperty@@H@Z 004d0aff f   nafxcwd:occsite.obj
 0001:000cfb90       ?BindColumns@CDataSourceControl@@UAEXXZ 004d0b90 f   nafxcwd:occsite.obj
 0001:000cfe91       ?GetBoundClientRow@CDataSourceControl@@QAEJXZ 004d0e91 f   nafxcwd:occsite.obj
 0001:000cff39       ?ToVariant@CDataSourceControl@@QAE?AVCOleVariant@@H@Z 004d0f39 f   nafxcwd:occsite.obj
 0001:000d08b7       ?UpdateControls@CDataSourceControl@@UAEJXZ 004d18b7 f   nafxcwd:occsite.obj
 0001:000d0b05       ?UpdateCursor@CDataSourceControl@@UAEJXZ 004d1b05 f   nafxcwd:occsite.obj
 0001:000d16ed       ??0CDataBoundProperty@@QAE@PAV0@JG@Z 004d26ed f   nafxcwd:occsite.obj
 0001:000d1737       ?SetClientSite@CDataBoundProperty@@QAEXPAVCOleControlSite@@@Z 004d2737 f   nafxcwd:occsite.obj
 0001:000d174c       ?SetDSCSite@CDataBoundProperty@@QAEXPAVCOleControlSite@@@Z 004d274c f   nafxcwd:occsite.obj
 0001:000d1777       ?GetNext@CDataBoundProperty@@QAEPAV1@XZ 004d2777 f   nafxcwd:occsite.obj
 0001:000d1788       ?RemoveSource@CDataBoundProperty@@QAEXXZ 004d2788 f   nafxcwd:occsite.obj
 0001:000d17a5       ?Notify@CDataBoundProperty@@QAEXXZ 004d27a5 f   nafxcwd:occsite.obj
 0001:000d1879       ?GetCursor@CDataBoundProperty@@QAEPAUIUnknown@@XZ 004d2879 f   nafxcwd:occsite.obj
 0001:000d1913       ?GetCursor@COleControlSite@@IAEJJPAPAUIUnknown@@PAPAX@Z 004d2913 f   nafxcwd:occsite.obj
 0001:000d196e       ?AddRef@XBoundObjectSite@COleControlSite@@UAGKXZ 004d296e f   nafxcwd:occsite.obj
 0001:000d198b       ?Release@XBoundObjectSite@COleControlSite@@UAGKXZ 004d298b f   nafxcwd:occsite.obj
 0001:000d19a8       ?QueryInterface@XBoundObjectSite@COleControlSite@@UAGJABU_GUID@@PAPAX@Z 004d29a8 f   nafxcwd:occsite.obj
 0001:000d19cd       ?GetCursor@XBoundObjectSite@COleControlSite@@UAGJJPAPAUICursor@@PAPAX@Z 004d29cd f   nafxcwd:occsite.obj
 0001:000d19f6       ?AddRef@XNotifyDBEvents@COleControlSite@@UAGKXZ 004d29f6 f   nafxcwd:occsite.obj
 0001:000d1a02       ?Release@XNotifyDBEvents@COleControlSite@@UAGKXZ 004d2a02 f   nafxcwd:occsite.obj
 0001:000d1a0b       ?QueryInterface@XNotifyDBEvents@COleControlSite@@UAGJABU_GUID@@PAPAX@Z 004d2a0b f   nafxcwd:occsite.obj
 0001:000d1a67       ?OKToDo@XNotifyDBEvents@COleControlSite@@UAGJKKQAUtagDBNOTIFYREASON@@@Z 004d2a67 f   nafxcwd:occsite.obj
 0001:000d1b15       ?Cancelled@XNotifyDBEvents@COleControlSite@@UAGJKKQAUtagDBNOTIFYREASON@@@Z 004d2b15 f   nafxcwd:occsite.obj
 0001:000d1b52       ?SyncBefore@XNotifyDBEvents@COleControlSite@@UAGJKKQAUtagDBNOTIFYREASON@@@Z 004d2b52 f   nafxcwd:occsite.obj
 0001:000d1bdb       ?AboutToDo@XNotifyDBEvents@COleControlSite@@UAGJKKQAUtagDBNOTIFYREASON@@@Z 004d2bdb f   nafxcwd:occsite.obj
 0001:000d1c18       ?FailedToDo@XNotifyDBEvents@COleControlSite@@UAGJKKQAUtagDBNOTIFYREASON@@@Z 004d2c18 f   nafxcwd:occsite.obj
 0001:000d1c55       ?SyncAfter@XNotifyDBEvents@COleControlSite@@UAGJKKQAUtagDBNOTIFYREASON@@@Z 004d2c55 f   nafxcwd:occsite.obj
 0001:000d1d15       ?DidEvent@XNotifyDBEvents@COleControlSite@@UAGJKKQAUtagDBNOTIFYREASON@@@Z 004d2d15 f   nafxcwd:occsite.obj
 0001:000d1da3       ?FireEvent@XNotifyDBEvents@COleControlSite@@QAEJKKQAUtagDBNOTIFYREASON@@W4DSCSTATE@@@Z 004d2da3 f   nafxcwd:occsite.obj
 0001:000d1ede       ?AddRef@XRowsetNotify@COleControlSite@@UAGKXZ 004d2ede f   nafxcwd:occsite.obj
 0001:000d1eea       ?Release@XRowsetNotify@COleControlSite@@UAGKXZ 004d2eea f   nafxcwd:occsite.obj
 0001:000d1ef3       ?QueryInterface@XRowsetNotify@COleControlSite@@UAGJABU_GUID@@PAPAX@Z 004d2ef3 f   nafxcwd:occsite.obj
 0001:000d1f4f       ?OnFieldChange@XRowsetNotify@COleControlSite@@UAGJPAUIRowset@@KKQAKKKH@Z 004d2f4f f   nafxcwd:occsite.obj
 0001:000d2068       ?OnRowChange@XRowsetNotify@COleControlSite@@UAGJPAUIRowset@@KQBKKKH@Z 004d3068 f   nafxcwd:occsite.obj
 0001:000d224f       ?OnRowsetChange@XRowsetNotify@COleControlSite@@UAGJPAUIRowset@@KKH@Z 004d324f f   nafxcwd:occsite.obj
 0001:000d23a0       ??_ECOleControlSite@@UAEPAXI@Z 004d33a0 f i nafxcwd:occsite.obj
 0001:000d23a0       ??_GCOleControlSite@@UAEPAXI@Z 004d33a0 f i nafxcwd:occsite.obj
 0001:000d23d0       ??0XOleClientSite@COleControlSite@@QAE@XZ 004d33d0 f i nafxcwd:occsite.obj
 0001:000d23f0       ??0XOleIPSite@COleControlSite@@QAE@XZ 004d33f0 f i nafxcwd:occsite.obj
 0001:000d2410       ??0XOleControlSite@COleControlSite@@QAE@XZ 004d3410 f i nafxcwd:occsite.obj
 0001:000d2430       ??0XAmbientProps@COleControlSite@@QAE@XZ 004d3430 f i nafxcwd:occsite.obj
 0001:000d2450       ??0XPropertyNotifySink@COleControlSite@@QAE@XZ 004d3450 f i nafxcwd:occsite.obj
 0001:000d2470       ??0XEventSink@COleControlSite@@QAE@XZ 004d3470 f i nafxcwd:occsite.obj
 0001:000d2490       ??0XBoundObjectSite@COleControlSite@@QAE@XZ 004d3490 f i nafxcwd:occsite.obj
 0001:000d24b0       ??0XNotifyDBEvents@COleControlSite@@QAE@XZ 004d34b0 f i nafxcwd:occsite.obj
 0001:000d24d0       ??0XRowsetNotify@COleControlSite@@QAE@XZ 004d34d0 f i nafxcwd:occsite.obj
 0001:000d24f0       ??0IOleClientSite@@QAE@XZ  004d34f0 f i nafxcwd:occsite.obj
 0001:000d2510       ??0IOleInPlaceSite@@QAE@XZ 004d3510 f i nafxcwd:occsite.obj
 0001:000d2530       ??0IOleControlSite@@QAE@XZ 004d3530 f i nafxcwd:occsite.obj
 0001:000d2550       ??0IDispatch@@QAE@XZ       004d3550 f i nafxcwd:occsite.obj
 0001:000d2570       ??0IPropertyNotifySink@@QAE@XZ 004d3570 f i nafxcwd:occsite.obj
 0001:000d2590       ??0IBoundObjectSite@@QAE@XZ 004d3590 f i nafxcwd:occsite.obj
 0001:000d25b0       ??0INotifyDBEvents@@QAE@XZ 004d35b0 f i nafxcwd:occsite.obj
 0001:000d25d0       ??0IRowsetNotify@@QAE@XZ   004d35d0 f i nafxcwd:occsite.obj
 0001:000d25f0       ??_GCDataSourceControl@@QAEPAXI@Z 004d35f0 f i nafxcwd:occsite.obj
 0001:000d2620       ??_GCDataBoundProperty@@QAEPAXI@Z 004d3620 f i nafxcwd:occsite.obj
 0001:000d2650       ??1CDataBoundProperty@@QAE@XZ 004d3650 f i nafxcwd:occsite.obj
 0001:000d2660       ??0AFX_EVENT@@QAE@HJPAUtagDISPPARAMS@@PAUtagEXCEPINFO@@PAI@Z 004d3660 f i nafxcwd:occsite.obj
 0001:000d26c0       ?ReleaseAccessors@CAccessorBase@ATL@@QAEJPAUIUnknown@@@Z 004d36c0 f i nafxcwd:occsite.obj
 0001:000d2820       ?Close@CDynamicAccessor@ATL@@QAEXXZ 004d3820 f i nafxcwd:occsite.obj
 0001:000d28a0       ?Close@CAccessorBase@ATL@@QAEXXZ 004d38a0 f i nafxcwd:occsite.obj
 0001:000d2910       ??_GCDynamicAccessor@ATL@@QAEPAXI@Z 004d3910 f i nafxcwd:occsite.obj
 0001:000d2940       ??1CDynamicAccessor@ATL@@QAE@XZ 004d3940 f i nafxcwd:occsite.obj
 0001:000d2960       ??_GCRowset@ATL@@QAEPAXI@Z 004d3960 f i nafxcwd:occsite.obj
 0001:000d2990       ??1CRowset@ATL@@QAE@XZ     004d3990 f i nafxcwd:occsite.obj
 0001:000d29f0       ?Close@CRowset@ATL@@QAEXXZ 004d39f0 f i nafxcwd:occsite.obj
 0001:000d2a30       ?ReleaseRows@CRowset@ATL@@QAEJXZ 004d3a30 f i nafxcwd:occsite.obj
 0001:000d2ac0       ??0CRowset@ATL@@QAE@PAUIRowset@@@Z 004d3ac0 f i nafxcwd:occsite.obj
 0001:000d2b40       ??0CRowset@ATL@@QAE@XZ     004d3b40 f i nafxcwd:occsite.obj
 0001:000d2bb0       ?MoveFirst@CRowset@ATL@@QAEJXZ 004d3bb0 f i nafxcwd:occsite.obj
 0001:000d2c60       ?MoveNext@CRowset@ATL@@QAEJXZ 004d3c60 f i nafxcwd:occsite.obj
 0001:000d2c80       ?MoveNext@CRowset@ATL@@QAEJJ_N@Z 004d3c80 f i nafxcwd:occsite.obj
 0001:000d2d90       ?AtlTrace2@ATL@@YAXKIPBDZZ 004d3d90 f i nafxcwd:occsite.obj
 0001:000d2e40       ?GetData@CRowset@ATL@@QAEJXZ 004d3e40 f i nafxcwd:occsite.obj
 0001:000d2ef0       ?GetNumAccessors@CAccessorBase@ATL@@QBEKXZ 004d3ef0 f i nafxcwd:occsite.obj
 0001:000d2f10       ?IsAutoAccessor@CAccessorBase@ATL@@QBE_NK@Z 004d3f10 f i nafxcwd:occsite.obj
 0001:000d2f90       ?GetData@CRowset@ATL@@QAEJH@Z 004d3f90 f i nafxcwd:occsite.obj
 0001:000d3080       ?GetHAccessor@CAccessorBase@ATL@@QBEKK@Z 004d4080 f i nafxcwd:occsite.obj
 0001:000d30d0       ?GetBuffer@CAccessorBase@ATL@@QBEPAEXZ 004d40d0 f i nafxcwd:occsite.obj
 0001:000d30f0       ?SetupOptionalRowsetInterfaces@CRowset@ATL@@QAEXXZ 004d40f0 f i nafxcwd:occsite.obj
 0001:000d3130       ?SetAccessor@CRowset@ATL@@QAEXPAVCAccessorBase@2@@Z 004d4130 f i nafxcwd:occsite.obj
 0001:000d3150       ??0CDynamicAccessor@ATL@@QAE@XZ 004d4150 f i nafxcwd:occsite.obj
 0001:000d3190       ??0CAccessorBase@ATL@@QAE@XZ 004d4190 f i nafxcwd:occsite.obj
 0001:000d31c0       ?GetColumnCount@CDynamicAccessor@ATL@@QBEKXZ 004d41c0 f i nafxcwd:occsite.obj
 0001:000d31e0       ?BindColumns@CDynamicAccessor@ATL@@QAEJPAUIUnknown@@@Z 004d41e0 f i nafxcwd:occsite.obj
 0001:000d3730       ?AllocateAccessorMemory@CAccessorBase@ATL@@QAEJH@Z 004d4730 f i nafxcwd:occsite.obj
 0001:000d37f0       ?BindEntries@CAccessorBase@ATL@@SAJPAUtagDBBINDING@@HPAKKPAUIAccessor@@@Z 004d47f0 f i nafxcwd:occsite.obj
 0001:000d39d0       ?Bind@CAccessorBase@ATL@@SAXPAUtagDBBINDING@@KGKEEKKKKPAUtagDBOBJECT@@@Z 004d49d0 f i nafxcwd:occsite.obj
 0001:000d3b00       ?AddOffset@CDynamicAccessor@ATL@@SAKKK@Z 004d4b00 f i nafxcwd:occsite.obj
 0001:000d3b30       ?GetColumnName@CDynamicAccessor@ATL@@QBEPAGK@Z 004d4b30 f i nafxcwd:occsite.obj
 0001:000d3b70       ?TranslateColumnNo@CDynamicAccessor@ATL@@QBE_NAAK@Z 004d4b70 f i nafxcwd:occsite.obj
 0001:000d3c40       ?GetColumnType@CDynamicAccessor@ATL@@QBE_NKPAG@Z 004d4c40 f i nafxcwd:occsite.obj
 0001:000d3c80       ?GetValue@CDynamicAccessor@ATL@@QBEPAXK@Z 004d4c80 f i nafxcwd:occsite.obj
 0001:000d3cc0       ?GetStatus@CDynamicAccessor@ATL@@QBE_NKPAK@Z 004d4cc0 f i nafxcwd:occsite.obj
 0001:000d3d60       ?_GetDataPtr@CDynamicAccessor@ATL@@QBEPAXK@Z 004d4d60 f i nafxcwd:occsite.obj
 0001:000d3d90       ?SetData@CRowset@ATL@@QBEJXZ 004d4d90 f i nafxcwd:occsite.obj
 0001:000d3e30       ?SetData@CRowset@ATL@@QBEJH@Z 004d4e30 f i nafxcwd:occsite.obj
 0001:000d3ed0       ??0CManualAccessor@ATL@@QAE@XZ 004d4ed0 f i nafxcwd:occsite.obj
 0001:000d3f10       ??1CManualAccessor@ATL@@QAE@XZ 004d4f10 f i nafxcwd:occsite.obj
 0001:000d3f50       ?CreateAccessor@CManualAccessor@ATL@@QAEJHPAXK@Z 004d4f50 f i nafxcwd:occsite.obj
 0001:000d4020       ?AddBindEntry@CManualAccessor@ATL@@QAEXKGKPAX00@Z 004d5020 f i nafxcwd:occsite.obj
 0001:000d40f0       ?BindColumns@CManualAccessor@ATL@@QAEJPAUIUnknown@@@Z 004d50f0 f i nafxcwd:occsite.obj
 0001:000d4220       ??0AFX_EVENT@@QAE@H@Z      004d5220 f i nafxcwd:occsite.obj
 0001:000d4280       ??0?$CComPtr@UIAccessor@@@ATL@@QAE@XZ 004d5280 f i nafxcwd:occsite.obj
 0001:000d42a0       ??1?$CComPtr@UIAccessor@@@ATL@@QAE@XZ 004d52a0 f i nafxcwd:occsite.obj
 0001:000d42d0       ??B?$CComPtr@UIAccessor@@@ATL@@QBEPAUIAccessor@@XZ 004d52d0 f i nafxcwd:occsite.obj
 0001:000d42e0       ??I?$CComPtr@UIAccessor@@@ATL@@QAEPAPAUIAccessor@@XZ 004d52e0 f i nafxcwd:occsite.obj
 0001:000d4330       ??C?$CComPtr@UIAccessor@@@ATL@@QBEPAV?$_NoAddRefReleaseOnCComPtr@UIAccessor@@@1@XZ 004d5330 f i nafxcwd:occsite.obj
 0001:000d4380       ??0?$CComPtr@UIRowset@@@ATL@@QAE@XZ 004d5380 f i nafxcwd:occsite.obj
 0001:000d43a0       ??1?$CComPtr@UIRowset@@@ATL@@QAE@XZ 004d53a0 f i nafxcwd:occsite.obj
 0001:000d43d0       ?Release@?$CComPtr@UIRowset@@@ATL@@QAEXXZ 004d53d0 f i nafxcwd:occsite.obj
 0001:000d4400       ??B?$CComPtr@UIRowset@@@ATL@@QBEPAUIRowset@@XZ 004d5400 f i nafxcwd:occsite.obj
 0001:000d4410       ??C?$CComPtr@UIRowset@@@ATL@@QBEPAV?$_NoAddRefReleaseOnCComPtr@UIRowset@@@1@XZ 004d5410 f i nafxcwd:occsite.obj
 0001:000d4460       ??4?$CComPtr@UIRowset@@@ATL@@QAEPAUIRowset@@PAU2@@Z 004d5460 f i nafxcwd:occsite.obj
 0001:000d4480       ?AtlComPtrAssign@ATL@@YGPAUIUnknown@@PAPAU2@PAU2@@Z 004d5480 f i nafxcwd:occsite.obj
 0001:000d44c0       ??0?$CComPtr@UIRowsetChange@@@ATL@@QAE@XZ 004d54c0 f i nafxcwd:occsite.obj
 0001:000d44e0       ??1?$CComPtr@UIRowsetChange@@@ATL@@QAE@XZ 004d54e0 f i nafxcwd:occsite.obj
 0001:000d4510       ?Release@?$CComPtr@UIRowsetChange@@@ATL@@QAEXXZ 004d5510 f i nafxcwd:occsite.obj
 0001:000d4540       ??B?$CComPtr@UIRowsetChange@@@ATL@@QBEPAUIRowsetChange@@XZ 004d5540 f i nafxcwd:occsite.obj
 0001:000d4550       ??I?$CComPtr@UIRowsetChange@@@ATL@@QAEPAPAUIRowsetChange@@XZ 004d5550 f i nafxcwd:occsite.obj
 0001:000d45a0       ??C?$CComPtr@UIRowsetChange@@@ATL@@QBEPAV?$_NoAddRefReleaseOnCComPtr@UIRowsetChange@@@1@XZ 004d55a0 f i nafxcwd:occsite.obj
 0001:000d45f0       ??0?$CComPtr@UIColumnsInfo@@@ATL@@QAE@XZ 004d55f0 f i nafxcwd:occsite.obj
 0001:000d4610       ??1?$CComPtr@UIColumnsInfo@@@ATL@@QAE@XZ 004d5610 f i nafxcwd:occsite.obj
 0001:000d4640       ??I?$CComPtr@UIColumnsInfo@@@ATL@@QAEPAPAUIColumnsInfo@@XZ 004d5640 f i nafxcwd:occsite.obj
 0001:000d4690       ??C?$CComPtr@UIColumnsInfo@@@ATL@@QBEPAV?$_NoAddRefReleaseOnCComPtr@UIColumnsInfo@@@1@XZ 004d5690 f i nafxcwd:occsite.obj
 0001:000d46e0       ?QueryInterface@IUnknown@@QAGJPAPAUIRowsetChange@@@Z 004d56e0 f i nafxcwd:occsite.obj
 0001:000d4700       ?QueryInterface@IUnknown@@QAGJPAPAUIColumnsInfo@@@Z 004d5700 f i nafxcwd:occsite.obj
 0001:000d4720       ?QueryInterface@IUnknown@@QAGJPAPAUIAccessor@@@Z 004d5720 f i nafxcwd:occsite.obj
 0001:000d4740       ?GetValue@CDynamicAccessor@ATL@@QBE_NKPAUtagDB_NUMERIC@@@Z 004d5740 f i nafxcwd:occsite.obj
 0001:000d4780       ?GetValue@CDynamicAccessor@ATL@@QBE_NKPAUtagDBDATE@@@Z 004d5780 f i nafxcwd:occsite.obj
 0001:000d47c0       ?GetValue@CDynamicAccessor@ATL@@QBE_NKPAUtagDBTIME@@@Z 004d57c0 f i nafxcwd:occsite.obj
 0001:000d4800       ?GetValue@CDynamicAccessor@ATL@@QBE_NKPAUtagDBTIMESTAMP@@@Z 004d5800 f i nafxcwd:occsite.obj
 0001:000d4840       ?SetValue@CDynamicAccessor@ATL@@QAE_NKABF@Z 004d5840 f i nafxcwd:occsite.obj
 0001:000d4880       ?SetValue@CDynamicAccessor@ATL@@QAE_NKABJ@Z 004d5880 f i nafxcwd:occsite.obj
 0001:000d48c0       ?SetValue@CDynamicAccessor@ATL@@QAE_NKABM@Z 004d58c0 f i nafxcwd:occsite.obj
 0001:000d4900       ?SetValue@CDynamicAccessor@ATL@@QAE_NKABN@Z 004d5900 f i nafxcwd:occsite.obj
 0001:000d4940       ?SetValue@CDynamicAccessor@ATL@@QAE_NKABUtagDEC@@@Z 004d5940 f i nafxcwd:occsite.obj
 0001:000d4980       ?SetValue@CDynamicAccessor@ATL@@QAE_NKABE@Z 004d5980 f i nafxcwd:occsite.obj
 0001:000d49c0       ?SetValue@CDynamicAccessor@ATL@@QAE_NKABC@Z 004d59c0 f i nafxcwd:occsite.obj
 0001:000d4a00       ?SetValue@CDynamicAccessor@ATL@@QAE_NKABG@Z 004d5a00 f i nafxcwd:occsite.obj
 0001:000d4a40       ?SetValue@CDynamicAccessor@ATL@@QAE_NKABK@Z 004d5a40 f i nafxcwd:occsite.obj
 0001:000d4a80       ?SetValue@CDynamicAccessor@ATL@@QAE_NKABUtagDBTIMESTAMP@@@Z 004d5a80 f i nafxcwd:occsite.obj
 0001:000d4ac0       ?_GetValue@CDynamicAccessor@ATL@@QBEXKPAUtagDB_NUMERIC@@@Z 004d5ac0 f i nafxcwd:occsite.obj
 0001:000d4b80       ?_GetValue@CDynamicAccessor@ATL@@QBEXKPAUtagDBDATE@@@Z 004d5b80 f i nafxcwd:occsite.obj
 0001:000d4c20       ?_GetValue@CDynamicAccessor@ATL@@QBEXKPAUtagDBTIME@@@Z 004d5c20 f i nafxcwd:occsite.obj
 0001:000d4cc0       ?_GetValue@CDynamicAccessor@ATL@@QBEXKPAUtagDBTIMESTAMP@@@Z 004d5cc0 f i nafxcwd:occsite.obj
 0001:000d4d70       ?_SetValue@CDynamicAccessor@ATL@@QAEXKABF@Z 004d5d70 f i nafxcwd:occsite.obj
 0001:000d4de0       ?_SetValue@CDynamicAccessor@ATL@@QAEXKABJ@Z 004d5de0 f i nafxcwd:occsite.obj
 0001:000d4e50       ?_SetValue@CDynamicAccessor@ATL@@QAEXKABM@Z 004d5e50 f i nafxcwd:occsite.obj
 0001:000d4ec0       ?_SetValue@CDynamicAccessor@ATL@@QAEXKABN@Z 004d5ec0 f i nafxcwd:occsite.obj
 0001:000d4f30       ?_SetValue@CDynamicAccessor@ATL@@QAEXKABUtagDEC@@@Z 004d5f30 f i nafxcwd:occsite.obj
 0001:000d4fd0       ?_SetValue@CDynamicAccessor@ATL@@QAEXKABE@Z 004d5fd0 f i nafxcwd:occsite.obj
 0001:000d5040       ?_SetValue@CDynamicAccessor@ATL@@QAEXKABC@Z 004d6040 f i nafxcwd:occsite.obj
 0001:000d50b0       ?_SetValue@CDynamicAccessor@ATL@@QAEXKABG@Z 004d60b0 f i nafxcwd:occsite.obj
 0001:000d5120       ?_SetValue@CDynamicAccessor@ATL@@QAEXKABK@Z 004d6120 f i nafxcwd:occsite.obj
 0001:000d5190       ?_SetValue@CDynamicAccessor@ATL@@QAEXKABUtagDBTIMESTAMP@@@Z 004d6190 f i nafxcwd:occsite.obj
 0001:000d5230       ?_AfxGetDlgCode@@YGKPAVCWnd@@PAUtagMSG@@@Z 004d6230 f   nafxcwd:occdlg.obj
 0001:000d527e       ?_AfxDlgSetFocus@@YGXPAVCWnd@@@Z 004d627e f   nafxcwd:occdlg.obj
 0001:000d52b0       ?_AfxGetChildControl@@YGPAVCWnd@@PAV1@0@Z 004d62b0 f   nafxcwd:occdlg.obj
 0001:000d536d       ?_AfxNextControl@@YGPAVCWnd@@PAV1@0I@Z 004d636d f   nafxcwd:occdlg.obj
 0001:000d5487       ?IsMatchingMnemonic@COccManager@@SAHPAVCWnd@@PAUtagMSG@@@Z 004d6487 f   nafxcwd:occdlg.obj
 0001:000d54be       ?_AfxFindNextMnem@@YGPAVCWnd@@PAV1@0PAUtagMSG@@@Z 004d64be f   nafxcwd:occdlg.obj
 0001:000d558a       ?IsLabelControl@COccManager@@SAHPAVCWnd@@@Z 004d658a f   nafxcwd:occdlg.obj
 0001:000d55cc       ?_AfxGetNextMnem@@YGPAVCWnd@@PAV1@0PAUtagMSG@@@Z 004d65cc f   nafxcwd:occdlg.obj
 0001:000d5673       ?UIActivateControl@COccManager@@KAXPAVCWnd@@@Z 004d6673 f   nafxcwd:occdlg.obj
 0001:000d56f8       ?UIDeactivateIfNecessary@COccManager@@KAXPAVCWnd@@0@Z 004d66f8 f   nafxcwd:occdlg.obj
 0001:000d57c1       ?_AfxFindDlgItem@@YGPAVCWnd@@PAV1@K@Z 004d67c1 f   nafxcwd:occdlg.obj
 0001:000d583d       ?SetDefaultButton@COccManager@@SAXPAVCWnd@@H@Z 004d683d f   nafxcwd:occdlg.obj
 0001:000d589c       ?GetDefBtnCode@COccManager@@SAKPAVCWnd@@@Z 004d689c f   nafxcwd:occdlg.obj
 0001:000d58cf       ?_AfxRemoveDefaultButton@@YGXPAVCWnd@@0@Z 004d68cf f   nafxcwd:occdlg.obj
 0001:000d5955       ?_AfxOriginalDefButton@@YGHPAVCWnd@@@Z 004d6955 f   nafxcwd:occdlg.obj
 0001:000d59a4       ?_AfxCheckDefPushButton@@YGXPAVCWnd@@00@Z 004d69a4 f   nafxcwd:occdlg.obj
 0001:000d5afa       ?IsDialogMessageA@COccManager@@UAEHPAVCWnd@@PAUtagMSG@@@Z 004d6afa f   nafxcwd:occdlg.obj
 0001:000d6050       ?AtlW2AHelper@@YGPADPADPBGH@Z 004d7050 f i nafxcwd:olemisc.obj
 0001:000d6070       ?AtlW2AHelper@@YGPADPADPBGHI@Z 004d7070 f i nafxcwd:olemisc.obj
 0001:000d6100       ?ocslen@@YAIPBG@Z          004d7100 f i nafxcwd:olemisc.obj
 0001:000d6110       ?ocscpy@@YAPAGPAGPBG@Z     004d7110 f i nafxcwd:olemisc.obj
 0001:000d6140       ?AtlDevModeA2W@@YAPAU_devicemodeW@@PAU1@PAU_devicemodeA@@@Z 004d7140 f i nafxcwd:olemisc.obj
 0001:000d6250       ?AtlDevModeW2A@@YGPAU_devicemodeA@@PAU1@PAU_devicemodeW@@@Z 004d7250 f i nafxcwd:olemisc.obj
 0001:000d6360       ??9@YAHABU_GUID@@0@Z       004d7360 f i nafxcwd:oledisp1.obj
 0001:000d6380       ?AfxCheckError@@YGXJ@Z     004d7380 f   nafxcwd:olevar.obj
 0001:000d63a6       ?_AfxCompareSafeArrays@@YGHPAUtagSAFEARRAY@@0@Z 004d73a6 f   nafxcwd:olevar.obj
 0001:000d67f2       ?_AfxCreateOneDimArray@@YGXAAUtagVARIANT@@K@Z 004d77f2 f   nafxcwd:olevar.obj
 0001:000d6924       ?_AfxCopyBinaryData@@YGXPAUtagSAFEARRAY@@PBXK@Z 004d7924 f   nafxcwd:olevar.obj
 0001:000d6966       ??0COleVariant@@QAE@ABUtagVARIANT@@@Z 004d7966 f   nafxcwd:olevar.obj
 0001:000d6993       ??0COleVariant@@QAE@PBUtagVARIANT@@@Z 004d7993 f   nafxcwd:olevar.obj
 0001:000d69c0       ??0COleVariant@@QAE@ABV0@@Z 004d79c0 f   nafxcwd:olevar.obj
 0001:000d69ed       ??0COleVariant@@QAE@PBDG@Z 004d79ed f   nafxcwd:olevar.obj
 0001:000d6b0f       ?SetString@COleVariant@@QAEXPBDG@Z 004d7b0f f   nafxcwd:olevar.obj
 0001:000d6c36       ??0COleVariant@@QAE@FG@Z   004d7c36 f   nafxcwd:olevar.obj
 0001:000d6cc7       ??0COleVariant@@QAE@JG@Z   004d7cc7 f   nafxcwd:olevar.obj
 0001:000d6d84       ?_ClearCompat@COleVariant@@QAEXXZ 004d7d84 f   nafxcwd:olevar.obj
 0001:000d6d97       ?ChangeType@COleVariant@@QAEXGPAUtagVARIANT@@@Z 004d7d97 f   nafxcwd:olevar.obj
 0001:000d6de8       ?Attach@COleVariant@@QAEXAAUtagVARIANT@@@Z 004d7de8 f   nafxcwd:olevar.obj
 0001:000d6e17       ?Detach@COleVariant@@QAE?AUtagVARIANT@@XZ 004d7e17 f   nafxcwd:olevar.obj
 0001:000d6e65       ??8COleVariant@@QBEHABUtagVARIANT@@@Z 004d7e65 f   nafxcwd:olevar.obj
 0001:000d7122       ??4COleVariant@@QAEABV0@ABUtagVARIANT@@@Z 004d8122 f   nafxcwd:olevar.obj
 0001:000d7146       ??4COleVariant@@QAEABV0@PBUtagVARIANT@@@Z 004d8146 f   nafxcwd:olevar.obj
 0001:000d716a       ??4COleVariant@@QAEABV0@ABV0@@Z 004d816a f   nafxcwd:olevar.obj
 0001:000d718e       ??4COleVariant@@QAEABV0@QBD@Z 004d818e f   nafxcwd:olevar.obj
 0001:000d724a       ??4COleVariant@@QAEABV0@ABVCString@@@Z 004d824a f   nafxcwd:olevar.obj
 0001:000d72f9       ??4COleVariant@@QAEABV0@E@Z 004d82f9 f   nafxcwd:olevar.obj
 0001:000d732f       ??4COleVariant@@QAEABV0@F@Z 004d832f f   nafxcwd:olevar.obj
 0001:000d739f       ??4COleVariant@@QAEABV0@J@Z 004d839f f   nafxcwd:olevar.obj
 0001:000d7421       ??4COleVariant@@QAEABV0@ABVCOleCurrency@@@Z 004d8421 f   nafxcwd:olevar.obj
 0001:000d745f       ??4COleVariant@@QAEABV0@M@Z 004d845f f   nafxcwd:olevar.obj
 0001:000d7495       ??4COleVariant@@QAEABV0@N@Z 004d8495 f   nafxcwd:olevar.obj
 0001:000d74d1       ??4COleVariant@@QAEABV0@ABVCOleDateTime@@@Z 004d84d1 f   nafxcwd:olevar.obj
 0001:000d750f       ??4COleVariant@@QAEABV0@ABVCByteArray@@@Z 004d850f f   nafxcwd:olevar.obj
 0001:000d7552       ??4COleVariant@@QAEABV0@ABVCLongBinary@@@Z 004d8552 f   nafxcwd:olevar.obj
 0001:000d75a8       ?AfxVariantInit@@YGXPAUtagVARIANT@@@Z 004d85a8 f   nafxcwd:olevar.obj
 0001:000d75bf       ??6@YGAAVCDumpContext@@AAV0@VCOleVariant@@@Z 004d85bf f   nafxcwd:olevar.obj
 0001:000d79ba       ??6@YGAAVCArchive@@AAV0@VCOleVariant@@@Z 004d89ba f   nafxcwd:olevar.obj
 0001:000d7e1e       ??5@YGAAVCArchive@@AAV0@AAVCOleVariant@@@Z 004d8e1e f   nafxcwd:olevar.obj
 0001:000d8213       ?ConstructElements@@YGXPAVCOleVariant@@H@Z 004d9213 f   nafxcwd:olevar.obj
 0001:000d82d6       ?DestructElements@@YGXPAVCOleVariant@@H@Z 004d92d6 f   nafxcwd:olevar.obj
 0001:000d8340       ?CopyElements@@YGXPAVCOleVariant@@PBV1@H@Z 004d9340 f   nafxcwd:olevar.obj
 0001:000d83eb       ?SerializeElements@@YGXAAVCArchive@@PAVCOleVariant@@H@Z 004d93eb f   nafxcwd:olevar.obj
 0001:000d84a5       ?DumpElements@@YGXAAVCDumpContext@@PBVCOleVariant@@H@Z 004d94a5 f   nafxcwd:olevar.obj
 0001:000d84eb       ?HashKey@@YGIABUtagVARIANT@@@Z 004d94eb f   nafxcwd:olevar.obj
 0001:000d8616       ??0COleCurrency@@QAE@JJ@Z  004d9616 f   nafxcwd:olevar.obj
 0001:000d8640       ??4COleCurrency@@QAEABV0@TtagCY@@@Z 004d9640 f   nafxcwd:olevar.obj
 0001:000d8668       ??4COleCurrency@@QAEABV0@ABV0@@Z 004d9668 f   nafxcwd:olevar.obj
 0001:000d8694       ??4COleCurrency@@QAEABV0@ABUtagVARIANT@@@Z 004d9694 f   nafxcwd:olevar.obj
 0001:000d87ac       ??MCOleCurrency@@QBEHABV0@@Z 004d97ac f   nafxcwd:olevar.obj
 0001:000d8845       ??OCOleCurrency@@QBEHABV0@@Z 004d9845 f   nafxcwd:olevar.obj
 0001:000d88de       ??NCOleCurrency@@QBEHABV0@@Z 004d98de f   nafxcwd:olevar.obj
 0001:000d8976       ??PCOleCurrency@@QBEHABV0@@Z 004d9976 f   nafxcwd:olevar.obj
 0001:000d8a0e       ??HCOleCurrency@@QBE?AV0@ABV0@@Z 004d9a0e f   nafxcwd:olevar.obj
 0001:000d8b02       ??GCOleCurrency@@QBE?AV0@ABV0@@Z 004d9b02 f   nafxcwd:olevar.obj
 0001:000d8bf6       ??GCOleCurrency@@QBE?AV0@XZ 004d9bf6 f   nafxcwd:olevar.obj
 0001:000d8c85       ??DCOleCurrency@@QBE?AV0@J@Z 004d9c85 f   nafxcwd:olevar.obj
 0001:000d8fd8       ??KCOleCurrency@@QBE?AV0@J@Z 004d9fd8 f   nafxcwd:olevar.obj
 0001:000d9340       ?SetCurrency@COleCurrency@@QAEXJJ@Z 004da340 f   nafxcwd:olevar.obj
 0001:000d93f0       ?ParseCurrency@COleCurrency@@QAEHPBDKK@Z 004da3f0 f   nafxcwd:olevar.obj
 0001:000d9596       ?Format@COleCurrency@@QBE?AVCString@@KK@Z 004da596 f   nafxcwd:olevar.obj
 0001:000d9743       ??6@YGAAVCDumpContext@@AAV0@VCOleCurrency@@@Z 004da743 f   nafxcwd:olevar.obj
 0001:000d97df       ??6@YGAAVCArchive@@AAV0@VCOleCurrency@@@Z 004da7df f   nafxcwd:olevar.obj
 0001:000d980a       ??5@YGAAVCArchive@@AAV0@AAVCOleCurrency@@@Z 004da80a f   nafxcwd:olevar.obj
 0001:000d983b       ?_AfxOleDateFromTm@@YGHGGGGGGAAN@Z 004da83b f   nafxcwd:olevar.obj
 0001:000d9a56       ?_AfxTmFromOleDate@@YGHNAAUtm@@@Z 004daa56 f   nafxcwd:olevar.obj
 0001:000d9d42       ?_AfxTmConvertToStandardFormat@@YGXAAUtm@@@Z 004dad42 f   nafxcwd:olevar.obj
 0001:000d9d88       ?_AfxDoubleFromDate@@YGNN@Z 004dad88 f   nafxcwd:olevar.obj
 0001:000d9dc5       ?_AfxDateFromDouble@@YGNN@Z 004dadc5 f   nafxcwd:olevar.obj
 0001:000d9dff       ?GetTickCount@COleDateTime@@SG?AV1@XZ 004dadff f   nafxcwd:olevar.obj
 0001:000d9e2a       ?GetAsSystemTime@COleDateTime@@QBEHAAU_SYSTEMTIME@@@Z 004dae2a f   nafxcwd:olevar.obj
 0001:000d9ec4       ?GetYear@COleDateTime@@QBEHXZ 004daec4 f   nafxcwd:olevar.obj
 0001:000d9efc       ?GetMonth@COleDateTime@@QBEHXZ 004daefc f   nafxcwd:olevar.obj
 0001:000d9f34       ?GetDay@COleDateTime@@QBEHXZ 004daf34 f   nafxcwd:olevar.obj
 0001:000d9f6c       ?GetHour@COleDateTime@@QBEHXZ 004daf6c f   nafxcwd:olevar.obj
 0001:000d9fa4       ?GetMinute@COleDateTime@@QBEHXZ 004dafa4 f   nafxcwd:olevar.obj
 0001:000d9fdc       ?GetSecond@COleDateTime@@QBEHXZ 004dafdc f   nafxcwd:olevar.obj
 0001:000da014       ?GetDayOfWeek@COleDateTime@@QBEHXZ 004db014 f   nafxcwd:olevar.obj
 0001:000da04c       ?GetDayOfYear@COleDateTime@@QBEHXZ 004db04c f   nafxcwd:olevar.obj
 0001:000da084       ??4COleDateTime@@QAEABV0@ABUtagVARIANT@@@Z 004db084 f   nafxcwd:olevar.obj
 0001:000da199       ??4COleDateTime@@QAEABV0@N@Z 004db199 f   nafxcwd:olevar.obj
 0001:000da1c1       ??4COleDateTime@@QAEABV0@ABJ@Z 004db1c1 f   nafxcwd:olevar.obj
 0001:000da267       ??4COleDateTime@@QAEABV0@ABU_SYSTEMTIME@@@Z 004db267 f   nafxcwd:olevar.obj
 0001:000da2ba       ??4COleDateTime@@QAEABV0@ABU_FILETIME@@@Z 004db2ba f   nafxcwd:olevar.obj
 0001:000da35b       ??MCOleDateTime@@QBEHABV0@@Z 004db35b f   nafxcwd:olevar.obj
 0001:000da3fa       ??OCOleDateTime@@QBEHABV0@@Z 004db3fa f   nafxcwd:olevar.obj
 0001:000da499       ??NCOleDateTime@@QBEHABV0@@Z 004db499 f   nafxcwd:olevar.obj
 0001:000da538       ??PCOleDateTime@@QBEHABV0@@Z 004db538 f   nafxcwd:olevar.obj
 0001:000da5d7       ??HCOleDateTime@@QBE?AV0@ABVCOleDateTimeSpan@@@Z 004db5d7 f   nafxcwd:olevar.obj
 0001:000da69c       ??GCOleDateTime@@QBE?AV0@ABVCOleDateTimeSpan@@@Z 004db69c f   nafxcwd:olevar.obj
 0001:000da761       ??GCOleDateTime@@QBE?AVCOleDateTimeSpan@@ABV0@@Z 004db761 f   nafxcwd:olevar.obj
 0001:000da817       ?SetDateTime@COleDateTime@@QAEHHHHHHH@Z 004db817 f   nafxcwd:olevar.obj
 0001:000da85c       ?ParseDateTime@COleDateTime@@QAEHPBDKK@Z 004db85c f   nafxcwd:olevar.obj
 0001:000da9fc       ?Format@COleDateTime@@QBE?AVCString@@KK@Z 004db9fc f   nafxcwd:olevar.obj
 0001:000daba9       ?Format@COleDateTime@@QBE?AVCString@@PBD@Z 004dbba9 f   nafxcwd:olevar.obj
 0001:000dad02       ?Format@COleDateTime@@QBE?AVCString@@I@Z 004dbd02 f   nafxcwd:olevar.obj
 0001:000dada2       ?CheckRange@COleDateTime@@IAEXXZ 004dbda2 f   nafxcwd:olevar.obj
 0001:000daddb       ??6@YGAAVCDumpContext@@AAV0@VCOleDateTime@@@Z 004dbddb f   nafxcwd:olevar.obj
 0001:000dae77       ??6@YGAAVCArchive@@AAV0@VCOleDateTime@@@Z 004dbe77 f   nafxcwd:olevar.obj
 0001:000dae9a       ??5@YGAAVCArchive@@AAV0@AAVCOleDateTime@@@Z 004dbe9a f   nafxcwd:olevar.obj
 0001:000daebc       ?GetHours@COleDateTimeSpan@@QBEJXZ 004dbebc f   nafxcwd:olevar.obj
 0001:000daf34       ?GetMinutes@COleDateTimeSpan@@QBEJXZ 004dbf34 f   nafxcwd:olevar.obj
 0001:000dafb3       ?GetSeconds@COleDateTimeSpan@@QBEJXZ 004dbfb3 f   nafxcwd:olevar.obj
 0001:000db038       ??4COleDateTimeSpan@@QAEABV0@N@Z 004dc038 f   nafxcwd:olevar.obj
 0001:000db060       ??4COleDateTimeSpan@@QAEABV0@ABV0@@Z 004dc060 f   nafxcwd:olevar.obj
 0001:000db08c       ??HCOleDateTimeSpan@@QBE?AV0@ABV0@@Z 004dc08c f   nafxcwd:olevar.obj
 0001:000db131       ??GCOleDateTimeSpan@@QBE?AV0@ABV0@@Z 004dc131 f   nafxcwd:olevar.obj
 0001:000db1d6       ?SetDateTimeSpan@COleDateTimeSpan@@QAEXJHHH@Z 004dc1d6 f   nafxcwd:olevar.obj
 0001:000db216       ?Format@COleDateTimeSpan@@QBE?AVCString@@PBD@Z 004dc216 f   nafxcwd:olevar.obj
 0001:000db4a1       ?Format@COleDateTimeSpan@@QBE?AVCString@@I@Z 004dc4a1 f   nafxcwd:olevar.obj
 0001:000db541       ?CheckRange@COleDateTimeSpan@@QAEXXZ 004dc541 f   nafxcwd:olevar.obj
 0001:000db57a       ??6@YGAAVCDumpContext@@AAV0@VCOleDateTimeSpan@@@Z 004dc57a f   nafxcwd:olevar.obj
 0001:000db61a       ??6@YGAAVCArchive@@AAV0@VCOleDateTimeSpan@@@Z 004dc61a f   nafxcwd:olevar.obj
 0001:000db63d       ??5@YGAAVCArchive@@AAV0@AAVCOleDateTimeSpan@@@Z 004dc63d f   nafxcwd:olevar.obj
 0001:000db65f       ??0COleSafeArray@@QAE@ABUtagSAFEARRAY@@G@Z 004dc65f f   nafxcwd:olevar.obj
 0001:000db6bd       ??0COleSafeArray@@QAE@PBUtagSAFEARRAY@@G@Z 004dc6bd f   nafxcwd:olevar.obj
 0001:000db71b       ??0COleSafeArray@@QAE@ABV0@@Z 004dc71b f   nafxcwd:olevar.obj
 0001:000db75c       ??0COleSafeArray@@QAE@ABUtagVARIANT@@@Z 004dc75c f   nafxcwd:olevar.obj
 0001:000db79d       ??0COleSafeArray@@QAE@PBUtagVARIANT@@@Z 004dc79d f   nafxcwd:olevar.obj
 0001:000db7de       ?Attach@COleSafeArray@@QAEXAAUtagVARIANT@@@Z 004dc7de f   nafxcwd:olevar.obj
 0001:000db83f       ?Detach@COleSafeArray@@QAE?AUtagVARIANT@@XZ 004dc83f f   nafxcwd:olevar.obj
 0001:000db88d       ??4COleSafeArray@@QAEAAV0@ABV0@@Z 004dc88d f   nafxcwd:olevar.obj
 0001:000db8e3       ??4COleSafeArray@@QAEAAV0@ABUtagVARIANT@@@Z 004dc8e3 f   nafxcwd:olevar.obj
 0001:000db939       ??4COleSafeArray@@QAEAAV0@PBUtagVARIANT@@@Z 004dc939 f   nafxcwd:olevar.obj
 0001:000db98f       ??4COleSafeArray@@QAEAAV0@ABVCOleVariant@@@Z 004dc98f f   nafxcwd:olevar.obj
 0001:000db9e5       ??8COleSafeArray@@QBEHABUtagSAFEARRAY@@@Z 004dc9e5 f   nafxcwd:olevar.obj
 0001:000dba02       ??8COleSafeArray@@QBEHPBUtagSAFEARRAY@@@Z 004dca02 f   nafxcwd:olevar.obj
 0001:000dba1f       ??8COleSafeArray@@QBEHABV0@@Z 004dca1f f   nafxcwd:olevar.obj
 0001:000dba57       ??8COleSafeArray@@QBEHABUtagVARIANT@@@Z 004dca57 f   nafxcwd:olevar.obj
 0001:000dba8f       ??8COleSafeArray@@QBEHPBUtagVARIANT@@@Z 004dca8f f   nafxcwd:olevar.obj
 0001:000dbac7       ??8COleSafeArray@@QBEHABVCOleVariant@@@Z 004dcac7 f   nafxcwd:olevar.obj
 0001:000dbaff       ?_AfxDumpSafeArrayElement@@YAXAAVCDumpContext@@AAVCOleSafeArray@@PAJ@Z 004dcaff f   nafxcwd:olevar.obj
 0001:000dbdba       ??6@YGAAVCDumpContext@@AAV0@AAVCOleSafeArray@@@Z 004dcdba f   nafxcwd:olevar.obj
 0001:000dc02c       ?CreateOneDim@COleSafeArray@@QAEXGKPBXJ@Z 004dd02c f   nafxcwd:olevar.obj
 0001:000dc0b7       ?GetOneDimSize@COleSafeArray@@QAEKXZ 004dd0b7 f   nafxcwd:olevar.obj
 0001:000dc116       ?ResizeOneDim@COleSafeArray@@QAEXK@Z 004dd116 f   nafxcwd:olevar.obj
 0001:000dc16b       ?Create@COleSafeArray@@QAEXGKPAK@Z 004dd16b f   nafxcwd:olevar.obj
 0001:000dc294       ?Create@COleSafeArray@@QAEXGKPAUtagSAFEARRAYBOUND@@@Z 004dd294 f   nafxcwd:olevar.obj
 0001:000dc412       ?AccessData@COleSafeArray@@QAEXPAPAX@Z 004dd412 f   nafxcwd:olevar.obj
 0001:000dc436       ?UnaccessData@COleSafeArray@@QAEXXZ 004dd436 f   nafxcwd:olevar.obj
 0001:000dc454       ?AllocData@COleSafeArray@@QAEXXZ 004dd454 f   nafxcwd:olevar.obj
 0001:000dc472       ?AllocDescriptor@COleSafeArray@@QAEXK@Z 004dd472 f   nafxcwd:olevar.obj
 0001:000dc496       ?Copy@COleSafeArray@@QAEXPAPAUtagSAFEARRAY@@@Z 004dd496 f   nafxcwd:olevar.obj
 0001:000dc4ba       ?GetLBound@COleSafeArray@@QAEXKPAJ@Z 004dd4ba f   nafxcwd:olevar.obj
 0001:000dc4e2       ?GetUBound@COleSafeArray@@QAEXKPAJ@Z 004dd4e2 f   nafxcwd:olevar.obj
 0001:000dc50a       ?GetElement@COleSafeArray@@QAEXPAJPAX@Z 004dd50a f   nafxcwd:olevar.obj
 0001:000dc532       ?PtrOfIndex@COleSafeArray@@QAEXPAJPAPAX@Z 004dd532 f   nafxcwd:olevar.obj
 0001:000dc55a       ?PutElement@COleSafeArray@@QAEXPAJPAX@Z 004dd55a f   nafxcwd:olevar.obj
 0001:000dc582       ?Redim@COleSafeArray@@QAEXPAUtagSAFEARRAYBOUND@@@Z 004dd582 f   nafxcwd:olevar.obj
 0001:000dc5a6       ?Lock@COleSafeArray@@QAEXXZ 004dd5a6 f   nafxcwd:olevar.obj
 0001:000dc5c4       ?Unlock@COleSafeArray@@QAEXXZ 004dd5c4 f   nafxcwd:olevar.obj
 0001:000dc5e2       ?Destroy@COleSafeArray@@QAEXXZ 004dd5e2 f   nafxcwd:olevar.obj
 0001:000dc600       ?DestroyData@COleSafeArray@@QAEXXZ 004dd600 f   nafxcwd:olevar.obj
 0001:000dc61e       ?DestroyDescriptor@COleSafeArray@@QAEXXZ 004dd61e f   nafxcwd:olevar.obj
 0001:000dc63c       ?AfxSafeArrayInit@@YGXPAVCOleSafeArray@@@Z 004dd63c f   nafxcwd:olevar.obj
 0001:000dc653       ?DDX_Text@@YGXPAVCDataExchange@@HAAVCOleDateTime@@@Z 004dd653 f   nafxcwd:olevar.obj
 0001:000dc75b       ?DDX_Text@@YGXPAVCDataExchange@@HAAVCOleCurrency@@@Z 004dd75b f   nafxcwd:olevar.obj
 0001:000dc870       ??_GCOleVariant@@QAEPAXI@Z 004dd870 f i nafxcwd:olevar.obj
 0001:000dc8a0       ?HashKey@@YGIK@Z           004dd8a0 f i nafxcwd:olevar.obj
 0001:000dc8b0       ?EnableTypeLib@CCmdTarget@@QAEXXZ 004dd8b0 f   nafxcwd:oletyplb.obj
 0001:000dc90a       ?GetTypeInfoOfGuid@CCmdTarget@@QAEJKABU_GUID@@PAPAUITypeInfo@@@Z 004dd90a f   nafxcwd:oletyplb.obj
 0001:000dcaae       ?AfxGetTypeLibCache@@YGPAVCTypeLibCache@@PBU_GUID@@@Z 004ddaae f   nafxcwd:oletyplb.obj
 0001:000dccb1       ?Lock@CTypeLibCache@@QAEXXZ 004ddcb1 f   nafxcwd:oletyplb.obj
 0001:000dcd05       ?Lookup@CTypeLibCache@@QAEHKPAPAUITypeLib@@@Z 004ddd05 f   nafxcwd:oletyplb.obj
 0001:000dcd7e       ?Cache@CTypeLibCache@@QAEXKPAUITypeLib@@@Z 004ddd7e f   nafxcwd:oletyplb.obj
 0001:000dce36       ?LookupTypeInfo@CTypeLibCache@@QAEHKABU_GUID@@PAPAUITypeInfo@@@Z 004dde36 f   nafxcwd:oletyplb.obj
 0001:000dcefe       ?CacheTypeInfo@CTypeLibCache@@QAEXKABU_GUID@@PAUITypeInfo@@@Z 004ddefe f   nafxcwd:oletyplb.obj
 0001:000dcf90       ??0CTypeLibCacheMap@@QAE@XZ 004ddf90 f i nafxcwd:oletyplb.obj
 0001:000dcfc0       ??_GCTypeLibCacheMap@@UAEPAXI@Z 004ddfc0 f i nafxcwd:oletyplb.obj
 0001:000dcfc0       ??_ECTypeLibCacheMap@@UAEPAXI@Z 004ddfc0 f i nafxcwd:oletyplb.obj
 0001:000dcff0       ??1CTypeLibCacheMap@@UAE@XZ 004ddff0 f i nafxcwd:oletyplb.obj
 0001:000dd010       ??0COleControlLock@@QAE@ABU_GUID@@@Z 004de010 f   nafxcwd:occlock.obj
 0001:000dd0f5       ??1COleControlLock@@UAE@XZ 004de0f5 f   nafxcwd:occlock.obj
 0001:000dd142       ?AfxOleLockControl@@YGHABU_GUID@@@Z 004de142 f   nafxcwd:occlock.obj
 0001:000dd28e       ?AfxOleLockControl@@YGHPBD@Z 004de28e f   nafxcwd:occlock.obj
 0001:000dd2bd       ?AfxOleUnlockControl@@YGHPBD@Z 004de2bd f   nafxcwd:occlock.obj
 0001:000dd2ec       ?AfxOleUnlockControl@@YGHABU_GUID@@@Z 004de2ec f   nafxcwd:occlock.obj
 0001:000dd39a       ?AfxOleUnlockAllControls@@YGXXZ 004de39a f   nafxcwd:occlock.obj
 0001:000dd450       ??_ECOleControlLock@@UAEPAXI@Z 004de450 f i nafxcwd:occlock.obj
 0001:000dd450       ??_GCOleControlLock@@UAEPAXI@Z 004de450 f i nafxcwd:occlock.obj
 0001:000dd480       ?IsEmpty@CSimpleList@@QBEHXZ 004de480 f i nafxcwd:occlock.obj
 0001:000dd4a0       ?AddHead@?$CTypedSimpleList@PAVCOleControlLock@@@@QAEXPAVCOleControlLock@@@Z 004de4a0 f i nafxcwd:occlock.obj
 0001:000dd4c0       ?Remove@?$CTypedSimpleList@PAVCOleControlLock@@@@QAEHPAVCOleControlLock@@@Z 004de4c0 f i nafxcwd:occlock.obj
 0001:000dd4e0       ??B?$CTypedSimpleList@PAVCOleControlLock@@@@QAEPAVCOleControlLock@@XZ 004de4e0 f i nafxcwd:occlock.obj
 0001:000dd500       ?GetRuntimeClass@COleDocObjectItem@@UBEPAUCRuntimeClass@@XZ 004de500 f   nafxcwd:oledoccl.obj
 0001:000dd510       ?GetInterfaceMap@COleDocObjectItem@@MBEPBUAFX_INTERFACEMAP@@XZ 004de510 f   nafxcwd:oledoccl.obj
 0001:000dd520       ??0COleDocObjectItem@@QAE@PAVCOleDocument@@@Z 004de520 f   nafxcwd:oledoccl.obj
 0001:000dd5ab       ??1COleDocObjectItem@@UAE@XZ 004de5ab f   nafxcwd:oledoccl.obj
 0001:000dd63f       ?AddRef@XOleDocumentSite@COleDocObjectItem@@UAGKXZ 004de63f f   nafxcwd:oledoccl.obj
 0001:000dd65c       ?Release@XOleDocumentSite@COleDocObjectItem@@UAGKXZ 004de65c f   nafxcwd:oledoccl.obj
 0001:000dd679       ?QueryInterface@XOleDocumentSite@COleDocObjectItem@@UAGJABU_GUID@@PAPAX@Z 004de679 f   nafxcwd:oledoccl.obj
 0001:000dd69e       ?ActivateMe@XOleDocumentSite@COleDocObjectItem@@UAGJPAUIOleDocumentView@@@Z 004de69e f   nafxcwd:oledoccl.obj
 0001:000dd89a       ?ActivateAndShow@COleDocObjectItem@@IAEXXZ 004de89a f   nafxcwd:oledoccl.obj
 0001:000dd8f4       ?OnGetItemPosition@COleDocObjectItem@@MAEXAAVCRect@@@Z 004de8f4 f   nafxcwd:oledoccl.obj
 0001:000dd96a       ?GetActiveView@COleDocObjectItem@@QBEPAUIOleDocumentView@@XZ 004de96a f   nafxcwd:oledoccl.obj
 0001:000dd97b       ?Release@COleDocObjectItem@@UAEXW4tagOLECLOSE@@@Z 004de97b f   nafxcwd:oledoccl.obj
 0001:000dd9f3       ?ExecCommand@COleDocObjectItem@@QAEJKKPBU_GUID@@@Z 004de9f3 f   nafxcwd:oledoccl.obj
 0001:000dda64       ?SupportsIPrint@COleDocObjectItem@@IAEHXZ 004dea64 f   nafxcwd:oledoccl.obj
 0001:000ddaf3       ?GetPageCount@COleDocObjectItem@@QAEHPAJ0@Z 004deaf3 f   nafxcwd:oledoccl.obj
 0001:000ddb5a       ?GetHelpMenu@COleDocObjectItem@@MAEPAVCMenu@@AAI@Z 004deb5a f   nafxcwd:oledoccl.obj
 0001:000ddb9f       ?OnInsertMenus@COleDocObjectItem@@UAEXPAVCMenu@@PAUtagOleMenuGroupWidths@@@Z 004deb9f f   nafxcwd:oledoccl.obj
 0001:000dde05       ?OnRemoveMenus@COleDocObjectItem@@UAEXPAVCMenu@@@Z 004dee05 f   nafxcwd:oledoccl.obj
 0001:000dde8f       ?OnPreparePrinting@COleDocObjectItem@@SAHPAVCView@@PAUCPrintInfo@@H@Z 004dee8f f   nafxcwd:oledoccl.obj
 0001:000de003       ?OnPrint@COleDocObjectItem@@SAXPAVCView@@PAUCPrintInfo@@H@Z 004df003 f   nafxcwd:oledoccl.obj
 0001:000de290       ??_ECOleDocObjectItem@@UAEPAXI@Z 004df290 f i nafxcwd:oledoccl.obj
 0001:000de290       ??_GCOleDocObjectItem@@UAEPAXI@Z 004df290 f i nafxcwd:oledoccl.obj
 0001:000de2c0       ??0XOleDocumentSite@COleDocObjectItem@@QAE@XZ 004df2c0 f i nafxcwd:oledoccl.obj
 0001:000de2e0       ??0IOleDocumentSite@@QAE@XZ 004df2e0 f i nafxcwd:oledoccl.obj
 0001:000de300       ??0COleCmdUI@@QAE@PAU_tagOLECMD@@KPBU_GUID@@@Z 004df300 f   nafxcwd:oledoctg.obj
 0001:000de347       ?Enable@COleCmdUI@@UAEXH@Z 004df347 f   nafxcwd:oledoctg.obj
 0001:000de3de       ?SetCheck@COleCmdUI@@UAEXH@Z 004df3de f   nafxcwd:oledoctg.obj
 0001:000de497       ?SetText@COleCmdUI@@UAEXPBD@Z 004df497 f   nafxcwd:oledoctg.obj
 0001:000de4b3       ?DoUpdate@COleCmdUI@@UAEHPAVCCmdTarget@@H@Z 004df4b3 f   nafxcwd:oledoctg.obj
 0001:000de63a       ?AddRef@XOleCommandTarget@CDocObjectServer@@UAGKXZ 004df63a f   nafxcwd:oledoctg.obj
 0001:000de658       ?Release@XOleCommandTarget@CDocObjectServer@@UAGKXZ 004df658 f   nafxcwd:oledoctg.obj
 0001:000de676       ?QueryInterface@XOleCommandTarget@CDocObjectServer@@UAGJABU_GUID@@PAPAX@Z 004df676 f   nafxcwd:oledoctg.obj
 0001:000de69c       ?_AfxQueryStatusOleCommandHelper@@YGJPAVCCmdTarget@@PBU_GUID@@KQAU_tagOLECMD@@PAU_tagOLECMDTEXT@@@Z 004df69c f   nafxcwd:oledoctg.obj
 0001:000de8a1       ?QueryStatus@XOleCommandTarget@CDocObjectServer@@UAGJPBU_GUID@@KQAU_tagOLECMD@@PAU_tagOLECMDTEXT@@@Z 004df8a1 f   nafxcwd:oledoctg.obj
 0001:000de8ed       ?_AfxExecOleCommandHelper@@YGJPAVCCmdTarget@@PBU_GUID@@KKPAUtagVARIANT@@2@Z 004df8ed f   nafxcwd:oledoctg.obj
 0001:000de9f1       ?Exec@XOleCommandTarget@CDocObjectServer@@UAGJPBU_GUID@@KKPAUtagVARIANT@@1@Z 004df9f1 f   nafxcwd:oledoctg.obj
 0001:000dea70       ??1COleCmdUI@@QAE@XZ       004dfa70 f i nafxcwd:oledoctg.obj
 0001:000dea90       ?GetRuntimeClass@CDocObjectServer@@UBEPAUCRuntimeClass@@XZ 004dfa90 f   nafxcwd:oledocob.obj
 0001:000deaa0       ?GetMessageMap@CDocObjectServer@@MBEPBUAFX_MSGMAP@@XZ 004dfaa0 f   nafxcwd:oledocob.obj
 0001:000deab0       ?GetInterfaceMap@CDocObjectServer@@MBEPBUAFX_INTERFACEMAP@@XZ 004dfab0 f   nafxcwd:oledocob.obj
 0001:000deac0       ??0CDocObjectServer@@QAE@PAVCOleServerDoc@@PAUIOleDocumentSite@@@Z 004dfac0 f   nafxcwd:oledocob.obj
 0001:000deba8       ??1CDocObjectServer@@UAE@XZ 004dfba8 f   nafxcwd:oledocob.obj
 0001:000debf9       ?ReleaseDocSite@CDocObjectServer@@QAEXXZ 004dfbf9 f   nafxcwd:oledocob.obj
 0001:000dec29       ?SetDocSite@CDocObjectServer@@QAEXPAUIOleDocumentSite@@@Z 004dfc29 f   nafxcwd:oledocob.obj
 0001:000dec47       ?OnCloseDocument@CDocObjectServer@@UAEXXZ 004dfc47 f   nafxcwd:oledocob.obj
 0001:000dec6e       ?ActivateDocObject@CDocObjectServer@@QAEXXZ 004dfc6e f   nafxcwd:oledocob.obj
 0001:000dece2       ?OnExecOleCmd@CDocObjectServer@@IAGJPBU_GUID@@KKPAUtagVARIANT@@1@Z 004dfce2 f   nafxcwd:oledocob.obj
 0001:000ded47       ?GetControllingFrame@CDocObjectServer@@QBEPAVCOleDocIPFrameWnd@@XZ 004dfd47 f   nafxcwd:oledocob.obj
 0001:000dedcd       ?DoPreparePrinting@CDocObjectServer@@IAEHPAVCView@@PAUCPrintInfo@@@Z 004dfdcd f   nafxcwd:oledocob.obj
 0001:000dedec       ?DoPrepareDC@CDocObjectServer@@IAEXPAVCView@@PAVCDC@@PAUCPrintInfo@@@Z 004dfdec f   nafxcwd:oledocob.obj
 0001:000dee0f       ?DoPrint@CDocObjectServer@@IAEXPAVCView@@PAVCDC@@PAUCPrintInfo@@@Z 004dfe0f f   nafxcwd:oledocob.obj
 0001:000dee32       ?DoBeginPrinting@CDocObjectServer@@IAEXPAVCView@@PAVCDC@@PAUCPrintInfo@@@Z 004dfe32 f   nafxcwd:oledocob.obj
 0001:000dee55       ?DoEndPrinting@CDocObjectServer@@IAEXPAVCView@@PAVCDC@@PAUCPrintInfo@@@Z 004dfe55 f   nafxcwd:oledocob.obj
 0001:000dee78       ?AddRef@XPrint@CDocObjectServer@@UAGKXZ 004dfe78 f   nafxcwd:oledocob.obj
 0001:000dee96       ?Release@XPrint@CDocObjectServer@@UAGKXZ 004dfe96 f   nafxcwd:oledocob.obj
 0001:000deeb4       ?QueryInterface@XPrint@CDocObjectServer@@UAGJABU_GUID@@PAPAX@Z 004dfeb4 f   nafxcwd:oledocob.obj
 0001:000deed7       ?SetInitialPageNum@XPrint@CDocObjectServer@@UAGJJ@Z 004dfed7 f   nafxcwd:oledocob.obj
 0001:000def08       ?GetPageInfo@XPrint@CDocObjectServer@@UAGJPAJ0@Z 004dff08 f   nafxcwd:oledocob.obj
 0001:000df064       ?Print@XPrint@CDocObjectServer@@UAGJKPAPAUtagDVTARGETDEVICE@@PAPAUtagPAGESET@@PAUtagSTGMEDIUM@@PAUIContinueCallback@@JPAJ4@Z 004e0064 f   nafxcwd:oledocob.obj
 0001:000dfb5c       ?AddRef@XOleDocument@CDocObjectServer@@UAGKXZ 004e0b5c f   nafxcwd:oledocob.obj
 0001:000dfb7a       ?Release@XOleDocument@CDocObjectServer@@UAGKXZ 004e0b7a f   nafxcwd:oledocob.obj
 0001:000dfb98       ?QueryInterface@XOleDocument@CDocObjectServer@@UAGJABU_GUID@@PAPAX@Z 004e0b98 f   nafxcwd:oledocob.obj
 0001:000dfbbb       ?CreateView@XOleDocument@CDocObjectServer@@UAGJPAUIOleInPlaceSite@@PAUIStream@@KPAPAUIOleDocumentView@@@Z 004e0bbb f   nafxcwd:oledocob.obj
 0001:000dfca6       ?GetDocMiscStatus@XOleDocument@CDocObjectServer@@UAGJPAK@Z 004e0ca6 f   nafxcwd:oledocob.obj
 0001:000dfcfd       ?EnumViews@XOleDocument@CDocObjectServer@@UAGJPAPAUIEnumOleDocumentViews@@PAPAUIOleDocumentView@@@Z 004e0cfd f   nafxcwd:oledocob.obj
 0001:000dfd8e       ?AddRef@XOleObject@CDocObjectServer@@UAGKXZ 004e0d8e f   nafxcwd:oledocob.obj
 0001:000dfdac       ?Release@XOleObject@CDocObjectServer@@UAGKXZ 004e0dac f   nafxcwd:oledocob.obj
 0001:000dfdca       ?QueryInterface@XOleObject@CDocObjectServer@@UAGJABU_GUID@@PAPAX@Z 004e0dca f   nafxcwd:oledocob.obj
 0001:000dfdf0       ?SetClientSite@XOleObject@CDocObjectServer@@UAGJPAUIOleClientSite@@@Z 004e0df0 f   nafxcwd:oledocob.obj
 0001:000dfe78       ?GetClientSite@XOleObject@CDocObjectServer@@UAGJPAPAUIOleClientSite@@@Z 004e0e78 f   nafxcwd:oledocob.obj
 0001:000dfebe       ?SetHostNames@XOleObject@CDocObjectServer@@UAGJPBG0@Z 004e0ebe f   nafxcwd:oledocob.obj
 0001:000dff08       ?Close@XOleObject@CDocObjectServer@@UAGJK@Z 004e0f08 f   nafxcwd:oledocob.obj
 0001:000dff4e       ?SetMoniker@XOleObject@CDocObjectServer@@UAGJKPAUIMoniker@@@Z 004e0f4e f   nafxcwd:oledocob.obj
 0001:000dff98       ?GetMoniker@XOleObject@CDocObjectServer@@UAGJKKPAPAUIMoniker@@@Z 004e0f98 f   nafxcwd:oledocob.obj
 0001:000dffe5       ?InitFromData@XOleObject@CDocObjectServer@@UAGJPAUIDataObject@@HK@Z 004e0fe5 f   nafxcwd:oledocob.obj
 0001:000e0032       ?GetClipboardData@XOleObject@CDocObjectServer@@UAGJKPAPAUIDataObject@@@Z 004e1032 f   nafxcwd:oledocob.obj
 0001:000e007c       ?DoVerb@XOleObject@CDocObjectServer@@UAGJJPAUtagMSG@@PAUIOleClientSite@@JPAUHWND__@@PBUtagRECT@@@Z 004e107c f   nafxcwd:oledocob.obj
 0001:000e00d5       ?EnumVerbs@XOleObject@CDocObjectServer@@UAGJPAPAUIEnumOLEVERB@@@Z 004e10d5 f   nafxcwd:oledocob.obj
 0001:000e011b       ?Update@XOleObject@CDocObjectServer@@UAGJXZ 004e111b f   nafxcwd:oledocob.obj
 0001:000e015c       ?IsUpToDate@XOleObject@CDocObjectServer@@UAGJXZ 004e115c f   nafxcwd:oledocob.obj
 0001:000e019d       ?GetUserClassID@XOleObject@CDocObjectServer@@UAGJPAU_GUID@@@Z 004e119d f   nafxcwd:oledocob.obj
 0001:000e01e3       ?GetUserType@XOleObject@CDocObjectServer@@UAGJKPAPAG@Z 004e11e3 f   nafxcwd:oledocob.obj
 0001:000e022d       ?SetExtent@XOleObject@CDocObjectServer@@UAGJKPAUtagSIZE@@@Z 004e122d f   nafxcwd:oledocob.obj
 0001:000e028c       ?GetExtent@XOleObject@CDocObjectServer@@UAGJKPAUtagSIZE@@@Z 004e128c f   nafxcwd:oledocob.obj
 0001:000e02d6       ?Advise@XOleObject@CDocObjectServer@@UAGJPAUIAdviseSink@@PAK@Z 004e12d6 f   nafxcwd:oledocob.obj
 0001:000e0320       ?Unadvise@XOleObject@CDocObjectServer@@UAGJK@Z 004e1320 f   nafxcwd:oledocob.obj
 0001:000e0366       ?EnumAdvise@XOleObject@CDocObjectServer@@UAGJPAPAUIEnumSTATDATA@@@Z 004e1366 f   nafxcwd:oledocob.obj
 0001:000e03ac       ?GetMiscStatus@XOleObject@CDocObjectServer@@UAGJKPAK@Z 004e13ac f   nafxcwd:oledocob.obj
 0001:000e03f6       ?SetColorScheme@XOleObject@CDocObjectServer@@UAGJPAUtagLOGPALETTE@@@Z 004e13f6 f   nafxcwd:oledocob.obj
 0001:000e043c       ?AssertValid@CDocObjectServer@@MBEXXZ 004e143c f   nafxcwd:oledocob.obj
 0001:000e0478       ?Dump@CDocObjectServer@@MBEXAAVCDumpContext@@@Z 004e1478 f   nafxcwd:oledocob.obj
 0001:000e04df       ?GetRuntimeClass@CDocObjectServerItem@@UBEPAUCRuntimeClass@@XZ 004e14df f   nafxcwd:oledocob.obj
 0001:000e04ef       ??0CDocObjectServerItem@@IAE@PAVCOleServerDoc@@H@Z 004e14ef f   nafxcwd:oledocob.obj
 0001:000e0518       ??1CDocObjectServerItem@@UAE@XZ 004e1518 f   nafxcwd:oledocob.obj
 0001:000e0534       ?OnDoVerb@CDocObjectServerItem@@MAEXJ@Z 004e1534 f   nafxcwd:oledocob.obj
 0001:000e0595       ?OnHide@CDocObjectServerItem@@MAEXXZ 004e1595 f   nafxcwd:oledocob.obj
 0001:000e05e0       ?OnOpen@CDocObjectServerItem@@MAEXXZ 004e15e0 f   nafxcwd:oledocob.obj
 0001:000e0629       ?OnShow@CDocObjectServerItem@@MAEXXZ 004e1629 f   nafxcwd:oledocob.obj
 0001:000e0672       ?AssertValid@CDocObjectServerItem@@UBEXXZ 004e1672 f   nafxcwd:oledocob.obj
 0001:000e0685       ?Dump@CDocObjectServerItem@@UBEXAAVCDumpContext@@@Z 004e1685 f   nafxcwd:oledocob.obj
 0001:000e06a0       ??_GCDocObjectServer@@UAEPAXI@Z 004e16a0 f i nafxcwd:oledocob.obj
 0001:000e06a0       ??_ECDocObjectServer@@UAEPAXI@Z 004e16a0 f i nafxcwd:oledocob.obj
 0001:000e06d0       ??0XOleObject@CDocObjectServer@@QAE@XZ 004e16d0 f i nafxcwd:oledocob.obj
 0001:000e06f0       ??0XOleDocument@CDocObjectServer@@QAE@XZ 004e16f0 f i nafxcwd:oledocob.obj
 0001:000e0710       ??0XOleDocumentView@CDocObjectServer@@QAE@XZ 004e1710 f i nafxcwd:oledocob.obj
 0001:000e0730       ??0XOleCommandTarget@CDocObjectServer@@QAE@XZ 004e1730 f i nafxcwd:oledocob.obj
 0001:000e0750       ??0XPrint@CDocObjectServer@@QAE@XZ 004e1750 f i nafxcwd:oledocob.obj
 0001:000e0770       ??0IOleObject@@QAE@XZ      004e1770 f i nafxcwd:oledocob.obj
 0001:000e0790       ??0IOleDocument@@QAE@XZ    004e1790 f i nafxcwd:oledocob.obj
 0001:000e07b0       ??0IOleDocumentView@@QAE@XZ 004e17b0 f i nafxcwd:oledocob.obj
 0001:000e07d0       ??0IPrint@@QAE@XZ          004e17d0 f i nafxcwd:oledocob.obj
 0001:000e07f0       ??_ECDocObjectServerItem@@UAEPAXI@Z 004e17f0 f i nafxcwd:oledocob.obj
 0001:000e07f0       ??_GCDocObjectServerItem@@UAEPAXI@Z 004e17f0 f i nafxcwd:oledocob.obj
 0001:000e0820       ?GetDocument@CDocObjectServerItem@@QBEPAVCOleServerDoc@@XZ 004e1820 f i nafxcwd:oledocob.obj
 0001:000e0840       ?OnSaveViewState@CDocObjectServer@@MAEXAAVCArchive@@@Z 004e1840 f   nafxcwd:oledocvw.obj
 0001:000e084d       ?OnApplyViewState@CDocObjectServer@@MAEXAAVCArchive@@@Z 004e184d f   nafxcwd:oledocvw.obj
 0001:000e085a       ?OnActivateView@CDocObjectServer@@MAEJXZ 004e185a f   nafxcwd:oledocvw.obj
 0001:000e10ac       ?AddRef@XOleDocumentView@CDocObjectServer@@UAGKXZ 004e20ac f   nafxcwd:oledocvw.obj
 0001:000e10ca       ?Release@XOleDocumentView@CDocObjectServer@@UAGKXZ 004e20ca f   nafxcwd:oledocvw.obj
 0001:000e10e8       ?QueryInterface@XOleDocumentView@CDocObjectServer@@UAGJABU_GUID@@PAPAX@Z 004e20e8 f   nafxcwd:oledocvw.obj
 0001:000e110e       ?SetInPlaceSite@XOleDocumentView@CDocObjectServer@@UAGJPAUIOleInPlaceSite@@@Z 004e210e f   nafxcwd:oledocvw.obj
 0001:000e11a0       ?GetInPlaceSite@XOleDocumentView@CDocObjectServer@@UAGJPAPAUIOleInPlaceSite@@@Z 004e21a0 f   nafxcwd:oledocvw.obj
 0001:000e1214       ?GetDocument@XOleDocumentView@CDocObjectServer@@UAGJPAPAUIUnknown@@@Z 004e2214 f   nafxcwd:oledocvw.obj
 0001:000e12a2       ?OnSetItemRects@CDocObjectServer@@IAEXPAUtagRECT@@0@Z 004e22a2 f   nafxcwd:oledocvw.obj
 0001:000e12cb       ?SetRect@XOleDocumentView@CDocObjectServer@@UAGJPAUtagRECT@@@Z 004e22cb f   nafxcwd:oledocvw.obj
 0001:000e13a6       ?GetRect@XOleDocumentView@CDocObjectServer@@UAGJPAUtagRECT@@@Z 004e23a6 f   nafxcwd:oledocvw.obj
 0001:000e1403       ?SetRectComplex@XOleDocumentView@CDocObjectServer@@UAGJPAUtagRECT@@000@Z 004e2403 f   nafxcwd:oledocvw.obj
 0001:000e142e       ?Show@XOleDocumentView@CDocObjectServer@@UAGJH@Z 004e242e f   nafxcwd:oledocvw.obj
 0001:000e1495       ?UIActivate@XOleDocumentView@CDocObjectServer@@UAGJH@Z 004e2495 f   nafxcwd:oledocvw.obj
 0001:000e14fc       ?Open@XOleDocumentView@CDocObjectServer@@UAGJXZ 004e24fc f   nafxcwd:oledocvw.obj
 0001:000e1549       ?CloseView@XOleDocumentView@CDocObjectServer@@UAGJK@Z 004e2549 f   nafxcwd:oledocvw.obj
 0001:000e1593       ?SaveViewState@XOleDocumentView@CDocObjectServer@@UAGJPAUIStream@@@Z 004e2593 f   nafxcwd:oledocvw.obj
 0001:000e172e       ?ApplyViewState@XOleDocumentView@CDocObjectServer@@UAGJPAUIStream@@@Z 004e272e f   nafxcwd:oledocvw.obj
 0001:000e18c9       ?Clone@XOleDocumentView@CDocObjectServer@@UAGJPAUIOleInPlaceSite@@PAPAUIOleDocumentView@@@Z 004e28c9 f   nafxcwd:oledocvw.obj
 0001:000e1900       ?CreateObject@COleDocIPFrameWnd@@SGPAVCObject@@XZ 004e2900 f   nafxcwd:oledocip.obj
 0001:000e196e       ?GetRuntimeClass@COleDocIPFrameWnd@@UBEPAUCRuntimeClass@@XZ 004e296e f   nafxcwd:oledocip.obj
 0001:000e197e       ?GetMessageMap@COleDocIPFrameWnd@@MBEPBUAFX_MSGMAP@@XZ 004e297e f   nafxcwd:oledocip.obj
 0001:000e198e       ??0COleDocIPFrameWnd@@QAE@XZ 004e298e f   nafxcwd:oledocip.obj
 0001:000e19ba       ??1COleDocIPFrameWnd@@UAE@XZ 004e29ba f   nafxcwd:oledocip.obj
 0001:000e19d6       ?OnRequestPositionChange@COleDocIPFrameWnd@@MAEXPBUtagRECT@@@Z 004e29d6 f   nafxcwd:oledocip.obj
 0001:000e1a4e       ?RecalcLayout@COleDocIPFrameWnd@@MAEXH@Z 004e2a4e f   nafxcwd:oledocip.obj
 0001:000e1ca8       ?BuildSharedMenu@COleDocIPFrameWnd@@MAEHXZ 004e2ca8 f   nafxcwd:oledocip.obj
 0001:000e1eb0       ?DestroySharedMenu@COleDocIPFrameWnd@@MAEXXZ 004e2eb0 f   nafxcwd:oledocip.obj
 0001:000e2030       ?AssertValid@COleDocIPFrameWnd@@UBEXXZ 004e3030 f   nafxcwd:oledocip.obj
 0001:000e2043       ?Dump@COleDocIPFrameWnd@@UBEXAAVCDumpContext@@@Z 004e3043 f   nafxcwd:oledocip.obj
 0001:000e2060       ??_ECOleDocIPFrameWnd@@UAEPAXI@Z 004e3060 f i nafxcwd:oledocip.obj
 0001:000e2060       ??_GCOleDocIPFrameWnd@@UAEPAXI@Z 004e3060 f i nafxcwd:oledocip.obj
 0001:000e2090       ??_9@$BBAI@AE              004e3090 f i nafxcwd:oleipfrm.obj
 0001:000e20a0       ?_JumpToContinuation@@YGXPAXPAUEHRegistrationNode@@@Z 004e30a0 f   libcmtd:trnsctrl.obj
 0001:000e20e0       ?_CallMemberFunction0@@YGXPAX0@Z 004e30e0 f   libcmtd:trnsctrl.obj
 0001:000e20f0       ?_CallMemberFunction1@@YGXPAX00@Z 004e30f0 f   libcmtd:trnsctrl.obj
 0001:000e2100       ?_CallMemberFunction2@@YGXPAX00H@Z 004e3100 f   libcmtd:trnsctrl.obj
 0001:000e2110       ?_UnwindNestedFrames@@YGXPAUEHRegistrationNode@@PAUEHExceptionRecord@@@Z 004e3110 f   libcmtd:trnsctrl.obj
 0001:000e2170       ___CxxFrameHandler         004e3170 f   libcmtd:trnsctrl.obj
 0001:000e21b0       ___CxxLongjmpUnwind@4      004e31b0 f   libcmtd:trnsctrl.obj
 0001:000e21e0       ?_CallCatchBlock2@@YAPAXPAUEHRegistrationNode@@PBU_s_FuncInfo@@PAXHK@Z 004e31e0 f   libcmtd:trnsctrl.obj
 0001:000e2290       ?_CallSETranslator@@YAHPAUEHExceptionRecord@@PAUEHRegistrationNode@@PAX2PBU_s_FuncInfo@@H1@Z 004e3290 f   libcmtd:trnsctrl.obj
 0001:000e23f0       ?_GetRangeOfTrysToCheck@@YAPBU_s_TryBlockMapEntry@@PBU_s_FuncInfo@@HHPAI1@Z 004e33f0 f   libcmtd:trnsctrl.obj
 0001:000e2480       __chkesp                   004e3480 f   libcmtd:chkesp.obj
 0001:000e24b8       __global_unwind2           004e34b8 f   libcmtd:exsup.obj
 0001:000e24fa       __local_unwind2            004e34fa f   libcmtd:exsup.obj
 0001:000e2552       __NLG_Return2              004e3552 f   libcmtd:exsup.obj
 0001:000e2562       __abnormal_termination     004e3562 f   libcmtd:exsup.obj
 0001:000e2585       __NLG_Notify1              004e3585 f   libcmtd:exsup.obj
 0001:000e258e       __NLG_Notify               004e358e f   libcmtd:exsup.obj
 0001:000e25a1       __NLG_Dispatch             004e35a1 f   libcmtd:exsup.obj
 0001:000e25b0       _fclose                    004e35b0 f   libcmtd:fclose.obj
 0001:000e2640       __fclose_lk                004e3640 f   libcmtd:fclose.obj
 0001:000e2700       _fprintf                   004e3700 f   libcmtd:fprintf.obj
 0001:000e27d0       __cinit                    004e37d0 f   libcmtd:crt0dat.obj
 0001:000e2810       _exit                      004e3810 f   libcmtd:crt0dat.obj
 0001:000e2830       __exit                     004e3830 f   libcmtd:crt0dat.obj
 0001:000e2850       __cexit                    004e3850 f   libcmtd:crt0dat.obj
 0001:000e2870       __c_exit                   004e3870 f   libcmtd:crt0dat.obj
 0001:000e2980       __lockexit                 004e3980 f   libcmtd:crt0dat.obj
 0001:000e2990       __unlockexit               004e3990 f   libcmtd:crt0dat.obj
 0001:000e29d0       _sprintf                   004e39d0 f   libcmtd:sprintf.obj
 0001:000e2ad0       __fsopen                   004e3ad0 f   libcmtd:fopen.obj
 0001:000e2bd0       _fopen                     004e3bd0 f   libcmtd:fopen.obj
 0001:000e2bf0       _strcpy                    004e3bf0 f   libcmtd:strcat.obj
 0001:000e2c00       _strcat                    004e3c00 f   libcmtd:strcat.obj
 0001:000e2ce0       __onexit                   004e3ce0 f   libcmtd:onexit.obj
 0001:000e2da0       _atexit                    004e3da0 f   libcmtd:onexit.obj
 0001:000e2dc0       ___onexitinit              004e3dc0 f   libcmtd:onexit.obj
 0001:000e2e10       __fpmath                   004e3e10 f   libcmtd:fpinit.obj
 0001:000e2e40       __fpclear                  004e3e40 f   libcmtd:fpinit.obj
 0001:000e2e50       __cfltcvt_init             004e3e50 f   libcmtd:fpinit.obj
 0001:000e2ea0       ___setfflag                004e3ea0 f   libcmtd:fpinit.obj
 0001:000e2ec0       _memcpy                    004e3ec0 f   libcmtd:memcpy.obj
 0001:000e3200       _strlen                    004e4200 f   libcmtd:strlen.obj
 0001:000e3280       _memmove                   004e4280 f   libcmtd:memmove.obj
 0001:000e35c0       ??0exception@@QAE@XZ       004e45c0 f   libcmtd:stdexcpt.obj
 0001:000e35f0       ??_Gexception@@UAEPAXI@Z   004e45f0 f i libcmtd:stdexcpt.obj
 0001:000e35f0       ??_Eexception@@UAEPAXI@Z   004e45f0 f i libcmtd:stdexcpt.obj
 0001:000e3620       ??0exception@@QAE@ABQBD@Z  004e4620 f   libcmtd:stdexcpt.obj
 0001:000e3690       ??0exception@@QAE@ABV0@@Z  004e4690 f   libcmtd:stdexcpt.obj
 0001:000e3720       ??4exception@@QAEAAV0@ABV0@@Z 004e4720 f   libcmtd:stdexcpt.obj
 0001:000e3750       ??1exception@@UAE@XZ       004e4750 f   libcmtd:stdexcpt.obj
 0001:000e3790       ?what@exception@@UBEPBDXZ  004e4790 f   libcmtd:stdexcpt.obj
 0001:000e37c0       ??1type_info@@UAE@XZ       004e47c0 f   libcmtd:typinfo.obj
 0001:000e3800       ??_Etype_info@@UAEPAXI@Z   004e4800 f i libcmtd:typinfo.obj
 0001:000e3800       ??_Gtype_info@@UAEPAXI@Z   004e4800 f i libcmtd:typinfo.obj
 0001:000e3830       ??8type_info@@QBEHABV0@@Z  004e4830 f   libcmtd:typinfo.obj
 0001:000e3860       ??9type_info@@QBEHABV0@@Z  004e4860 f   libcmtd:typinfo.obj
 0001:000e3890       ?before@type_info@@QBEHABV1@@Z 004e4890 f   libcmtd:typinfo.obj
 0001:000e38c0       ?raw_name@type_info@@QBEPBDXZ 004e48c0 f   libcmtd:typinfo.obj
 0001:000e38e0       ??0type_info@@AAE@ABV0@@Z  004e48e0 f   libcmtd:typinfo.obj
 0001:000e3900       ??4type_info@@AAEAAV0@ABV0@@Z 004e4900 f   libcmtd:typinfo.obj
 0001:000e3910       __CxxThrowException@8      004e4910 f   libcmtd:throw.obj
 0001:000e3960       _memset                    004e4960 f   libcmtd:memset.obj
 0001:000e39c0       _memchr                    004e49c0 f   libcmtd:memchr.obj
 0001:000e3a70       _localeconv                004e4a70 f   libcmtd:lconv.obj
 0001:000e3a80       _strcspn                   004e4a80 f   libcmtd:strcspn.obj
 0001:000e3ac0       __CItan                    004e4ac0 f   libcmtd:tan.obj
 0001:000e3ad4       _tan                       004e4ad4 f   libcmtd:tan.obj
 0001:000e3b80       __CIatan                   004e4b80 f   libcmtd:atan.obj
 0001:000e3b94       _atan                      004e4b94 f   libcmtd:atan.obj
 0001:000e3c20       __CIpow                    004e4c20 f   libcmtd:pow.obj
 0001:000e3c39       _pow                       004e4c39 f   libcmtd:pow.obj
 0001:000e3e40       _fabs                      004e4e40 f   libcmtd:fabs.obj
 0001:000e3f40       __CIsin                    004e4f40 f   libcmtd:sin.obj
 0001:000e3f54       _sin                       004e4f54 f   libcmtd:sin.obj
 0001:000e3ff0       __CIcos                    004e4ff0 f   libcmtd:cos.obj
 0001:000e4004       _cos                       004e5004 f   libcmtd:cos.obj
 0001:000e40a0       _fscanf                    004e50a0 f   libcmtd:fscanf.obj
 0001:000e4140       __alloca_probe             004e5140 f   libcmtd:chkstk.obj
 0001:000e4140       __chkstk                   004e5140 f   libcmtd:chkstk.obj
 0001:000e4170       __ftol                     004e5170 f   libcmtd:ftol.obj
 0001:000e41a0       __CIlog                    004e51a0 f   libcmtd:log.obj
 0001:000e41b4       _log                       004e51b4 f   libcmtd:log.obj
 0001:000e4270       ??_M@YGXPAXIHP6EX0@Z@Z     004e5270 f   libcmtd:ehvecdtr.obj
 0001:000e4320       ?__ArrayUnwind@@YGXPAXIHP6EX0@Z@Z 004e5320 f   libcmtd:ehvecdtr.obj
 0001:000e43d0       ??_L@YGXPAXIHP6EX0@Z1@Z    004e53d0 f   libcmtd:ehvecctr.obj
 0001:000e4470       _fgets                     004e5470 f   libcmtd:fgets.obj
 0001:000e45b0       _strcmp                    004e55b0 f   libcmtd:strcmp.obj
 0001:000e4640       _srand                     004e5640 f   libcmtd:rand.obj
 0001:000e4650       _rand                      004e5650 f   libcmtd:rand.obj
 0001:000e4690       _time                      004e5690 f   libcmtd:time.obj
 0001:000e4820       _exp                       004e5820 f   libcmtd:87ctran.obj
 0001:000e482a       __CIexp                    004e582a f   libcmtd:87ctran.obj
 0001:000e4840       _malloc                    004e5840 f   libcmtd:dbgheap.obj
 0001:000e4860       __malloc_dbg               004e5860 f   libcmtd:dbgheap.obj
 0001:000e4890       __nh_malloc                004e5890 f   libcmtd:dbgheap.obj
 0001:000e48b0       __nh_malloc_dbg            004e58b0 f   libcmtd:dbgheap.obj
 0001:000e4910       __heap_alloc               004e5910 f   libcmtd:dbgheap.obj
 0001:000e4930       __heap_alloc_dbg           004e5930 f   libcmtd:dbgheap.obj
 0001:000e4c50       _calloc                    004e5c50 f   libcmtd:dbgheap.obj
 0001:000e4c70       __calloc_dbg               004e5c70 f   libcmtd:dbgheap.obj
 0001:000e4cd0       _realloc                   004e5cd0 f   libcmtd:dbgheap.obj
 0001:000e4cf0       __realloc_dbg              004e5cf0 f   libcmtd:dbgheap.obj
 0001:000e5250       __expand                   004e6250 f   libcmtd:dbgheap.obj
 0001:000e5270       __expand_dbg               004e6270 f   libcmtd:dbgheap.obj
 0001:000e52b0       _free                      004e62b0 f   libcmtd:dbgheap.obj
 0001:000e52d0       __free_lk                  004e62d0 f   libcmtd:dbgheap.obj
 0001:000e52f0       __free_dbg                 004e62f0 f   libcmtd:dbgheap.obj
 0001:000e5320       __free_dbg_lk              004e6320 f   libcmtd:dbgheap.obj
 0001:000e5710       __msize                    004e6710 f   libcmtd:dbgheap.obj
 0001:000e5730       __msize_dbg                004e6730 f   libcmtd:dbgheap.obj
 0001:000e5890       __CrtSetBreakAlloc         004e6890 f   libcmtd:dbgheap.obj
 0001:000e58b0       __CrtSetDbgBlockType       004e68b0 f   libcmtd:dbgheap.obj
 0001:000e5950       __CrtSetAllocHook          004e6950 f   libcmtd:dbgheap.obj
 0001:000e5a00       __CrtCheckMemory           004e6a00 f   libcmtd:dbgheap.obj
 0001:000e5d70       __CrtSetDbgFlag            004e6d70 f   libcmtd:dbgheap.obj
 0001:000e5da0       __CrtDoForAllClientObjects 004e6da0 f   libcmtd:dbgheap.obj
 0001:000e5e10       __CrtIsValidPointer        004e6e10 f   libcmtd:dbgheap.obj
 0001:000e5e60       __CrtIsValidHeapPointer    004e6e60 f   libcmtd:dbgheap.obj
 0001:000e5ef0       __CrtIsMemoryBlock         004e6ef0 f   libcmtd:dbgheap.obj
 0001:000e5fe0       __CrtSetDumpClient         004e6fe0 f   libcmtd:dbgheap.obj
 0001:000e6000       __CrtMemCheckpoint         004e7000 f   libcmtd:dbgheap.obj
 0001:000e6170       __CrtMemDifference         004e7170 f   libcmtd:dbgheap.obj
 0001:000e62a0       __CrtMemDumpAllObjectsSince 004e72a0 f   libcmtd:dbgheap.obj
 0001:000e6680       __CrtDumpMemoryLeaks       004e7680 f   libcmtd:dbgheap.obj
 0001:000e6700       __CrtMemDumpStatistics     004e7700 f   libcmtd:dbgheap.obj
 0001:000e67d0       _fwrite                    004e77d0 f   libcmtd:fwrite.obj
 0001:000e6810       __fwrite_lk                004e7810 f   libcmtd:fwrite.obj
 0001:000e6a30       _fread                     004e7a30 f   libcmtd:fread.obj
 0001:000e6a70       __fread_lk                 004e7a70 f   libcmtd:fread.obj
 0001:000e6c40       _fseek                     004e7c40 f   libcmtd:fseek.obj
 0001:000e6cb0       __fseek_lk                 004e7cb0 f   libcmtd:fseek.obj
 0001:000e6de0       __filelength               004e7de0 f   libcmtd:flength.obj
 0001:000e6ea0       _abs                       004e7ea0 f   libcmtd:abs.obj
 0001:000e6ed0       _printf                    004e7ed0 f   libcmtd:printf.obj
 0001:000e6f70       _atof                      004e7f70 f   libcmtd:atof.obj
 0001:000e6ff0       _fputc                     004e7ff0 f   libcmtd:fputc.obj
 0001:000e70b0       _putc                      004e80b0 f   libcmtd:fputc.obj
 0001:000e70d0       _ungetc                    004e80d0 f   libcmtd:ungetc.obj
 0001:000e7140       __ungetc_lk                004e8140 f   libcmtd:ungetc.obj
 0001:000e7280       _fgetc                     004e8280 f   libcmtd:fgetc.obj
 0001:000e7330       _getc                      004e8330 f   libcmtd:fgetc.obj
 0001:000e7350       _fgetpos                   004e8350 f   libcmtd:fgetpos.obj
 0001:000e7390       _fsetpos                   004e8390 f   libcmtd:fsetpos.obj
 0001:000e73b0       _setvbuf                   004e83b0 f   libcmtd:setvbuf.obj
 0001:000e7520       _fflush                    004e8520 f   libcmtd:fflush.obj
 0001:000e7570       __fflush_lk                004e8570 f   libcmtd:fflush.obj
 0001:000e75c0       __flush                    004e85c0 f   libcmtd:fflush.obj
 0001:000e7680       __flushall                 004e8680 f   libcmtd:fflush.obj
 0001:000e77d0       __purecall                 004e87d0 f   libcmtd:purevirt.obj
 0001:000e77e0       _WinMainCRTStartup         004e87e0 f   libcmtd:wincrt0.obj
 0001:000e7950       __amsg_exit                004e8950 f   libcmtd:wincrt0.obj
 0001:000e79b0       _memcmp                    004e89b0 f   libcmtd:memcmp.obj
 0001:000e7a60       __mbscmp                   004e8a60 f   libcmtd:mbscmp.obj
 0001:000e7bd0       __mbsicmp                  004e8bd0 f   libcmtd:mbsicmp.obj
 0001:000e7e70       __mbscoll                  004e8e70 f   libcmtd:mbscoll.obj
 0001:000e7eb0       __mbsicoll                 004e8eb0 f   libcmtd:mbsicoll.obj
 0001:000e7ef0       _strtol                    004e8ef0 f   libcmtd:strtol.obj
 0001:000e8250       _strtoul                   004e9250 f   libcmtd:strtol.obj
 0001:000e8270       _wcslen                    004e9270 f   libcmtd:wcslen.obj
 0001:000e82a0       __mbschr                   004e92a0 f   libcmtd:mbschr.obj
 0001:000e8390       __mbspbrk                  004e9390 f   libcmtd:mbspbrk.obj
 0001:000e84d0       __mbsupr                   004e94d0 f   libcmtd:mbsupr.obj
 0001:000e85d0       __mbslwr                   004e95d0 f   libcmtd:mbslwr.obj
 0001:000e86d0       __mbsrev                   004e96d0 f   libcmtd:mbsrev.obj
 0001:000e87c0       __mbsinc                   004e97c0 f   libcmtd:mbsinc.obj
 0001:000e87f0       __mbsstr                   004e97f0 f   libcmtd:mbsstr.obj
 0001:000e88d0       __mbsspn                   004e98d0 f   libcmtd:mbsspn.obj
 0001:000e8a00       __mbscspn                  004e9a00 f   libcmtd:mbscspn.obj
 0001:000e8b30       __mbsrchr                  004e9b30 f   libcmtd:mbsrchr.obj
 0001:000e8c00       _vsprintf                  004e9c00 f   libcmtd:vsprintf.obj
 0001:000e8d00       __ismbcdigit               004e9d00 f   libcmtd:ismbdgt.obj
 0001:000e8de0       _atol                      004e9de0 f   libcmtd:atox.obj
 0001:000e8ee0       _atoi                      004e9ee0 f   libcmtd:atox.obj
 0001:000e8f00       __atoi64                   004e9f00 f   libcmtd:atox.obj
 0001:000e9030       __mbsnbcmp                 004ea030 f   libcmtd:mbsnbcmp.obj
 0001:000e9220       __mbclen                   004ea220 f   libcmtd:mbclen.obj
 0001:000e9250       __ismbcspace               004ea250 f   libcmtd:ismbspc.obj
 0001:000e9330       __strdup                   004ea330 f   libcmtd:strdup.obj
 0001:000e9380       __beginthreadex            004ea380 f   libcmtd:threadex.obj
 0001:000e9510       __endthreadex              004ea510 f   libcmtd:threadex.obj
 0001:000e9560       __CrtDbgBreak              004ea560 f   libcmtd:dbgrpt.obj
 0001:000e9570       __CrtSetReportMode         004ea570 f   libcmtd:dbgrpt.obj
 0001:000e95d0       __CrtSetReportFile         004ea5d0 f   libcmtd:dbgrpt.obj
 0001:000e9650       __CrtSetReportHook         004ea650 f   libcmtd:dbgrpt.obj
 0001:000e9670       __CrtDbgReport             004ea670 f   libcmtd:dbgrpt.obj
 0001:000e9d10       __vsnprintf                004ead10 f   libcmtd:vsnprint.obj
 0001:000e9e10       _strtod                    004eae10 f   libcmtd:strtod.obj
 0001:000e9f60       __itoa                     004eaf60 f   libcmtd:xtoa.obj
 0001:000ea080       __ltoa                     004eb080 f   libcmtd:xtoa.obj
 0001:000ea0c0       __ultoa                    004eb0c0 f   libcmtd:xtoa.obj
 0001:000ea0e0       __i64toa                   004eb0e0 f   libcmtd:xtoa.obj
 0001:000ea230       __ui64toa                  004eb230 f   libcmtd:xtoa.obj
 0001:000ea258       __except_handler3          004eb258 f   libcmtd:exsup3.obj
 0001:000ea315       __seh_longjmp_unwind@4     004eb315 f   libcmtd:exsup3.obj
 0001:000ea330       __dosmaperr                004eb330 f   libcmtd:dosmap.obj
 0001:000ea3d0       __errno                    004eb3d0 f   libcmtd:dosmap.obj
 0001:000ea3e0       ___doserrno                004eb3e0 f   libcmtd:dosmap.obj
 0001:000ea3f0       _mktime                    004eb3f0 f   libcmtd:mktime.obj
 0001:000ea410       __mkgmtime                 004eb410 f   libcmtd:mktime.obj
 0001:000ea740       _gmtime                    004eb740 f   libcmtd:gmtime.obj
 0001:000ea940       _localtime                 004eb940 f   libcmtd:localtim.obj
 0001:000eaba0       _ctime                     004ebba0 f   libcmtd:ctime.obj
 0001:000eabd0       __setmbcp                  004ebbd0 f   libcmtd:mbctype.obj
 0001:000eb390       __getmbcp                  004ec390 f   libcmtd:mbctype.obj
 0001:000eb3b0       ___initmbctable            004ec3b0 f   libcmtd:mbctype.obj
 0001:000eb3e0       __Getdays                  004ec3e0 f   libcmtd:strftime.obj
 0001:000eb510       __Getmonths                004ec510 f   libcmtd:strftime.obj
 0001:000eb640       __Gettnames                004ec640 f   libcmtd:strftime.obj
 0001:000eb9b0       _strftime                  004ec9b0 f   libcmtd:strftime.obj
 0001:000eb9d0       __Strftime                 004ec9d0 f   libcmtd:strftime.obj
 0001:000ec850       __mbsdec                   004ed850 f   libcmtd:mbsdec.obj
 0001:000ec900       _wcscat                    004ed900 f   libcmtd:wcscat.obj
 0001:000ec960       _wcscpy                    004ed960 f   libcmtd:wcscat.obj
 0001:000ec9a0       _wcsncpy                   004ed9a0 f   libcmtd:wcsncpy.obj
 0001:000eca20       _swprintf                  004eda20 f   libcmtd:swprintf.obj
 0001:000ecb70       _labs                      004edb70 f   libcmtd:labs.obj
 0001:000ecba0       _floor                     004edba0 f   libcmtd:floor.obj
 0001:000ecce0       _ceil                      004edce0 f   libcmtd:ceil.obj
 0001:000ece20       _modf                      004ede20 f   libcmtd:modf.obj
 0001:000ecfb0       __gcvt                     004edfb0 f   libcmtd:gcvt.obj
 0001:000ed0f0       ___InternalCxxFrameHandler 004ee0f0 f   libcmtd:frame.obj
 0001:000ed660       ___FrameUnwindToState      004ee660 f   libcmtd:frame.obj
 0001:000edc70       ?_DestructExceptionObject@@YAXPAUEHExceptionRecord@@E@Z 004eec70 f   libcmtd:frame.obj
 0001:000edd50       __CallSettingFrame@12      004eed50 f   libcmtd:lowhelpr.obj
 0001:000edd77       __NLG_Return               004eed77 f   libcmtd:lowhelpr.obj
 0001:000edda0       __mtinit                   004eeda0 f   libcmtd:tidtable.obj
 0001:000ede30       __mtterm                   004eee30 f   libcmtd:tidtable.obj
 0001:000ede60       __initptd                  004eee60 f   libcmtd:tidtable.obj
 0001:000ede80       __getptd                   004eee80 f   libcmtd:tidtable.obj
 0001:000edf20       __freeptd                  004eef20 f   libcmtd:tidtable.obj
 0001:000ee030       ___threadid                004ef030 f   libcmtd:tidtable.obj
 0001:000ee040       ___threadhandle            004ef040 f   libcmtd:tidtable.obj
 0001:000ee050       ?terminate@@YAXXZ          004ef050 f   libcmtd:hooks.obj
 0001:000ee0e0       ?unexpected@@YAXXZ         004ef0e0 f   libcmtd:hooks.obj
 0001:000ee100       ?_inconsistency@@YAXXZ     004ef100 f   libcmtd:hooks.obj
 0001:000ee190       ___initstdio               004ef190 f   libcmtd:_file.obj
 0001:000ee2c0       ___endstdio                004ef2c0 f   libcmtd:_file.obj
 0001:000ee2e0       __lock_file                004ef2e0 f   libcmtd:_file.obj
 0001:000ee320       __lock_file2               004ef320 f   libcmtd:_file.obj
 0001:000ee350       __unlock_file              004ef350 f   libcmtd:_file.obj
 0001:000ee390       __unlock_file2             004ef390 f   libcmtd:_file.obj
 0001:000ee3c0       __close                    004ef3c0 f   libcmtd:close.obj
 0001:000ee440       __close_lk                 004ef440 f   libcmtd:close.obj
 0001:000ee4f0       __freebuf                  004ef4f0 f   libcmtd:_freebuf.obj
 0001:000ee590       __stbuf                    004ef590 f   libcmtd:_sftbuf.obj
 0001:000ee6f0       __ftbuf                    004ef6f0 f   libcmtd:_sftbuf.obj
 0001:000ee790       __output                   004ef790 f   libcmtd:output.obj
 0001:000ef630       __mtinitlocks              004f0630 f   libcmtd:mlock.obj
 0001:000ef670       __mtdeletelocks            004f0670 f   libcmtd:mlock.obj
 0001:000ef710       __lock                     004f0710 f   libcmtd:mlock.obj
 0001:000ef7b0       __unlock                   004f07b0 f   libcmtd:mlock.obj
 0001:000ef7d0       __lockerr_exit             004f07d0 f   libcmtd:mlock.obj
 0001:000ef7f0       __flsbuf                   004f07f0 f   libcmtd:_flsbuf.obj
 0001:000efa70       __openfile                 004f0a70 f   libcmtd:_open.obj
 0001:000efe00       __getstream                004f0e00 f   libcmtd:stream.obj
 0001:000eff80       __setdefaultprecision      004f0f80 f   libcmtd:fp8.obj
 0001:000effa0       __ms_p5_test_fdiv          004f0fa0 f   libcmtd:testfdiv.obj
 0001:000f0000       __ms_p5_mp_test_fdiv       004f1000 f   libcmtd:testfdiv.obj
 0001:000f0050       __forcdecpt                004f1050 f   libcmtd:cvt.obj
 0001:000f0100       __cropzeros                004f1100 f   libcmtd:cvt.obj
 0001:000f01e0       __positive                 004f11e0 f   libcmtd:cvt.obj
 0001:000f0210       __fassign                  004f1210 f   libcmtd:cvt.obj
 0001:000f0260       __cftoe                    004f1260 f   libcmtd:cvt.obj
 0001:000f0450       __cftof                    004f1450 f   libcmtd:cvt.obj
 0001:000f0600       __cftog                    004f1600 f   libcmtd:cvt.obj
 0001:000f06f0       __cfltcvt                  004f16f0 f   libcmtd:cvt.obj
 0001:000f0780       __free_base                004f1780 f   libcmtd:free.obj
 0001:000f07f0       ?__CxxUnhandledExceptionFilter@@YGJPAU_EXCEPTION_POINTERS@@@Z 004f17f0 f   libcmtd:unhandld.obj
 0001:000f0850       ?__CxxSetUnhandledExceptionFilter@@YAXXZ 004f1850 f   libcmtd:unhandld.obj
 0001:000f0870       ?__CxxRestoreUnhandledExceptionFilter@@YAXXZ 004f1870 f   libcmtd:unhandld.obj
 0001:000f0890       __trandisp1                004f1890 f   libcmtd:87disp.obj
 0001:000f08f7       __trandisp2                004f18f7 f   libcmtd:87disp.obj
 0001:000f0983       __rttospopde               004f1983 f   libcmtd:87disp.obj
 0001:000f0988       __rttospop                 004f1988 f   libcmtd:87disp.obj
 0001:000f098a       __rtnospop                 004f198a f   libcmtd:87disp.obj
 0001:000f098c       __rttosnpop                004f198c f   libcmtd:87disp.obj
 0001:000f098d       __rtnospopde               004f198d f   libcmtd:87disp.obj
 0001:000f0994       __rtzeropop                004f1994 f   libcmtd:87disp.obj
 0001:000f0996       __rtzeronpop               004f1996 f   libcmtd:87disp.obj
 0001:000f099b       __rtonepop                 004f199b f   libcmtd:87disp.obj
 0001:000f099d       __rtonenpop                004f199d f   libcmtd:87disp.obj
 0001:000f09a2       __tosnan1                  004f19a2 f   libcmtd:87disp.obj
 0001:000f09cd       __nosnan2                  004f19cd f   libcmtd:87disp.obj
 0001:000f09cf       __tosnan2                  004f19cf f   libcmtd:87disp.obj
 0001:000f09f7       __nan2                     004f19f7 f   libcmtd:87disp.obj
 0001:000f0a36       __rtindfpop                004f1a36 f   libcmtd:87disp.obj
 0001:000f0a38       __rtindfnpop               004f1a38 f   libcmtd:87disp.obj
 0001:000f0a49       __rttosnpopde              004f1a49 f   libcmtd:87disp.obj
 0001:000f0a53       __rtchsifneg               004f1a53 f   libcmtd:87disp.obj
 0001:000f0a60       __twoToTOS                 004f1a60 f   libcmtd:common.obj
 0001:000f0a75       __load_CW                  004f1a75 f   libcmtd:common.obj
 0001:000f0a8c       __convertTOStoQNaN         004f1a8c f   libcmtd:common.obj
 0001:000f0aa5       __fload_withFB             004f1aa5 f   libcmtd:common.obj
 0001:000f0ae8       __checkTOS_withFB          004f1ae8 f   libcmtd:common.obj
 0001:000f0afe       __fast_exit                004f1afe f   libcmtd:common.obj
 0001:000f0b0b       __math_exit                004f1b0b f   libcmtd:common.obj
 0001:000f0b35       __check_overflow_exit      004f1b35 f   libcmtd:common.obj
 0001:000f0b49       __check_range_exit         004f1b49 f   libcmtd:common.obj
 0001:000f0bf0       __startTwoArgErrorHandling 004f1bf0 f   libcmtd:genexcep.obj
 0001:000f0c07       __startOneArgErrorHandling 004f1c07 f   libcmtd:genexcep.obj
 0001:000f0c61       __fFEXP                    004f1c61 f   libcmtd:87tran.obj
 0001:000f0cc8       __rtinfpopse               004f1cc8 f   libcmtd:87tran.obj
 0001:000f0cca       __rtinfnpopse              004f1cca f   libcmtd:87tran.obj
 0001:000f0cda       __fFLN                     004f1cda f   libcmtd:87tran.obj
 0001:000f0d8f       __rtinfpop                 004f1d8f f   libcmtd:87tran.obj
 0001:000f0d91       __rtinfnpop                004f1d91 f   libcmtd:87tran.obj
 0001:000f0dae       __ffexpm1                  004f1dae f   libcmtd:87tran.obj
 0001:000f0e60       __powhlp                   004f1e60 f   libcmtd:powhlp.obj
 0001:000f10d0       __d_inttype                004f20d0 f   libcmtd:powhlp.obj
 0001:000f1150       __handle_qnan1             004f2150 f   libcmtd:fpexcept.obj
 0001:000f11b0       __handle_qnan2             004f21b0 f   libcmtd:fpexcept.obj
 0001:000f1220       __except1                  004f2220 f   libcmtd:fpexcept.obj
 0001:000f12e0       __except2                  004f22e0 f   libcmtd:fpexcept.obj
 0001:000f13b0       __raise_exc                004f23b0 f   libcmtd:fpexcept.obj
 0001:000f1880       __handle_exc               004f2880 f   libcmtd:fpexcept.obj
 0001:000f1c00       __umatherr                 004f2c00 f   libcmtd:fpexcept.obj
 0001:000f1ca0       __set_errno                004f2ca0 f   libcmtd:fpexcept.obj
 0001:000f1d20       __errcode                  004f2d20 f   libcmtd:fpexcept.obj
 0001:000f1da0       __set_exp                  004f2da0 f   libcmtd:util.obj
 0001:000f1de0       __get_exp                  004f2de0 f   libcmtd:util.obj
 0001:000f1e10       __add_exp                  004f2e10 f   libcmtd:util.obj
 0001:000f1e50       __set_bexp                 004f2e50 f   libcmtd:util.obj
 0001:000f1e90       __sptype                   004f2e90 f   libcmtd:util.obj
 0001:000f1f10       __decomp                   004f2f10 f   libcmtd:util.obj
 0001:000f2050       __statfp                   004f3050 f   libcmtd:fpctrl.obj
 0001:000f2070       __clrfp                    004f3070 f   libcmtd:fpctrl.obj
 0001:000f2090       __ctrlfp                   004f3090 f   libcmtd:fpctrl.obj
 0001:000f20d0       __set_statfp               004f30d0 f   libcmtd:fpctrl.obj
 0001:000f2150       __input                    004f3150 f   libcmtd:input.obj
 0001:000f3650       __filbuf                   004f4650 f   libcmtd:_filbuf.obj
 0001:000f3840       ___loctotime_t             004f4840 f   libcmtd:dtoxtime.obj
 0001:000f3930       __cintrindisp2             004f4930 f   libcmtd:87cdisp.obj
 0001:000f396e       __cintrindisp1             004f496e f   libcmtd:87cdisp.obj
 0001:000f39ab       __ctrandisp2               004f49ab f   libcmtd:87cdisp.obj
 0001:000f3b2b       __ctrandisp1               004f4b2b f   libcmtd:87cdisp.obj
 0001:000f3b5e       __fload                    004f4b5e f   libcmtd:87cdisp.obj
 0001:000f3ba0       ?_set_new_handler@@YAP6AHI@ZP6AHI@Z@Z 004f4ba0 f   libcmtd:handler.obj
 0001:000f3bd0       ?_query_new_handler@@YAP6AHI@ZXZ 004f4bd0 f   libcmtd:handler.obj
 0001:000f3be0       __callnewh                 004f4be0 f   libcmtd:handler.obj
 0001:000f3c10       __malloc_base              004f4c10 f   libcmtd:malloc.obj
 0001:000f3c30       __nh_malloc_base           004f4c30 f   libcmtd:malloc.obj
 0001:000f3c90       __heap_alloc_base          004f4c90 f   libcmtd:malloc.obj
 0001:000f3d00       __CrtDefaultAllocHook      004f4d00 f   libcmtd:dbghook.obj
 0001:000f3d10       __expand_base              004f4d10 f   libcmtd:expand.obj
 0001:000f3dc0       __realloc_base             004f4dc0 f   libcmtd:realloc.obj
 0001:000f3fb0       __heapchk                  004f4fb0 f   libcmtd:heapchk.obj
 0001:000f4030       __heapset                  004f5030 f   libcmtd:heapchk.obj
 0001:000f4040       __heap_init                004f5040 f   libcmtd:heapinit.obj
 0001:000f4090       __heap_term                004f5090 f   libcmtd:heapinit.obj
 0001:000f4130       __get_sbh_threshold        004f5130 f   libcmtd:sbheap.obj
 0001:000f4140       __set_sbh_threshold        004f5140 f   libcmtd:sbheap.obj
 0001:000f4160       ___sbh_heap_init           004f5160 f   libcmtd:sbheap.obj
 0001:000f41c0       ___sbh_find_block          004f51c0 f   libcmtd:sbheap.obj
 0001:000f4220       ___sbh_verify_block        004f5220 f   libcmtd:sbheap.obj
 0001:000f4280       ___sbh_free_block          004f5280 f   libcmtd:sbheap.obj
 0001:000f4850       ___sbh_alloc_block         004f5850 f   libcmtd:sbheap.obj
 0001:000f4d90       ___sbh_alloc_new_region    004f5d90 f   libcmtd:sbheap.obj
 0001:000f4ea0       ___sbh_alloc_new_group     004f5ea0 f   libcmtd:sbheap.obj
 0001:000f5090       ___sbh_resize_block        004f6090 f   libcmtd:sbheap.obj
 0001:000f5680       ___sbh_heapmin             004f6680 f   libcmtd:sbheap.obj
 0001:000f57b0       ___sbh_heap_check          004f67b0 f   libcmtd:sbheap.obj
 0001:000f5dd0       __isctype                  004f6dd0 f   libcmtd:isctype.obj
 0001:000f5e90       __write                    004f6e90 f   libcmtd:write.obj
 0001:000f5f20       __write_lk                 004f6f20 f   libcmtd:write.obj
 0001:000f61a0       __read                     004f71a0 f   libcmtd:read.obj
 0001:000f6230       __read_lk                  004f7230 f   libcmtd:read.obj
 0001:000f6680       __lseek                    004f7680 f   libcmtd:lseek.obj
 0001:000f6710       __lseek_lk                 004f7710 f   libcmtd:lseek.obj
 0001:000f67d0       _ftell                     004f77d0 f   libcmtd:ftell.obj
 0001:000f6840       __ftell_lk                 004f7840 f   libcmtd:ftell.obj
 0001:000f6ae0       __alloc_osfhnd             004f7ae0 f   libcmtd:osfinfo.obj
 0001:000f6cd0       __set_osfhnd               004f7cd0 f   libcmtd:osfinfo.obj
 0001:000f6d90       __free_osfhnd              004f7d90 f   libcmtd:osfinfo.obj
 0001:000f6e70       __get_osfhandle            004f7e70 f   libcmtd:osfinfo.obj
 0001:000f6ee0       __open_osfhandle           004f7ee0 f   libcmtd:osfinfo.obj
 0001:000f6ff0       __lock_fhandle             004f7ff0 f   libcmtd:osfinfo.obj
 0001:000f7080       __unlock_fhandle           004f8080 f   libcmtd:osfinfo.obj
 0001:000f70b0       __ioinit                   004f80b0 f   libcmtd:ioinit.obj
 0001:000f73e0       __ioterm                   004f83e0 f   libcmtd:ioinit.obj
 0001:000f7480       __fltin2                   004f8480 f   libcmtd:cfin.obj
 0001:000f7540       __getbuf                   004f8540 f   libcmtd:_getbuf.obj
 0001:000f7610       __ftelli64                 004f8610 f   libcmtd:ftelli64.obj
 0001:000f7680       __ftelli64_lk              004f8680 f   libcmtd:ftelli64.obj
 0001:000f7970       __fseeki64                 004f8970 f   libcmtd:fseeki64.obj
 0001:000f79e0       __fseeki64_lk              004f89e0 f   libcmtd:fseeki64.obj
 0001:000f7b30       __commit                   004f8b30 f   libcmtd:commit.obj
 0001:000f7c10       __XcptFilter               004f8c10 f   libcmtd:winxfltr.obj
 0001:000f7e30       __wincmdln                 004f8e30 f   libcmtd:wincmdln.obj
 0001:000f7ef0       __setenvp                  004f8ef0 f   libcmtd:stdenvp.obj
 0001:000f8040       __setargv                  004f9040 f   libcmtd:stdargv.obj
 0001:000f8550       ___crtGetEnvironmentStringsA 004f9550 f   libcmtd:a_env.obj
 0001:000f8770       __FF_MSGBANNER             004f9770 f   libcmtd:crt0msg.obj
 0001:000f87c0       __NMSG_WRITE               004f97c0 f   libcmtd:crt0msg.obj
 0001:000f8980       __GET_RTERRMSG             004f9980 f   libcmtd:crt0msg.obj
 0001:000f89d0       ___crtLCMapStringA         004f99d0 f   libcmtd:a_map.obj
 0001:000f8d30       __strcmpi                  004f9d30 f   libcmtd:stricmp.obj
 0001:000f8d30       __stricmp                  004f9d30 f   libcmtd:stricmp.obj
 0001:000f8e00       ___crtCompareStringA       004f9e00 f   libcmtd:a_cmp.obj
 0001:000f9250       __toupper                  004fa250 f   libcmtd:toupper.obj
 0001:000f9260       _toupper                   004fa260 f   libcmtd:toupper.obj
 0001:000f9300       __toupper_lk               004fa300 f   libcmtd:toupper.obj
 0001:000f9440       _strchr                    004fa440 f   libcmtd:strchr.obj
 0001:000f9446       ___from_strstr_to_strchr   004fa446 f   libcmtd:strchr.obj
 0001:000f9500       _strpbrk                   004fa500 f   libcmtd:strpbrk.obj
 0001:000f9540       __strrev                   004fa540 f   libcmtd:strrev.obj
 0001:000f9570       _strstr                    004fa570 f   libcmtd:strstr.obj
 0001:000f95f0       _strspn                    004fa5f0 f   libcmtd:strspn.obj
 0001:000f9630       _strrchr                   004fa630 f   libcmtd:strrchr.obj
 0001:000f9660       ___crtGetStringTypeA       004fa660 f   libcmtd:a_str.obj
 0001:000f9820       __allmul                   004fa820 f   libcmtd:llmul.obj
 0001:000f9860       _strncmp                   004fa860 f   libcmtd:strncmp.obj
 0001:000f98a0       __snprintf                 004fa8a0 f   libcmtd:snprintf.obj
 0001:000f99a0       _signal                    004fa9a0 f   libcmtd:winsig.obj
 0001:000f9c70       _raise                     004fac70 f   libcmtd:winsig.obj
 0001:000f9f10       ___fpecode                 004faf10 f   libcmtd:winsig.obj
 0001:000f9f20       ___pxcptinfoptrs           004faf20 f   libcmtd:winsig.obj
 0001:000f9f30       ___crtMessageBoxA          004faf30 f   libcmtd:crtmbox.obj
 0001:000f9ff0       _strncpy                   004faff0 f   libcmtd:strncpy.obj
 0001:000fa0f0       __aulldiv                  004fb0f0 f   libcmtd:ulldiv.obj
 0001:000fa160       __aullrem                  004fb160 f   libcmtd:ullrem.obj
 0001:000fa1e0       ___tzset                   004fb1e0 f   libcmtd:tzset.obj
 0001:000fa220       __tzset                    004fb220 f   libcmtd:tzset.obj
 0001:000fa5f0       __isindst                  004fb5f0 f   libcmtd:tzset.obj
 0001:000fab20       _asctime                   004fbb20 f   libcmtd:asctime.obj
 0001:000fad20       _setlocale                 004fbd20 f   libcmtd:setlocal.obj
 0001:000fb3b0       __expandlocale             004fc3b0 f   libcmtd:setlocal.obj
 0001:000fb540       ___init_dummy              004fc540 f   libcmtd:setlocal.obj
 0001:000fb550       __strcats                  004fc550 f   libcmtd:setlocal.obj
 0001:000fb5a0       ___lc_strtolc              004fc5a0 f   libcmtd:setlocal.obj
 0001:000fb700       ___lc_lctostr              004fc700 f   libcmtd:setlocal.obj
 0001:000fb770       __woutput                  004fc770 f   libcmtd:woutput.obj
 0001:000fc550       __frnd                     004fd550 f   libcmtd:frnd.obj
 0001:000fc570       __copysign                 004fd570 f   libcmtd:ieeemisc.obj
 0001:000fc5a0       __chgsign                  004fd5a0 f   libcmtd:ieeemisc.obj
 0001:000fc5d0       __scalb                    004fd5d0 f   libcmtd:ieeemisc.obj
 0001:000fc5f0       __logb                     004fd5f0 f   libcmtd:ieeemisc.obj
 0001:000fc720       __nextafter                004fd720 f   libcmtd:ieeemisc.obj
 0001:000fca60       __finite                   004fda60 f   libcmtd:ieeemisc.obj
 0001:000fca90       __isnan                    004fda90 f   libcmtd:ieeemisc.obj
 0001:000fcae0       __fpclass                  004fdae0 f   libcmtd:ieeemisc.obj
 0001:000fcbc0       __fltout2                  004fdbc0 f   libcmtd:cfout.obj
 0001:000fcc40       ___dtold                   004fdc40 f   libcmtd:cfout.obj
 0001:000fcdb0       ?_ValidateRead@@YAHPBXI@Z  004fddb0 f   libcmtd:validate.obj
 0001:000fcde0       ?_ValidateWrite@@YAHPAXI@Z 004fdde0 f   libcmtd:validate.obj
 0001:000fce10       ?_ValidateExecute@@YAHP6GHXZ@Z 004fde10 f   libcmtd:validate.obj
 0001:000fce40       _abort                     004fde40 f   libcmtd:abort.obj
 0001:000fce60       __fcloseall                004fde60 f   libcmtd:closeall.obj
 0001:000fcf40       __isatty                   004fdf40 f   libcmtd:isatty.obj
 0001:000fcf80       _wctomb                    004fdf80 f   libcmtd:wctomb.obj
 0001:000fd000       __wctomb_lk                004fe000 f   libcmtd:wctomb.obj
 0001:000fd0a0       __open                     004fe0a0 f   libcmtd:open.obj
 0001:000fd0e0       __sopen                    004fe0e0 f   libcmtd:open.obj
 0001:000fd640       __statusfp                 004fe640 f   libcmtd:ieee87.obj
 0001:000fd660       __clearfp                  004fe660 f   libcmtd:ieee87.obj
 0001:000fd680       __control87                004fe680 f   libcmtd:ieee87.obj
 0001:000fd6d0       __controlfp                004fe6d0 f   libcmtd:ieee87.obj
 0001:000fd6f0       __fpreset                  004fe6f0 f   libcmtd:ieee87.obj
 0001:000fdae0       __tolower                  004feae0 f   libcmtd:tolower.obj
 0001:000fdaf0       _tolower                   004feaf0 f   libcmtd:tolower.obj
 0001:000fdb90       __tolower_lk               004feb90 f   libcmtd:tolower.obj
 0001:000fdcc0       __ZeroTail                 004fecc0 f   libcmtd:intrncvt.obj
 0001:000fdd50       __IncMan                   004fed50 f   libcmtd:intrncvt.obj
 0001:000fde00       __RoundMan                 004fee00 f   libcmtd:intrncvt.obj
 0001:000fdee0       __CopyMan                  004feee0 f   libcmtd:intrncvt.obj
 0001:000fdf30       __FillZeroMan              004fef30 f   libcmtd:intrncvt.obj
 0001:000fdf60       __IsZeroMan                004fef60 f   libcmtd:intrncvt.obj
 0001:000fdfa0       __ShrMan                   004fefa0 f   libcmtd:intrncvt.obj
 0001:000fe090       __ld12cvt                  004ff090 f   libcmtd:intrncvt.obj
 0001:000fe2e0       __ld12tod                  004ff2e0 f   libcmtd:intrncvt.obj
 0001:000fe300       __ld12tof                  004ff300 f   libcmtd:intrncvt.obj
 0001:000fe320       __ld12told                 004ff320 f   libcmtd:intrncvt.obj
 0001:000fe3e0       __atodbl                   004ff3e0 f   libcmtd:intrncvt.obj
 0001:000fe420       __atoldbl                  004ff420 f   libcmtd:intrncvt.obj
 0001:000fe460       __atoflt                   004ff460 f   libcmtd:intrncvt.obj
 0001:000fe4a0       __fptostr                  004ff4a0 f   libcmtd:_fptostr.obj
 0001:000fe5a0       __fptrap                   004ff5a0 f   libcmtd:crt0fp.obj
 0001:000fe5b0       __87except                 004ff5b0 f   libcmtd:87except.obj
 0001:000fe730       _fdiv_main_routine         004ff730 f   libcmtd:adj_fdiv.obj
 0001:000fe847       __adj_fdiv_r               004ff847 f   libcmtd:adj_fdiv.obj
 0001:000fece6       __fdivp_sti_st             004ffce6 f   libcmtd:adj_fdiv.obj
 0001:000fecf9       __fdivrp_sti_st            004ffcf9 f   libcmtd:adj_fdiv.obj
 0001:000fed0c       __adj_fdiv_m32             004ffd0c f   libcmtd:adj_fdiv.obj
 0001:000fed58       __adj_fdiv_m64             004ffd58 f   libcmtd:adj_fdiv.obj
 0001:000feda4       __adj_fdiv_m16i            004ffda4 f   libcmtd:adj_fdiv.obj
 0001:000fedd8       __adj_fdiv_m32i            004ffdd8 f   libcmtd:adj_fdiv.obj
 0001:000fee0c       __adj_fdivr_m32            004ffe0c f   libcmtd:adj_fdiv.obj
 0001:000fee58       __adj_fdivr_m64            004ffe58 f   libcmtd:adj_fdiv.obj
 0001:000feea4       __adj_fdivr_m16i           004ffea4 f   libcmtd:adj_fdiv.obj
 0001:000feed8       __adj_fdivr_m32i           004ffed8 f   libcmtd:adj_fdiv.obj
 0001:000fef0c       __safe_fdiv                004fff0c f   libcmtd:adj_fdiv.obj
 0001:000fef21       __safe_fdivr               004fff21 f   libcmtd:adj_fdiv.obj
 0001:000fef36       __fprem_common             004fff36 f   libcmtd:adj_fdiv.obj
 0001:000ff13c       __adj_fprem                0050013c f   libcmtd:adj_fdiv.obj
 0001:000ff1ee       __fprem1_common            005001ee f   libcmtd:adj_fdiv.obj
 0001:000ff3f4       __adj_fprem1               005003f4 f   libcmtd:adj_fdiv.obj
 0001:000ff4a9       __safe_fprem               005004a9 f   libcmtd:adj_fdiv.obj
 0001:000ff4af       __safe_fprem1              005004af f   libcmtd:adj_fdiv.obj
 0001:000ff4b5       __adj_fpatan               005004b5 f   libcmtd:adj_fdiv.obj
 0001:000ff4b8       __adj_fptan                005004b8 f   libcmtd:adj_fdiv.obj
 0001:000ff4c0       __matherr                  005004c0 f   libcmtd:matherr.obj
 0001:000ff4d0       _mbtowc                    005004d0 f   libcmtd:mbtowc.obj
 0001:000ff550       __mbtowc_lk                00500550 f   libcmtd:mbtowc.obj
 0001:000ff6b0       _isalpha                   005006b0 f   libcmtd:_ctype.obj
 0001:000ff700       _isupper                   00500700 f   libcmtd:_ctype.obj
 0001:000ff740       _islower                   00500740 f   libcmtd:_ctype.obj
 0001:000ff780       _isdigit                   00500780 f   libcmtd:_ctype.obj
 0001:000ff7c0       _isxdigit                  005007c0 f   libcmtd:_ctype.obj
 0001:000ff810       _isspace                   00500810 f   libcmtd:_ctype.obj
 0001:000ff850       _ispunct                   00500850 f   libcmtd:_ctype.obj
 0001:000ff890       _isalnum                   00500890 f   libcmtd:_ctype.obj
 0001:000ff8e0       _isprint                   005008e0 f   libcmtd:_ctype.obj
 0001:000ff930       _isgraph                   00500930 f   libcmtd:_ctype.obj
 0001:000ff980       _iscntrl                   00500980 f   libcmtd:_ctype.obj
 0001:000ff9c0       ___isascii                 005009c0 f   libcmtd:_ctype.obj
 0001:000ff9d0       ___toascii                 005009d0 f   libcmtd:_ctype.obj
 0001:000ff9e0       ___iscsymf                 005009e0 f   libcmtd:_ctype.obj
 0001:000ffa40       ___iscsym                  00500a40 f   libcmtd:_ctype.obj
 0001:000ffaa0       __allshl                   00500aa0 f   libcmtd:llshl.obj
 0001:000ffac0       ___strgtold12              00500ac0 f   libcmtd:strgtold.obj
 0001:001005f0       ___STRINGTOLD              005015f0 f   libcmtd:strgtold.obj
 0001:00100640       __lseeki64                 00501640 f   libcmtd:lseeki64.obj
 0001:001006e0       __lseeki64_lk              005016e0 f   libcmtd:lseeki64.obj
 0001:001007a0       __ismbbkalnum              005017a0 f   libcmtd:ismbbyte.obj
 0001:001007c0       __ismbbkprint              005017c0 f   libcmtd:ismbbyte.obj
 0001:001007e0       __ismbbkpunct              005017e0 f   libcmtd:ismbbyte.obj
 0001:00100800       __ismbbalnum               00501800 f   libcmtd:ismbbyte.obj
 0001:00100820       __ismbbalpha               00501820 f   libcmtd:ismbbyte.obj
 0001:00100840       __ismbbgraph               00501840 f   libcmtd:ismbbyte.obj
 0001:00100860       __ismbbprint               00501860 f   libcmtd:ismbbyte.obj
 0001:00100880       __ismbbpunct               00501880 f   libcmtd:ismbbyte.obj
 0001:001008a0       __ismbblead                005018a0 f   libcmtd:ismbbyte.obj
 0001:001008c0       __ismbbtrail               005018c0 f   libcmtd:ismbbyte.obj
 0001:001008e0       __ismbbkana                005018e0 f   libcmtd:ismbbyte.obj
 0001:00100990       _getenv                    00501990 f   libcmtd:getenv.obj
 0001:001009c0       __getenv_lk                005019c0 f   libcmtd:getenv.obj
 0001:00100a90       ___init_time               00501a90 f   libcmtd:inittime.obj
 0001:00101410       ___init_numeric            00502410 f   libcmtd:initnum.obj
 0001:00101740       ___init_monetary           00502740 f   libcmtd:initmon.obj
 0001:00101ba0       ___init_ctype              00502ba0 f   libcmtd:initctyp.obj
 0001:00101f40       ___init_collate            00502f40 f   libcmtd:initcoll.obj
 0001:00101f50       ___get_qualified_locale    00502f50 f   libcmtd:getqloc.obj
 0001:00102cf0       _fputwc                    00503cf0 f   libcmtd:fputwc.obj
 0001:00102d70       __putwc_lk                 00503d70 f   libcmtd:fputwc.obj
 0001:00102fa0       _putwc                     00503fa0 f   libcmtd:fputwc.obj
 0001:00102fc0       _ldexp                     00503fc0 f   libcmtd:ldexp.obj
 0001:00103280       _$I10_OUTPUT               00504280 f   libcmtd:x10fout.obj
 0001:001037a0       __chsize                   005047a0 f   libcmtd:chsize.obj
 0001:00103820       __chsize_lk                00504820 f   libcmtd:chsize.obj
 0001:00103a50       ___addl                    00504a50 f   libcmtd:mantold.obj
 0001:00103a90       ___add_12                  00504a90 f   libcmtd:mantold.obj
 0001:00103b40       ___shl_12                  00504b40 f   libcmtd:mantold.obj
 0001:00103ba0       ___shr_12                  00504ba0 f   libcmtd:mantold.obj
 0001:00103c10       ___mtold12                 00504c10 f   libcmtd:mantold.obj
 0001:00103d50       ___ld12mul                 00504d50 f   libcmtd:tenpow.obj
 0001:00104190       ___multtenpow12            00505190 f   libcmtd:tenpow.obj
 0001:00104260       __mbsnbicoll               00505260 f   libcmtd:mbsnbico.obj
 0001:001042b0       ___wtomb_environ           005052b0 f   libcmtd:wtombenv.obj
 0001:00104360       ___getlocaleinfo           00505360 f   libcmtd:inithelp.obj
 0001:001045f0       ___crtGetStringTypeW       005055f0 f   libcmtd:w_str.obj
 0001:00104860       __strnicmp                 00505860 f   libcmtd:strnicmp.obj
 0001:00104970       __flswbuf                  00505970 f   libcmtd:_flswbuf.obj
 0001:00104c00       __setmode                  00505c00 f   libcmtd:setmode.obj
 0001:00104c80       __setmode_lk               00505c80 f   libcmtd:setmode.obj
 0001:00104d50       ___crtsetenv               00505d50 f   libcmtd:setenv.obj
 0001:001051a0       ___crtGetLocaleInfoW       005061a0 f   libcmtd:w_loc.obj
 0001:00105340       ___crtGetLocaleInfoA       00506340 f   libcmtd:a_loc.obj
 0001:001054e6       _GlobalUnlock@4            005064e6 f   kernel32:KERNEL32.dll
 0001:001054ec       _GlobalLock@4              005064ec f   kernel32:KERNEL32.dll
 0001:001054f2       _GlobalAlloc@8             005064f2 f   kernel32:KERNEL32.dll
 0001:001054f8       _FreeResource@4            005064f8 f   kernel32:KERNEL32.dll
 0001:001054fe       _LoadResource@8            005064fe f   kernel32:KERNEL32.dll
 0001:00105504       _FindResourceA@12          00506504 f   kernel32:KERNEL32.dll
 0001:0010550a       _LockResource@4            0050650a f   kernel32:KERNEL32.dll
 0001:00105510       _GlobalFree@4              00506510 f   kernel32:KERNEL32.dll
 0001:00105516       _GetLastError@0            00506516 f   kernel32:KERNEL32.dll
 0001:0010551c       _GetProcAddress@8          0050651c f   kernel32:KERNEL32.dll
 0001:00105522       _GetModuleHandleA@4        00506522 f   kernel32:KERNEL32.dll
 0001:00105528       _lstrcpyA@8                00506528 f   kernel32:KERNEL32.dll
 0001:0010552e       _GlobalDeleteAtom@4        0050652e f   kernel32:KERNEL32.dll
 0001:00105534       _GlobalFindAtomA@4         00506534 f   kernel32:KERNEL32.dll
 0001:0010553a       _GlobalAddAtomA@4          0050653a f   kernel32:KERNEL32.dll
 0001:00105540       _lstrcmpiA@8               00506540 f   kernel32:KERNEL32.dll
 0001:00105546       _GlobalGetAtomNameA@12     00506546 f   kernel32:KERNEL32.dll
 0001:0010554c       _GetCurrentThreadId@0      0050654c f   kernel32:KERNEL32.dll
 0001:00105552       _lstrcatA@8                00506552 f   kernel32:KERNEL32.dll
 0001:00105558       _lstrlenA@4                00506558 f   kernel32:KERNEL32.dll
 0001:0010555e       _GetVersion@0              0050655e f   kernel32:KERNEL32.dll
 0001:00105564       _FreeLibrary@4             00506564 f   kernel32:KERNEL32.dll
 0001:0010556a       _LoadLibraryA@4            0050656a f   kernel32:KERNEL32.dll
 0001:00105570       _SetThreadPriority@8       00506570 f   kernel32:KERNEL32.dll
 0001:00105576       _GetThreadPriority@4       00506576 f   kernel32:KERNEL32.dll
 0001:0010557c       _ResumeThread@4            0050657c f   kernel32:KERNEL32.dll
 0001:00105582       _SuspendThread@4           00506582 f   kernel32:KERNEL32.dll
 0001:00105588       _InterlockedIncrement@4    00506588 f   kernel32:KERNEL32.dll
 0001:0010558e       _InterlockedDecrement@4    0050658e f   kernel32:KERNEL32.dll
 0001:00105594       _WideCharToMultiByte@32    00506594 f   kernel32:KERNEL32.dll
 0001:0010559a       _MultiByteToWideChar@24    0050659a f   kernel32:KERNEL32.dll
 0001:001055a0       _GetModuleFileNameA@12     005065a0 f   kernel32:KERNEL32.dll
 0001:001055a6       _LocalFree@4               005065a6 f   kernel32:KERNEL32.dll
 0001:001055ac       _FormatMessageA@28         005065ac f   kernel32:KERNEL32.dll
 0001:001055b2       _lstrcpynA@12              005065b2 f   kernel32:KERNEL32.dll
 0001:001055b8       _lstrcmpA@8                005065b8 f   kernel32:KERNEL32.dll
 0001:001055be       _GetCurrentThread@0        005065be f   kernel32:KERNEL32.dll
 0001:001055c4       _CloseHandle@4             005065c4 f   kernel32:KERNEL32.dll
 0001:001055ca       _WaitForSingleObject@8     005065ca f   kernel32:KERNEL32.dll
 0001:001055d0       _SetEvent@4                005065d0 f   kernel32:KERNEL32.dll
 0001:001055d6       _CreateEventA@16           005065d6 f   kernel32:KERNEL32.dll
 0001:001055dc       _GetPrivateProfileIntA@16  005065dc f   kernel32:KERNEL32.dll
 0001:001055e2       _GetPrivateProfileStringA@24 005065e2 f   kernel32:KERNEL32.dll
 0001:001055e8       _WritePrivateProfileStringA@16 005065e8 f   kernel32:KERNEL32.dll
 0001:001055ee       _SetLastError@4            005065ee f   kernel32:KERNEL32.dll
 0001:001055f4       _MulDiv@12                 005065f4 f   kernel32:KERNEL32.dll
 0001:001055fa       _GetFileAttributesA@4      005065fa f   kernel32:KERNEL32.dll
 0001:00105600       _GetTempFileNameA@16       00506600 f   kernel32:KERNEL32.dll
 0001:00105606       _GetFullPathNameA@16       00506606 f   kernel32:KERNEL32.dll
 0001:0010560c       _SetFileTime@16            0050660c f   kernel32:KERNEL32.dll
 0001:00105612       _GetFileTime@16            00506612 f   kernel32:KERNEL32.dll
 0001:00105618       _GetDiskFreeSpaceA@20      00506618 f   kernel32:KERNEL32.dll
 0001:0010561e       _DuplicateHandle@28        0050661e f   kernel32:KERNEL32.dll
 0001:00105624       _GetCurrentProcess@0       00506624 f   kernel32:KERNEL32.dll
 0001:0010562a       _CreateFileA@28            0050662a f   kernel32:KERNEL32.dll
 0001:00105630       _ReadFile@20               00506630 f   kernel32:KERNEL32.dll
 0001:00105636       _WriteFile@20              00506636 f   kernel32:KERNEL32.dll
 0001:0010563c       _SetFilePointer@16         0050663c f   kernel32:KERNEL32.dll
 0001:00105642       _FlushFileBuffers@4        00506642 f   kernel32:KERNEL32.dll
 0001:00105648       _LockFile@20               00506648 f   kernel32:KERNEL32.dll
 0001:0010564e       _UnlockFile@20             0050664e f   kernel32:KERNEL32.dll
 0001:00105654       _SetEndOfFile@4            00506654 f   kernel32:KERNEL32.dll
 0001:0010565a       _MoveFileA@8               0050665a f   kernel32:KERNEL32.dll
 0001:00105660       _DeleteFileA@4             00506660 f   kernel32:KERNEL32.dll
 0001:00105666       _FindClose@4               00506666 f   kernel32:KERNEL32.dll
 0001:0010566c       _FindFirstFileA@8          0050666c f   kernel32:KERNEL32.dll
 0001:00105672       _GetVolumeInformationA@32  00506672 f   kernel32:KERNEL32.dll
 0001:00105678       _GetStringTypeExA@20       00506678 f   kernel32:KERNEL32.dll
 0001:0010567e       _GetThreadLocale@0         0050667e f   kernel32:KERNEL32.dll
 0001:00105684       _GetShortPathNameA@12      00506684 f   kernel32:KERNEL32.dll
 0001:0010568a       _GetFileSize@8             0050668a f   kernel32:KERNEL32.dll
 0001:00105690       _LocalFileTimeToFileTime@8 00506690 f   kernel32:KERNEL32.dll
 0001:00105696       _SystemTimeToFileTime@8    00506696 f   kernel32:KERNEL32.dll
 0001:0010569c       _SetFileAttributesA@8      0050669c f   kernel32:KERNEL32.dll
 0001:001056a2       _VirtualProtect@16         005066a2 f   kernel32:KERNEL32.dll
 0001:001056a8       _GlobalFlags@4             005066a8 f   kernel32:KERNEL32.dll
 0001:001056ae       _IsBadStringPtrW@8         005066ae f   kernel32:KERNEL32.dll
 0001:001056b4       _IsBadStringPtrA@8         005066b4 f   kernel32:KERNEL32.dll
 0001:001056ba       _IsBadWritePtr@8           005066ba f   kernel32:KERNEL32.dll
 0001:001056c0       _IsBadReadPtr@8            005066c0 f   kernel32:KERNEL32.dll
 0001:001056c6       _SizeofResource@8          005066c6 f   kernel32:KERNEL32.dll
 0001:001056cc       _GetProcessVersion@4       005066cc f   kernel32:KERNEL32.dll
 0001:001056d2       _GetCPInfo@8               005066d2 f   kernel32:KERNEL32.dll
 0001:001056d8       _GetOEMCP@0                005066d8 f   kernel32:KERNEL32.dll
 0001:001056de       _InitializeCriticalSection@4 005066de f   kernel32:KERNEL32.dll
 0001:001056e4       _DeleteCriticalSection@4   005066e4 f   kernel32:KERNEL32.dll
 0001:001056ea       _LeaveCriticalSection@4    005066ea f   kernel32:KERNEL32.dll
 0001:001056f0       _EnterCriticalSection@4    005066f0 f   kernel32:KERNEL32.dll
 0001:001056f6       _LocalAlloc@8              005066f6 f   kernel32:KERNEL32.dll
 0001:001056fc       _TlsAlloc@0                005066fc f   kernel32:KERNEL32.dll
 0001:00105702       _GlobalHandle@4            00506702 f   kernel32:KERNEL32.dll
 0001:00105708       _TlsFree@4                 00506708 f   kernel32:KERNEL32.dll
 0001:0010570e       _GlobalReAlloc@12          0050670e f   kernel32:KERNEL32.dll
 0001:00105714       _TlsSetValue@8             00506714 f   kernel32:KERNEL32.dll
 0001:0010571a       _LocalReAlloc@12           0050671a f   kernel32:KERNEL32.dll
 0001:00105720       _TlsGetValue@4             00506720 f   kernel32:KERNEL32.dll
 0001:00105726       _FileTimeToSystemTime@8    00506726 f   kernel32:KERNEL32.dll
 0001:0010572c       _FileTimeToLocalFileTime@8 0050672c f   kernel32:KERNEL32.dll
 0001:00105732       _GetProfileIntA@12         00506732 f   kernel32:KERNEL32.dll
 0001:00105738       _GetCurrentDirectoryA@8    00506738 f   kernel32:KERNEL32.dll
 0001:0010573e       _OutputDebugStringA@4      0050673e f   kernel32:KERNEL32.dll
 0001:00105744       _SetErrorMode@4            00506744 f   kernel32:KERNEL32.dll
 0001:0010574a       _GlobalSize@4              0050674a f   kernel32:KERNEL32.dll
 0001:00105750       _CopyFileA@12              00506750 f   kernel32:KERNEL32.dll
 0001:00105756       _lstrlenW@4                00506756 f   kernel32:KERNEL32.dll
 0001:0010575c       _GetTickCount@0            0050675c f   kernel32:KERNEL32.dll
 0001:00105762       _lstrcpyW@8                00506762 f   kernel32:KERNEL32.dll
 0001:00105768       _RtlUnwind@16              00506768 f   kernel32:KERNEL32.dll
 0001:0010576e       _ExitProcess@4             0050676e f   kernel32:KERNEL32.dll
 0001:00105774       _TerminateProcess@8        00506774 f   kernel32:KERNEL32.dll
 0001:0010577a       _RaiseException@16         0050677a f   kernel32:KERNEL32.dll
 0001:00105780       _GetTimeZoneInformation@4  00506780 f   kernel32:KERNEL32.dll
 0001:00105786       _GetSystemTime@4           00506786 f   kernel32:KERNEL32.dll
 0001:0010578c       _GetLocalTime@4            0050678c f   kernel32:KERNEL32.dll
 0001:00105792       _HeapValidate@12           00506792 f   kernel32:KERNEL32.dll
 0001:00105798       _GetStartupInfoA@4         00506798 f   kernel32:KERNEL32.dll
 0001:0010579e       _GetCommandLineA@0         0050679e f   kernel32:KERNEL32.dll
 0001:001057a4       _CreateThread@24           005067a4 f   kernel32:KERNEL32.dll
 0001:001057aa       _ExitThread@4              005067aa f   kernel32:KERNEL32.dll
 0001:001057b0       _DebugBreak@0              005067b0 f   kernel32:KERNEL32.dll
 0001:001057b6       _GetStdHandle@4            005067b6 f   kernel32:KERNEL32.dll
 0001:001057bc       _GetACP@0                  005067bc f   kernel32:KERNEL32.dll
 0001:001057c2       _FatalAppExitA@8           005067c2 f   kernel32:KERNEL32.dll
 0001:001057c8       _HeapFree@12               005067c8 f   kernel32:KERNEL32.dll
 0001:001057ce       _SetUnhandledExceptionFilter@4 005067ce f   kernel32:KERNEL32.dll
 0001:001057d4       _HeapAlloc@12              005067d4 f   kernel32:KERNEL32.dll
 0001:001057da       _HeapReAlloc@16            005067da f   kernel32:KERNEL32.dll
 0001:001057e0       _HeapDestroy@4             005067e0 f   kernel32:KERNEL32.dll
 0001:001057e6       _HeapCreate@12             005067e6 f   kernel32:KERNEL32.dll
 0001:001057ec       _VirtualFree@12            005067ec f   kernel32:KERNEL32.dll
 0001:001057f2       _VirtualAlloc@16           005067f2 f   kernel32:KERNEL32.dll
 0001:001057f8       _SetStdHandle@8            005067f8 f   kernel32:KERNEL32.dll
 0001:001057fe       _GetFileType@4             005067fe f   kernel32:KERNEL32.dll
 0001:00105804       _SetHandleCount@4          00506804 f   kernel32:KERNEL32.dll
 0001:0010580a       _UnhandledExceptionFilter@4 0050680a f   kernel32:KERNEL32.dll
 0001:00105810       _FreeEnvironmentStringsA@4 00506810 f   kernel32:KERNEL32.dll
 0001:00105816       _FreeEnvironmentStringsW@4 00506816 f   kernel32:KERNEL32.dll
 0001:0010581c       _GetEnvironmentStrings@0   0050681c f   kernel32:KERNEL32.dll
 0001:00105822       _GetEnvironmentStringsW@0  00506822 f   kernel32:KERNEL32.dll
 0001:00105828       _LCMapStringA@24           00506828 f   kernel32:KERNEL32.dll
 0001:0010582e       _LCMapStringW@24           0050682e f   kernel32:KERNEL32.dll
 0001:00105834       _CompareStringA@24         00506834 f   kernel32:KERNEL32.dll
 0001:0010583a       _CompareStringW@24         0050683a f   kernel32:KERNEL32.dll
 0001:00105840       _GetStringTypeA@20         00506840 f   kernel32:KERNEL32.dll
 0001:00105846       _GetStringTypeW@16         00506846 f   kernel32:KERNEL32.dll
 0001:0010584c       _SetConsoleCtrlHandler@8   0050684c f   kernel32:KERNEL32.dll
 0001:00105852       _Sleep@4                   00506852 f   kernel32:KERNEL32.dll
 0001:00105858       _IsBadCodePtr@4            00506858 f   kernel32:KERNEL32.dll
 0001:0010585e       _IsValidLocale@8           0050685e f   kernel32:KERNEL32.dll
 0001:00105864       _IsValidCodePage@4         00506864 f   kernel32:KERNEL32.dll
 0001:0010586a       _GetLocaleInfoA@16         0050686a f   kernel32:KERNEL32.dll
 0001:00105870       _EnumSystemLocalesA@8      00506870 f   kernel32:KERNEL32.dll
 0001:00105876       _GetUserDefaultLCID@0      00506876 f   kernel32:KERNEL32.dll
 0001:0010587c       _GetVersionExA@4           0050687c f   kernel32:KERNEL32.dll
 0001:00105882       _SetEnvironmentVariableA@8 00506882 f   kernel32:KERNEL32.dll
 0001:00105888       _GetLocaleInfoW@16         00506888 f   kernel32:KERNEL32.dll
 0001:0010588e       _MessageBeep@4             0050688e f   user32:USER32.dll
 0001:00105894       _MessageBoxA@16            00506894 f   user32:USER32.dll
 0001:0010589a       _DispatchMessageA@4        0050689a f   user32:USER32.dll
 0001:001058a0       _TranslateMessage@4        005068a0 f   user32:USER32.dll
 0001:001058a6       _PeekMessageA@20           005068a6 f   user32:USER32.dll
 0001:001058ac       _SetCursor@4               005068ac f   user32:USER32.dll
 0001:001058b2       _IsWindowEnabled@4         005068b2 f   user32:USER32.dll
 0001:001058b8       _GetDlgItem@8              005068b8 f   user32:USER32.dll
 0001:001058be       _GetWindowLongA@8          005068be f   user32:USER32.dll
 0001:001058c4       _DestroyWindow@4           005068c4 f   user32:USER32.dll
 0001:001058ca       _CreateDialogIndirectParamA@20 005068ca f   user32:USER32.dll
 0001:001058d0       _GetSystemMetrics@4        005068d0 f   user32:USER32.dll
 0001:001058d6       _EnableWindow@8            005068d6 f   user32:USER32.dll
 0001:001058dc       _IsWindow@4                005068dc f   user32:USER32.dll
 0001:001058e2       _SetActiveWindow@4         005068e2 f   user32:USER32.dll
 0001:001058e8       _GetActiveWindow@0         005068e8 f   user32:USER32.dll
 0001:001058ee       _EndDialog@8               005068ee f   user32:USER32.dll
 0001:001058f4       _GetWindowRect@8           005068f4 f   user32:USER32.dll
 0001:001058fa       _GetWindowPlacement@8      005068fa f   user32:USER32.dll
 0001:00105900       _IsIconic@4                00506900 f   user32:USER32.dll
 0001:00105906       _SystemParametersInfoA@16  00506906 f   user32:USER32.dll
 0001:0010590c       _IntersectRect@12          0050690c f   user32:USER32.dll
 0001:00105912       _OffsetRect@12             00506912 f   user32:USER32.dll
 0001:00105918       _RegisterWindowMessageA@4  00506918 f   user32:USER32.dll
 0001:0010591e       _SetWindowPos@28           0050691e f   user32:USER32.dll
 0001:00105924       _SetWindowLongA@12         00506924 f   user32:USER32.dll
 0001:0010592a       _GetMessagePos@0           0050692a f   user32:USER32.dll
 0001:00105930       _GetMessageTime@0          00506930 f   user32:USER32.dll
 0001:00105936       _RemovePropA@8             00506936 f   user32:USER32.dll
 0001:0010593c       _CallWindowProcA@20        0050693c f   user32:USER32.dll
 0001:00105942       _GetPropA@8                00506942 f   user32:USER32.dll
 0001:00105948       _UnhookWindowsHookEx@4     00506948 f   user32:USER32.dll
 0001:0010594e       _SetPropA@12               0050694e f   user32:USER32.dll
 0001:00105954       _GetClassLongA@8           00506954 f   user32:USER32.dll
 0001:0010595a       _CallNextHookEx@16         0050695a f   user32:USER32.dll
 0001:00105960       _SetWindowsHookExA@16      00506960 f   user32:USER32.dll
 0001:00105966       _CreateWindowExA@48        00506966 f   user32:USER32.dll
 0001:0010596c       _GetDlgCtrlID@4            0050696c f   user32:USER32.dll
 0001:00105972       _GetClassNameA@12          00506972 f   user32:USER32.dll
 0001:00105978       _DefWindowProcA@16         00506978 f   user32:USER32.dll
 0001:0010597e       _SendMessageA@16           0050697e f   user32:USER32.dll
 0001:00105984       _GetKeyState@4             00506984 f   user32:USER32.dll
 0001:0010598a       _GetWindowTextA@12         0050698a f   user32:USER32.dll
 0001:00105990       _GetWindowTextLengthA@4    00506990 f   user32:USER32.dll
 0001:00105996       _SetWindowPlacement@8      00506996 f   user32:USER32.dll
 0001:0010599c       _TrackPopupMenu@28         0050699c f   user32:USER32.dll
 0001:001059a2       _RegisterClassA@4          005069a2 f   user32:USER32.dll
 0001:001059a8       _GetClassInfoA@12          005069a8 f   user32:USER32.dll
 0001:001059ae       _wsprintfA                 005069ae f   user32:USER32.dll
 0001:001059b4       _WinHelpA@16               005069b4 f   user32:USER32.dll
 0001:001059ba       _GetCapture@0              005069ba f   user32:USER32.dll
 0001:001059c0       _GetWindow@8               005069c0 f   user32:USER32.dll
 0001:001059c6       _GetParent@4               005069c6 f   user32:USER32.dll
 0001:001059cc       _IsChild@8                 005069cc f   user32:USER32.dll
 0001:001059d2       _GetTopWindow@4            005069d2 f   user32:USER32.dll
 0001:001059d8       _SetScrollPos@16           005069d8 f   user32:USER32.dll
 0001:001059de       _GetScrollPos@8            005069de f   user32:USER32.dll
 0001:001059e4       _SetScrollRange@20         005069e4 f   user32:USER32.dll
 0001:001059ea       _GetScrollRange@16         005069ea f   user32:USER32.dll
 0001:001059f0       _SetScrollInfo@16          005069f0 f   user32:USER32.dll
 0001:001059f6       _GetScrollInfo@12          005069f6 f   user32:USER32.dll
 0001:001059fc       _ScrollWindow@20           005069fc f   user32:USER32.dll
 0001:00105a02       _EndDeferWindowPos@4       00506a02 f   user32:USER32.dll
 0001:00105a08       _CopyRect@8                00506a08 f   user32:USER32.dll
 0001:00105a0e       _BeginDeferWindowPos@4     00506a0e f   user32:USER32.dll
 0001:00105a14       _DeferWindowPos@32         00506a14 f   user32:USER32.dll
 0001:00105a1a       _EqualRect@8               00506a1a f   user32:USER32.dll
 0001:00105a20       _ScreenToClient@8          00506a20 f   user32:USER32.dll
 0001:00105a26       _AdjustWindowRectEx@16     00506a26 f   user32:USER32.dll
 0001:00105a2c       _SetFocus@4                00506a2c f   user32:USER32.dll
 0001:00105a32       _GetFocus@0                00506a32 f   user32:USER32.dll
 0001:00105a38       _GetSysColor@4             00506a38 f   user32:USER32.dll
 0001:00105a3e       _MapWindowPoints@16        00506a3e f   user32:USER32.dll
 0001:00105a44       _GetClientRect@8           00506a44 f   user32:USER32.dll
 0001:00105a4a       _SendDlgItemMessageA@20    00506a4a f   user32:USER32.dll
 0001:00105a50       _LoadIconA@8               00506a50 f   user32:USER32.dll
 0001:00105a56       _CheckDlgButton@12         00506a56 f   user32:USER32.dll
 0001:00105a5c       _CheckRadioButton@16       00506a5c f   user32:USER32.dll
 0001:00105a62       _GetDlgItemInt@16          00506a62 f   user32:USER32.dll
 0001:00105a68       _GetDlgItemTextA@16        00506a68 f   user32:USER32.dll
 0001:00105a6e       _SetDlgItemInt@16          00506a6e f   user32:USER32.dll
 0001:00105a74       _SetDlgItemTextA@12        00506a74 f   user32:USER32.dll
 0001:00105a7a       _IsDlgButtonChecked@8      00506a7a f   user32:USER32.dll
 0001:00105a80       _ScrollWindowEx@32         00506a80 f   user32:USER32.dll
 0001:00105a86       _IsDialogMessageA@8        00506a86 f   user32:USER32.dll
 0001:00105a8c       _SetWindowTextA@8          00506a8c f   user32:USER32.dll
 0001:00105a92       _MoveWindow@24             00506a92 f   user32:USER32.dll
 0001:00105a98       _ShowWindow@8              00506a98 f   user32:USER32.dll
 0001:00105a9e       _PostMessageA@16           00506a9e f   user32:USER32.dll
 0001:00105aa4       _GetMenu@4                 00506aa4 f   user32:USER32.dll
 0001:00105aaa       _SetMenu@8                 00506aaa f   user32:USER32.dll
 0001:00105ab0       _DrawMenuBar@4             00506ab0 f   user32:USER32.dll
 0001:00105ab6       _GetSystemMenu@8           00506ab6 f   user32:USER32.dll
 0001:00105abc       _HiliteMenuItem@16         00506abc f   user32:USER32.dll
 0001:00105ac2       _IsZoomed@4                00506ac2 f   user32:USER32.dll
 0001:00105ac8       _ArrangeIconicWindows@4    00506ac8 f   user32:USER32.dll
 0001:00105ace       _SetWindowRgn@12           00506ace f   user32:USER32.dll
 0001:00105ad4       _GetWindowRgn@8            00506ad4 f   user32:USER32.dll
 0001:00105ada       _BringWindowToTop@4        00506ada f   user32:USER32.dll
 0001:00105ae0       _ClientToScreen@8          00506ae0 f   user32:USER32.dll
 0001:00105ae6       _BeginPaint@8              00506ae6 f   user32:USER32.dll
 0001:00105aec       _EndPaint@8                00506aec f   user32:USER32.dll
 0001:00105af2       _GetDC@4                   00506af2 f   user32:USER32.dll
 0001:00105af8       _GetWindowDC@4             00506af8 f   user32:USER32.dll
 0001:00105afe       _ReleaseDC@8               00506afe f   user32:USER32.dll
 0001:00105b04       _UpdateWindow@4            00506b04 f   user32:USER32.dll
 0001:00105b0a       _GetUpdateRect@12          00506b0a f   user32:USER32.dll
 0001:00105b10       _GetUpdateRgn@12           00506b10 f   user32:USER32.dll
 0001:00105b16       _InvalidateRect@12         00506b16 f   user32:USER32.dll
 0001:00105b1c       _InvalidateRgn@12          00506b1c f   user32:USER32.dll
 0001:00105b22       _ValidateRect@8            00506b22 f   user32:USER32.dll
 0001:00105b28       _ValidateRgn@8             00506b28 f   user32:USER32.dll
 0001:00105b2e       _IsWindowVisible@4         00506b2e f   user32:USER32.dll
 0001:00105b34       _ShowOwnedPopups@8         00506b34 f   user32:USER32.dll
 0001:00105b3a       _GetDCEx@12                00506b3a f   user32:USER32.dll
 0001:00105b40       _LockWindowUpdate@4        00506b40 f   user32:USER32.dll
 0001:00105b46       _RedrawWindow@16           00506b46 f   user32:USER32.dll
 0001:00105b4c       _EnableScrollBar@12        00506b4c f   user32:USER32.dll
 0001:00105b52       _SetTimer@16               00506b52 f   user32:USER32.dll
 0001:00105b58       _KillTimer@8               00506b58 f   user32:USER32.dll
 0001:00105b5e       _SetCapture@4              00506b5e f   user32:USER32.dll
 0001:00105b64       _GetDesktopWindow@0        00506b64 f   user32:USER32.dll
 0001:00105b6a       _DlgDirListA@20            00506b6a f   user32:USER32.dll
 0001:00105b70       _DlgDirListComboBoxA@20    00506b70 f   user32:USER32.dll
 0001:00105b76       _DlgDirSelectExA@16        00506b76 f   user32:USER32.dll
 0001:00105b7c       _DlgDirSelectComboBoxExA@16 00506b7c f   user32:USER32.dll
 0001:00105b82       _GetNextDlgGroupItem@12    00506b82 f   user32:USER32.dll
 0001:00105b88       _GetNextDlgTabItem@12      00506b88 f   user32:USER32.dll
 0001:00105b8e       _ShowScrollBar@12          00506b8e f   user32:USER32.dll
 0001:00105b94       _ChildWindowFromPoint@12   00506b94 f   user32:USER32.dll
 0001:00105b9a       _ChildWindowFromPointEx@16 00506b9a f   user32:USER32.dll
 0001:00105ba0       _FindWindowA@8             00506ba0 f   user32:USER32.dll
 0001:00105ba6       _GetLastActivePopup@4      00506ba6 f   user32:USER32.dll
 0001:00105bac       _SetParent@8               00506bac f   user32:USER32.dll
 0001:00105bb2       _WindowFromPoint@8         00506bb2 f   user32:USER32.dll
 0001:00105bb8       _FlashWindow@8             00506bb8 f   user32:USER32.dll
 0001:00105bbe       _ChangeClipboardChain@8    00506bbe f   user32:USER32.dll
 0001:00105bc4       _SetClipboardViewer@4      00506bc4 f   user32:USER32.dll
 0001:00105bca       _OpenClipboard@4           00506bca f   user32:USER32.dll
 0001:00105bd0       _GetOpenClipboardWindow@0  00506bd0 f   user32:USER32.dll
 0001:00105bd6       _GetClipboardOwner@0       00506bd6 f   user32:USER32.dll
 0001:00105bdc       _GetClipboardViewer@0      00506bdc f   user32:USER32.dll
 0001:00105be2       _CreateCaret@16            00506be2 f   user32:USER32.dll
 0001:00105be8       _GetCaretPos@4             00506be8 f   user32:USER32.dll
 0001:00105bee       _SetCaretPos@8             00506bee f   user32:USER32.dll
 0001:00105bf4       _HideCaret@4               00506bf4 f   user32:USER32.dll
 0001:00105bfa       _ShowCaret@4               00506bfa f   user32:USER32.dll
 0001:00105c00       _SetForegroundWindow@4     00506c00 f   user32:USER32.dll
 0001:00105c06       _GetForegroundWindow@0     00506c06 f   user32:USER32.dll
 0001:00105c0c       _SendNotifyMessageA@16     00506c0c f   user32:USER32.dll
 0001:00105c12       _SetWindowContextHelpId@8  00506c12 f   user32:USER32.dll
 0001:00105c18       _GetWindowContextHelpId@4  00506c18 f   user32:USER32.dll
 0001:00105c1e       _MapDialogRect@8           00506c1e f   user32:USER32.dll
 0001:00105c24       _PostThreadMessageA@16     00506c24 f   user32:USER32.dll
 0001:00105c2a       _LoadCursorA@8             00506c2a f   user32:USER32.dll
 0001:00105c30       _CloseWindow@4             00506c30 f   user32:USER32.dll
 0001:00105c36       _OpenIcon@4                00506c36 f   user32:USER32.dll
 0001:00105c3c       _SetMenuItemBitmaps@20     00506c3c f   user32:USER32.dll
 0001:00105c42       _LoadBitmapA@8             00506c42 f   user32:USER32.dll
 0001:00105c48       _GetMenuCheckMarkDimensions@0 00506c48 f   user32:USER32.dll
 0001:00105c4e       _TabbedTextOutA@32         00506c4e f   user32:USER32.dll
 0001:00105c54       _wvsprintfA@12             00506c54 f   user32:USER32.dll
 0001:00105c5a       _CharToOemA@8              00506c5a f   user32:USER32.dll
 0001:00105c60       _OemToCharA@8              00506c60 f   user32:USER32.dll
 0001:00105c66       _PostQuitMessage@4         00506c66 f   user32:USER32.dll
 0001:00105c6c       _GetCursorPos@4            00506c6c f   user32:USER32.dll
 0001:00105c72       _GetMessageA@16            00506c72 f   user32:USER32.dll
 0001:00105c78       _IsRectEmpty@4             00506c78 f   user32:USER32.dll
 0001:00105c7e       _PtInRect@12               00506c7e f   user32:USER32.dll
 0001:00105c84       _SetRect@20                00506c84 f   user32:USER32.dll
 0001:00105c8a       _SetRectEmpty@4            00506c8a f   user32:USER32.dll
 0001:00105c90       _InflateRect@12            00506c90 f   user32:USER32.dll
 0001:00105c96       _UnionRect@12              00506c96 f   user32:USER32.dll
 0001:00105c9c       _SubtractRect@12           00506c9c f   user32:USER32.dll
 0001:00105ca2       _GetSysColorBrush@4        00506ca2 f   user32:USER32.dll
 0001:00105ca8       _WindowFromDC@4            00506ca8 f   user32:USER32.dll
 0001:00105cae       _ExcludeUpdateRgn@8        00506cae f   user32:USER32.dll
 0001:00105cb4       _FillRect@12               00506cb4 f   user32:USER32.dll
 0001:00105cba       _FrameRect@12              00506cba f   user32:USER32.dll
 0001:00105cc0       _InvertRect@8              00506cc0 f   user32:USER32.dll
 0001:00105cc6       _DrawIcon@16               00506cc6 f   user32:USER32.dll
 0001:00105ccc       _DrawStateA@40             00506ccc f   user32:USER32.dll
 0001:00105cd2       _DrawEdge@16               00506cd2 f   user32:USER32.dll
 0001:00105cd8       _DrawFrameControl@16       00506cd8 f   user32:USER32.dll
 0001:00105cde       _DrawFocusRect@8           00506cde f   user32:USER32.dll
 0001:00105ce4       _DrawTextA@20              00506ce4 f   user32:USER32.dll
 0001:00105cea       _GetTabbedTextExtentA@20   00506cea f   user32:USER32.dll
 0001:00105cf0       _GrayStringA@36            00506cf0 f   user32:USER32.dll
 0001:00105cf6       _ScrollDC@28               00506cf6 f   user32:USER32.dll
 0001:00105cfc       _CreateMenu@0              00506cfc f   user32:USER32.dll
 0001:00105d02       _CreatePopupMenu@0         00506d02 f   user32:USER32.dll
 0001:00105d08       _IsMenu@4                  00506d08 f   user32:USER32.dll
 0001:00105d0e       _DeleteMenu@12             00506d0e f   user32:USER32.dll
 0001:00105d14       _AppendMenuA@16            00506d14 f   user32:USER32.dll
 0001:00105d1a       _CheckMenuItem@12          00506d1a f   user32:USER32.dll
 0001:00105d20       _EnableMenuItem@12         00506d20 f   user32:USER32.dll
 0001:00105d26       _SetMenuDefaultItem@12     00506d26 f   user32:USER32.dll
 0001:00105d2c       _GetMenuDefaultItem@12     00506d2c f   user32:USER32.dll
 0001:00105d32       _GetMenuItemCount@4        00506d32 f   user32:USER32.dll
 0001:00105d38       _GetMenuItemID@8           00506d38 f   user32:USER32.dll
 0001:00105d3e       _GetMenuState@12           00506d3e f   user32:USER32.dll
 0001:00105d44       _GetMenuStringA@20         00506d44 f   user32:USER32.dll
 0001:00105d4a       _GetMenuItemInfoA@16       00506d4a f   user32:USER32.dll
 0001:00105d50       _GetSubMenu@8              00506d50 f   user32:USER32.dll
 0001:00105d56       _InsertMenuA@20            00506d56 f   user32:USER32.dll
 0001:00105d5c       _ModifyMenuA@20            00506d5c f   user32:USER32.dll
 0001:00105d62       _RemoveMenu@12             00506d62 f   user32:USER32.dll
 0001:00105d68       _LoadMenuA@8               00506d68 f   user32:USER32.dll
 0001:00105d6e       _LoadMenuIndirectA@4       00506d6e f   user32:USER32.dll
 0001:00105d74       _SetMenuContextHelpId@8    00506d74 f   user32:USER32.dll
 0001:00105d7a       _GetMenuContextHelpId@4    00506d7a f   user32:USER32.dll
 0001:00105d80       _CheckMenuRadioItem@20     00506d80 f   user32:USER32.dll
 0001:00105d86       _LoadAcceleratorsA@8       00506d86 f   user32:USER32.dll
 0001:00105d8c       _TranslateAcceleratorA@12  00506d8c f   user32:USER32.dll
 0001:00105d92       _ReleaseCapture@0          00506d92 f   user32:USER32.dll
 0001:00105d98       _DestroyMenu@4             00506d98 f   user32:USER32.dll
 0001:00105d9e       _ReuseDDElParam@20         00506d9e f   user32:USER32.dll
 0001:00105da4       _UnpackDDElParam@16        00506da4 f   user32:USER32.dll
 0001:00105daa       _CharUpperA@4              00506daa f   user32:USER32.dll
 0001:00105db0       _GetAsyncKeyState@4        00506db0 f   user32:USER32.dll
 0001:00105db6       _WaitMessage@0             00506db6 f   user32:USER32.dll
 0001:00105dbc       _GetWindowThreadProcessId@8 00506dbc f   user32:USER32.dll
 0001:00105dc2       _CharNextA@4               00506dc2 f   user32:USER32.dll
 0001:00105dc8       _GetDialogBaseUnits@0      00506dc8 f   user32:USER32.dll
 0001:00105dce       _GetClipboardFormatNameA@12 00506dce f   user32:USER32.dll
 0001:00105dd4       _SetCursorPos@8            00506dd4 f   user32:USER32.dll
 0001:00105dda       _DestroyCursor@4           00506dda f   user32:USER32.dll
 0001:00105de0       _LoadStringA@16            00506de0 f   user32:USER32.dll
 0001:00105de6       _DestroyIcon@4             00506de6 f   user32:USER32.dll
 0001:00105dec       _CopyAcceleratorTableA@12  00506dec f   user32:USER32.dll
 0001:00105df2       _RegisterClipboardFormatA@4 00506df2 f   user32:USER32.dll
 0001:00105df8       _InSendMessage@0           00506df8 f   user32:USER32.dll
 0001:00105dfe       _IsClipboardFormatAvailable@4 00506dfe f   user32:USER32.dll
 0001:00105e04       _GetStockObject@4          00506e04 f   gdi32:GDI32.dll
 0001:00105e0a       _GetDCOrgEx@8              00506e0a f   gdi32:GDI32.dll
 0001:00105e10       _GetClipBox@8              00506e10 f   gdi32:GDI32.dll
 0001:00105e16       _SetTextColor@8            00506e16 f   gdi32:GDI32.dll
 0001:00105e1c       _SetBkColor@8              00506e1c f   gdi32:GDI32.dll
 0001:00105e22       _GetObjectA@12             00506e22 f   gdi32:GDI32.dll
 0001:00105e28       _CreateBitmap@20           00506e28 f   gdi32:GDI32.dll
 0001:00105e2e       _CreateMetaFileA@4         00506e2e f   gdi32:GDI32.dll
 0001:00105e34       _CloseMetaFile@4           00506e34 f   gdi32:GDI32.dll
 0001:00105e3a       _CreateEnhMetaFileA@16     00506e3a f   gdi32:GDI32.dll
 0001:00105e40       _CloseEnhMetaFile@4        00506e40 f   gdi32:GDI32.dll
 0001:00105e46       _ExtTextOutA@32            00506e46 f   gdi32:GDI32.dll
 0001:00105e4c       _DeleteDC@4                00506e4c f   gdi32:GDI32.dll
 0001:00105e52       _SaveDC@4                  00506e52 f   gdi32:GDI32.dll
 0001:00105e58       _RestoreDC@8               00506e58 f   gdi32:GDI32.dll
 0001:00105e5e       _SelectObject@8            00506e5e f   gdi32:GDI32.dll
 0001:00105e64       _SelectPalette@12          00506e64 f   gdi32:GDI32.dll
 0001:00105e6a       _SetBkMode@8               00506e6a f   gdi32:GDI32.dll
 0001:00105e70       _SetPolyFillMode@8         00506e70 f   gdi32:GDI32.dll
 0001:00105e76       _SetROP2@8                 00506e76 f   gdi32:GDI32.dll
 0001:00105e7c       _SetStretchBltMode@8       00506e7c f   gdi32:GDI32.dll
 0001:00105e82       _SetMapMode@8              00506e82 f   gdi32:GDI32.dll
 0001:00105e88       _SetViewportOrgEx@16       00506e88 f   gdi32:GDI32.dll
 0001:00105e8e       _OffsetViewportOrgEx@16    00506e8e f   gdi32:GDI32.dll
 0001:00105e94       _SetViewportExtEx@16       00506e94 f   gdi32:GDI32.dll
 0001:00105e9a       _ScaleViewportExtEx@24     00506e9a f   gdi32:GDI32.dll
 0001:00105ea0       _SetWindowOrgEx@16         00506ea0 f   gdi32:GDI32.dll
 0001:00105ea6       _OffsetWindowOrgEx@16      00506ea6 f   gdi32:GDI32.dll
 0001:00105eac       _SetWindowExtEx@16         00506eac f   gdi32:GDI32.dll
 0001:00105eb2       _ScaleWindowExtEx@24       00506eb2 f   gdi32:GDI32.dll
 0001:00105eb8       _SelectClipRgn@8           00506eb8 f   gdi32:GDI32.dll
 0001:00105ebe       _ExcludeClipRect@20        00506ebe f   gdi32:GDI32.dll
 0001:00105ec4       _IntersectClipRect@20      00506ec4 f   gdi32:GDI32.dll
 0001:00105eca       _OffsetClipRgn@12          00506eca f   gdi32:GDI32.dll
 0001:00105ed0       _MoveToEx@16               00506ed0 f   gdi32:GDI32.dll
 0001:00105ed6       _LineTo@12                 00506ed6 f   gdi32:GDI32.dll
 0001:00105edc       _SetTextAlign@8            00506edc f   gdi32:GDI32.dll
 0001:00105ee2       _SetTextJustification@12   00506ee2 f   gdi32:GDI32.dll
 0001:00105ee8       _SetTextCharacterExtra@8   00506ee8 f   gdi32:GDI32.dll
 0001:00105eee       _SetMapperFlags@8          00506eee f   gdi32:GDI32.dll
 0001:00105ef4       _GetCurrentPositionEx@8    00506ef4 f   gdi32:GDI32.dll
 0001:00105efa       _ArcTo@36                  00506efa f   gdi32:GDI32.dll
 0001:00105f00       _SetArcDirection@8         00506f00 f   gdi32:GDI32.dll
 0001:00105f06       _PolyDraw@16               00506f06 f   gdi32:GDI32.dll
 0001:00105f0c       _PolylineTo@12             00506f0c f   gdi32:GDI32.dll
 0001:00105f12       _SetColorAdjustment@8      00506f12 f   gdi32:GDI32.dll
 0001:00105f18       _PolyBezierTo@12           00506f18 f   gdi32:GDI32.dll
 0001:00105f1e       _DeleteObject@4            00506f1e f   gdi32:GDI32.dll
 0001:00105f24       _GetClipRgn@8              00506f24 f   gdi32:GDI32.dll
 0001:00105f2a       _CreateRectRgn@16          00506f2a f   gdi32:GDI32.dll
 0001:00105f30       _SelectClipPath@8          00506f30 f   gdi32:GDI32.dll
 0001:00105f36       _ExtSelectClipRgn@12       00506f36 f   gdi32:GDI32.dll
 0001:00105f3c       _PlayMetaFileRecord@16     00506f3c f   gdi32:GDI32.dll
 0001:00105f42       _GetObjectType@4           00506f42 f   gdi32:GDI32.dll
 0001:00105f48       _EnumMetaFile@16           00506f48 f   gdi32:GDI32.dll
 0001:00105f4e       _PlayMetaFile@8            00506f4e f   gdi32:GDI32.dll
 0001:00105f54       _GetDeviceCaps@8           00506f54 f   gdi32:GDI32.dll
 0001:00105f5a       _CreatePen@12              00506f5a f   gdi32:GDI32.dll
 0001:00105f60       _ExtCreatePen@20           00506f60 f   gdi32:GDI32.dll
 0001:00105f66       _CreateSolidBrush@4        00506f66 f   gdi32:GDI32.dll
 0001:00105f6c       _CreateHatchBrush@8        00506f6c f   gdi32:GDI32.dll
 0001:00105f72       _CreatePatternBrush@4      00506f72 f   gdi32:GDI32.dll
 0001:00105f78       _CreateDIBPatternBrushPt@8 00506f78 f   gdi32:GDI32.dll
 0001:00105f7e       _UnrealizeObject@4         00506f7e f   gdi32:GDI32.dll
 0001:00105f84       _CreatePenIndirect@4       00506f84 f   gdi32:GDI32.dll
 0001:00105f8a       _CreateBrushIndirect@4     00506f8a f   gdi32:GDI32.dll
 0001:00105f90       _CreateFontIndirectA@4     00506f90 f   gdi32:GDI32.dll
 0001:00105f96       _CreateFontA@56            00506f96 f   gdi32:GDI32.dll
 0001:00105f9c       _CreateBitmapIndirect@4    00506f9c f   gdi32:GDI32.dll
 0001:00105fa2       _SetBitmapBits@12          00506fa2 f   gdi32:GDI32.dll
 0001:00105fa8       _GetBitmapBits@12          00506fa8 f   gdi32:GDI32.dll
 0001:00105fae       _SetBitmapDimensionEx@16   00506fae f   gdi32:GDI32.dll
 0001:00105fb4       _GetBitmapDimensionEx@8    00506fb4 f   gdi32:GDI32.dll
 0001:00105fba       _CreateCompatibleBitmap@12 00506fba f   gdi32:GDI32.dll
 0001:00105fc0       _CreateDiscardableBitmap@12 00506fc0 f   gdi32:GDI32.dll
 0001:00105fc6       _CreatePalette@4           00506fc6 f   gdi32:GDI32.dll
 0001:00105fcc       _CreateHalftonePalette@4   00506fcc f   gdi32:GDI32.dll
 0001:00105fd2       _GetPaletteEntries@16      00506fd2 f   gdi32:GDI32.dll
 0001:00105fd8       _SetPaletteEntries@16      00506fd8 f   gdi32:GDI32.dll
 0001:00105fde       _AnimatePalette@16         00506fde f   gdi32:GDI32.dll
 0001:00105fe4       _GetNearestPaletteIndex@8  00506fe4 f   gdi32:GDI32.dll
 0001:00105fea       _ResizePalette@8           00506fea f   gdi32:GDI32.dll
 0001:00105ff0       _CreateRectRgnIndirect@4   00506ff0 f   gdi32:GDI32.dll
 0001:00105ff6       _CreateEllipticRgn@16      00506ff6 f   gdi32:GDI32.dll
 0001:00105ffc       _CreateEllipticRgnIndirect@4 00506ffc f   gdi32:GDI32.dll
 0001:00106002       _CreatePolygonRgn@12       00507002 f   gdi32:GDI32.dll
 0001:00106008       _CreatePolyPolygonRgn@16   00507008 f   gdi32:GDI32.dll
 0001:0010600e       _CreateRoundRectRgn@24     0050700e f   gdi32:GDI32.dll
 0001:00106014       _PathToRegion@4            00507014 f   gdi32:GDI32.dll
 0001:0010601a       _ExtCreateRegion@12        0050701a f   gdi32:GDI32.dll
 0001:00106020       _GetRegionData@12          00507020 f   gdi32:GDI32.dll
 0001:00106026       _SetRectRgn@20             00507026 f   gdi32:GDI32.dll
 0001:0010602c       _CombineRgn@16             0050702c f   gdi32:GDI32.dll
 0001:00106032       _EqualRgn@8                00507032 f   gdi32:GDI32.dll
 0001:00106038       _OffsetRgn@12              00507038 f   gdi32:GDI32.dll
 0001:0010603e       _GetRgnBox@8               0050703e f   gdi32:GDI32.dll
 0001:00106044       _PtInRegion@12             00507044 f   gdi32:GDI32.dll
 0001:0010604a       _RectInRegion@8            0050704a f   gdi32:GDI32.dll
 0001:00106050       _CreateDCA@16              00507050 f   gdi32:GDI32.dll
 0001:00106056       _CreateICA@16              00507056 f   gdi32:GDI32.dll
 0001:0010605c       _CreateCompatibleDC@4      0050705c f   gdi32:GDI32.dll
 0001:00106062       _GetBrushOrgEx@8           00507062 f   gdi32:GDI32.dll
 0001:00106068       _SetBrushOrgEx@16          00507068 f   gdi32:GDI32.dll
 0001:0010606e       _EnumObjects@16            0050706e f   gdi32:GDI32.dll
 0001:00106074       _GetNearestColor@8         00507074 f   gdi32:GDI32.dll
 0001:0010607a       _RealizePalette@4          0050707a f   gdi32:GDI32.dll
 0001:00106080       _UpdateColors@4            00507080 f   gdi32:GDI32.dll
 0001:00106086       _GetBkColor@4              00507086 f   gdi32:GDI32.dll
 0001:0010608c       _GetBkMode@4               0050708c f   gdi32:GDI32.dll
 0001:00106092       _GetPolyFillMode@4         00507092 f   gdi32:GDI32.dll
 0001:00106098       _GetROP2@4                 00507098 f   gdi32:GDI32.dll
 0001:0010609e       _GetStretchBltMode@4       0050709e f   gdi32:GDI32.dll
 0001:001060a4       _GetTextColor@4            005070a4 f   gdi32:GDI32.dll
 0001:001060aa       _GetMapMode@4              005070aa f   gdi32:GDI32.dll
 0001:001060b0       _GetViewportOrgEx@8        005070b0 f   gdi32:GDI32.dll
 0001:001060b6       _GetViewportExtEx@8        005070b6 f   gdi32:GDI32.dll
 0001:001060bc       _GetWindowOrgEx@8          005070bc f   gdi32:GDI32.dll
 0001:001060c2       _GetWindowExtEx@8          005070c2 f   gdi32:GDI32.dll
 0001:001060c8       _DPtoLP@12                 005070c8 f   gdi32:GDI32.dll
 0001:001060ce       _LPtoDP@12                 005070ce f   gdi32:GDI32.dll
 0001:001060d4       _FillRgn@12                005070d4 f   gdi32:GDI32.dll
 0001:001060da       _FrameRgn@20               005070da f   gdi32:GDI32.dll
 0001:001060e0       _InvertRgn@8               005070e0 f   gdi32:GDI32.dll
 0001:001060e6       _PaintRgn@8                005070e6 f   gdi32:GDI32.dll
 0001:001060ec       _PtVisible@12              005070ec f   gdi32:GDI32.dll
 0001:001060f2       _RectVisible@8             005070f2 f   gdi32:GDI32.dll
 0001:001060f8       _Arc@36                    005070f8 f   gdi32:GDI32.dll
 0001:001060fe       _Polyline@12               005070fe f   gdi32:GDI32.dll
 0001:00106104       _Chord@36                  00507104 f   gdi32:GDI32.dll
 0001:0010610a       _Ellipse@20                0050710a f   gdi32:GDI32.dll
 0001:00106110       _Pie@36                    00507110 f   gdi32:GDI32.dll
 0001:00106116       _Polygon@12                00507116 f   gdi32:GDI32.dll
 0001:0010611c       _PolyPolygon@16            0050711c f   gdi32:GDI32.dll
 0001:00106122       _Rectangle@20              00507122 f   gdi32:GDI32.dll
 0001:00106128       _RoundRect@28              00507128 f   gdi32:GDI32.dll
 0001:0010612e       _PatBlt@24                 0050712e f   gdi32:GDI32.dll
 0001:00106134       _BitBlt@36                 00507134 f   gdi32:GDI32.dll
 0001:0010613a       _StretchBlt@44             0050713a f   gdi32:GDI32.dll
 0001:00106140       _GetPixel@12               00507140 f   gdi32:GDI32.dll
 0001:00106146       _SetPixel@16               00507146 f   gdi32:GDI32.dll
 0001:0010614c       _FloodFill@16              0050714c f   gdi32:GDI32.dll
 0001:00106152       _ExtFloodFill@20           00507152 f   gdi32:GDI32.dll
 0001:00106158       _TextOutA@20               00507158 f   gdi32:GDI32.dll
 0001:0010615e       _GetTextExtentPoint32A@16  0050715e f   gdi32:GDI32.dll
 0001:00106164       _GetTextAlign@4            00507164 f   gdi32:GDI32.dll
 0001:0010616a       _GetTextFaceA@12           0050716a f   gdi32:GDI32.dll
 0001:00106170       _GetTextMetricsA@8         00507170 f   gdi32:GDI32.dll
 0001:00106176       _GetTextCharacterExtra@4   00507176 f   gdi32:GDI32.dll
 0001:0010617c       _GetCharWidthA@16          0050717c f   gdi32:GDI32.dll
 0001:00106182       _GetAspectRatioFilterEx@8  00507182 f   gdi32:GDI32.dll
 0001:00106188       _Escape@20                 00507188 f   gdi32:GDI32.dll
 0001:0010618e       _SetBoundsRect@12          0050718e f   gdi32:GDI32.dll
 0001:00106194       _GetBoundsRect@12          00507194 f   gdi32:GDI32.dll
 0001:0010619a       _ResetDCA@8                0050719a f   gdi32:GDI32.dll
 0001:001061a0       _GetOutlineTextMetricsA@12 005071a0 f   gdi32:GDI32.dll
 0001:001061a6       _GetCharABCWidthsA@16      005071a6 f   gdi32:GDI32.dll
 0001:001061ac       _GetFontData@20            005071ac f   gdi32:GDI32.dll
 0001:001061b2       _GetKerningPairsA@12       005071b2 f   gdi32:GDI32.dll
 0001:001061b8       _GetGlyphOutlineA@28       005071b8 f   gdi32:GDI32.dll
 0001:001061be       _StartDocA@8               005071be f   gdi32:GDI32.dll
 0001:001061c4       _StartPage@4               005071c4 f   gdi32:GDI32.dll
 0001:001061ca       _EndPage@4                 005071ca f   gdi32:GDI32.dll
 0001:001061d0       _SetAbortProc@8            005071d0 f   gdi32:GDI32.dll
 0001:001061d6       _AbortDoc@4                005071d6 f   gdi32:GDI32.dll
 0001:001061dc       _EndDoc@4                  005071dc f   gdi32:GDI32.dll
 0001:001061e2       _MaskBlt@48                005071e2 f   gdi32:GDI32.dll
 0001:001061e8       _PlgBlt@40                 005071e8 f   gdi32:GDI32.dll
 0001:001061ee       _SetPixelV@16              005071ee f   gdi32:GDI32.dll
 0001:001061f4       _AngleArc@24               005071f4 f   gdi32:GDI32.dll
 0001:001061fa       _GetArcDirection@4         005071fa f   gdi32:GDI32.dll
 0001:00106200       _PolyPolyline@16           00507200 f   gdi32:GDI32.dll
 0001:00106206       _GetColorAdjustment@8      00507206 f   gdi32:GDI32.dll
 0001:0010620c       _GetCurrentObject@8        0050720c f   gdi32:GDI32.dll
 0001:00106212       _PolyBezier@12             00507212 f   gdi32:GDI32.dll
 0001:00106218       _DrawEscape@16             00507218 f   gdi32:GDI32.dll
 0001:0010621e       _ExtEscape@24              0050721e f   gdi32:GDI32.dll
 0001:00106224       _GetCharABCWidthsFloatA@16 00507224 f   gdi32:GDI32.dll
 0001:0010622a       _GetCharWidthFloatA@16     0050722a f   gdi32:GDI32.dll
 0001:00106230       _AbortPath@4               00507230 f   gdi32:GDI32.dll
 0001:00106236       _BeginPath@4               00507236 f   gdi32:GDI32.dll
 0001:0010623c       _CloseFigure@4             0050723c f   gdi32:GDI32.dll
 0001:00106242       _EndPath@4                 00507242 f   gdi32:GDI32.dll
 0001:00106248       _FillPath@4                00507248 f   gdi32:GDI32.dll
 0001:0010624e       _FlattenPath@4             0050724e f   gdi32:GDI32.dll
 0001:00106254       _GetMiterLimit@8           00507254 f   gdi32:GDI32.dll
 0001:0010625a       _GetPath@16                0050725a f   gdi32:GDI32.dll
 0001:00106260       _SetMiterLimit@12          00507260 f   gdi32:GDI32.dll
 0001:00106266       _StrokeAndFillPath@4       00507266 f   gdi32:GDI32.dll
 0001:0010626c       _StrokePath@4              0050726c f   gdi32:GDI32.dll
 0001:00106272       _WidenPath@4               00507272 f   gdi32:GDI32.dll
 0001:00106278       _GdiComment@12             00507278 f   gdi32:GDI32.dll
 0001:0010627e       _PlayEnhMetaFile@12        0050727e f   gdi32:GDI32.dll
 0001:00106284       _StretchDIBits@52          00507284 f   gdi32:GDI32.dll
 0001:0010628a       _CopyMetaFileA@8           0050728a f   gdi32:GDI32.dll
 0001:00106290       _DeleteMetaFile@4          00507290 f   gdi32:GDI32.dll
 0001:00106296       _GetSaveFileNameA@4        00507296 f   comdlg32:comdlg32.dll
 0001:0010629c       _GetOpenFileNameA@4        0050729c f   comdlg32:comdlg32.dll
 0001:001062a2       _CommDlgExtendedError@0    005072a2 f   comdlg32:comdlg32.dll
 0001:001062a8       _GetFileTitleA@12          005072a8 f   comdlg32:comdlg32.dll
 0001:001062ae       _PageSetupDlgA@4           005072ae f   comdlg32:comdlg32.dll
 0001:001062b4       _PrintDlgA@4               005072b4 f   comdlg32:comdlg32.dll
 0001:001062ba       _ChooseColorA@4            005072ba f   comdlg32:comdlg32.dll
 0001:001062c0       _ClosePrinter@4            005072c0 f   winspool:WINSPOOL.DRV
 0001:001062c6       _DocumentPropertiesA@24    005072c6 f   winspool:WINSPOOL.DRV
 0001:001062cc       _OpenPrinterA@12           005072cc f   winspool:WINSPOOL.DRV
 0001:001062d2       _RegQueryValueA@16         005072d2 f   advapi32:ADVAPI32.dll
 0001:001062d8       _RegCloseKey@4             005072d8 f   advapi32:ADVAPI32.dll
 0001:001062de       _RegEnumKeyA@16            005072de f   advapi32:ADVAPI32.dll
 0001:001062e4       _RegOpenKeyA@12            005072e4 f   advapi32:ADVAPI32.dll
 0001:001062ea       _RegDeleteKeyA@8           005072ea f   advapi32:ADVAPI32.dll
 0001:001062f0       _RegCreateKeyExA@36        005072f0 f   advapi32:ADVAPI32.dll
 0001:001062f6       _RegOpenKeyExA@20          005072f6 f   advapi32:ADVAPI32.dll
 0001:001062fc       _RegQueryValueExA@24       005072fc f   advapi32:ADVAPI32.dll
 0001:00106302       _RegSetValueExA@24         00507302 f   advapi32:ADVAPI32.dll
 0001:00106308       _RegDeleteValueA@8         00507308 f   advapi32:ADVAPI32.dll
 0001:0010630e       _SetFileSecurityA@12       0050730e f   advapi32:ADVAPI32.dll
 0001:00106314       _GetFileSecurityA@20       00507314 f   advapi32:ADVAPI32.dll
 0001:0010631a       _RegCreateKeyA@12          0050731a f   advapi32:ADVAPI32.dll
 0001:00106320       _RegSetValueA@20           00507320 f   advapi32:ADVAPI32.dll
 0001:00106326       _DragAcceptFiles@8         00507326 f   shell32:SHELL32.dll
 0001:0010632c       _DragFinish@4              0050732c f   shell32:SHELL32.dll
 0001:00106332       _DragQueryFileA@16         00507332 f   shell32:SHELL32.dll
 0001:00106338       _SHGetFileInfoA@20         00507338 f   shell32:SHELL32.dll
 0001:0010633e       _ExtractIconA@12           0050733e f   shell32:SHELL32.dll
 0001:00106344       _InitCommonControls@0      00507344 f   comctl32:COMCTL32.dll
 0001:0010634a       _CreateMappedBitmap@20     0050734a f   comctl32:COMCTL32.dll
 0001:00106350       _PropertySheetA@4          00507350 f   comctl32:COMCTL32.dll
 0001:00106356       _DestroyPropertySheetPage@4 00507356 f   comctl32:COMCTL32.dll
 0001:0010635c       _CreatePropertySheetPageA@4 0050735c f   comctl32:COMCTL32.dll
 0001:00106362       _MakeDragList@4            00507362 f   comctl32:COMCTL32.dll
 0001:00106368       _ImageList_Destroy@4       00507368 f   comctl32:COMCTL32.dll
 0001:0010636e       _ImageList_Create@20       0050736e f   comctl32:COMCTL32.dll
 0001:00106374       _ImageList_LoadImageA@28   00507374 f   comctl32:COMCTL32.dll
 0001:0010637a       _ImageList_Merge@24        0050737a f   comctl32:COMCTL32.dll
 0001:00106380       _ImageList_Read@4          00507380 f   comctl32:COMCTL32.dll
 0001:00106386       _ImageList_Write@8         00507386 f   comctl32:COMCTL32.dll
 0001:0010638c       _LBItemFromPt@16           0050738c f   comctl32:COMCTL32.dll
 0001:00106392       _ImageList_GetImageCount@4 00507392 f   comctl32:COMCTL32.dll
 0001:00106398       _ImageList_Add@12          00507398 f   comctl32:COMCTL32.dll
 0001:0010639e       _ImageList_AddMasked@12    0050739e f   comctl32:COMCTL32.dll
 0001:001063a4       _ImageList_Remove@8        005073a4 f   comctl32:COMCTL32.dll
 0001:001063aa       _ImageList_Replace@16      005073aa f   comctl32:COMCTL32.dll
 0001:001063b0       _ImageList_ReplaceIcon@12  005073b0 f   comctl32:COMCTL32.dll
 0001:001063b6       _ImageList_GetIcon@12      005073b6 f   comctl32:COMCTL32.dll
 0001:001063bc       _ImageList_Draw@24         005073bc f   comctl32:COMCTL32.dll
 0001:001063c2       _ImageList_SetBkColor@8    005073c2 f   comctl32:COMCTL32.dll
 0001:001063c8       _ImageList_GetBkColor@4    005073c8 f   comctl32:COMCTL32.dll
 0001:001063ce       _ImageList_SetOverlayImage@12 005073ce f   comctl32:COMCTL32.dll
 0001:001063d4       _ImageList_GetImageInfo@12 005073d4 f   comctl32:COMCTL32.dll
 0001:001063da       _ImageList_BeginDrag@16    005073da f   comctl32:COMCTL32.dll
 0001:001063e0       _ImageList_EndDrag@0       005073e0 f   comctl32:COMCTL32.dll
 0001:001063e6       _ImageList_DragMove@8      005073e6 f   comctl32:COMCTL32.dll
 0001:001063ec       _ImageList_SetDragCursorImage@16 005073ec f   comctl32:COMCTL32.dll
 0001:001063f2       _ImageList_DragShowNolock@4 005073f2 f   comctl32:COMCTL32.dll
 0001:001063f8       _ImageList_GetDragImage@8  005073f8 f   comctl32:COMCTL32.dll
 0001:001063fe       _ImageList_DragEnter@12    005073fe f   comctl32:COMCTL32.dll
 0001:00106404       _ImageList_DragLeave@4     00507404 f   comctl32:COMCTL32.dll
 0001:0010640a       _OleUIBusyA@4              0050740a f   oledlg:oledlg.dll
 0001:00106410       _OleUIInsertObjectA@4      00507410 f   oledlg:oledlg.dll
 0001:00106416       _OleUIConvertA@4           00507416 f   oledlg:oledlg.dll
 0001:0010641c       _OleUIChangeIconA@4        0050741c f   oledlg:oledlg.dll
 0001:00106422       _OleUIEditLinksA@4         00507422 f   oledlg:oledlg.dll
 0001:00106428       _OleUIUpdateLinksA@16      00507428 f   oledlg:oledlg.dll
 0001:0010642e       _OleUIPasteSpecialA@4      0050742e f   oledlg:oledlg.dll
 0001:00106434       _CreateStreamOnHGlobal@12  00507434 f   ole32:ole32.dll
 0001:0010643a       _CLSIDFromProgID@8         0050743a f   ole32:ole32.dll
 0001:00106440       _CLSIDFromString@8         00507440 f   ole32:ole32.dll
 0001:00106446       _OleRun@4                  00507446 f   ole32:ole32.dll
 0001:0010644c       _CoCreateInstance@20       0050744c f   ole32:ole32.dll
 0001:00106452       _CoDisconnectObject@8      00507452 f   ole32:ole32.dll
 0001:00106458       _CoGetClassObject@20       00507458 f   ole32:ole32.dll
 0001:0010645e       _StgOpenStorageOnILockBytes@24 0050745e f   ole32:ole32.dll
 0001:00106464       _StgCreateDocfileOnILockBytes@16 00507464 f   ole32:ole32.dll
 0001:0010646a       _CreateILockBytesOnHGlobal@12 0050746a f   ole32:ole32.dll
 0001:00106470       _StringFromGUID2@12        00507470 f   ole32:ole32.dll
 0001:00106476       _CoTaskMemFree@4           00507476 f   ole32:ole32.dll
 0001:0010647c       _CoTaskMemAlloc@4          0050747c f   ole32:ole32.dll
 0001:00106482       _OleDuplicateData@12       00507482 f   ole32:ole32.dll
 0001:00106488       _CreateBindCtx@8           00507488 f   ole32:ole32.dll
 0001:0010648e       _SetConvertStg@8           0050748e f   ole32:ole32.dll
 0001:00106494       _WriteFmtUserTypeStg@12    00507494 f   ole32:ole32.dll
 0001:0010649a       _WriteClassStg@8           0050749a f   ole32:ole32.dll
 0001:001064a0       _OleRegGetUserType@12      005074a0 f   ole32:ole32.dll
 0001:001064a6       _ReadFmtUserTypeStg@12     005074a6 f   ole32:ole32.dll
 0001:001064ac       _ReadClassStg@8            005074ac f   ole32:ole32.dll
 0001:001064b2       _StringFromCLSID@8         005074b2 f   ole32:ole32.dll
 0001:001064b8       _CoTreatAsClass@8          005074b8 f   ole32:ole32.dll
 0001:001064be       _ReleaseStgMedium@4        005074be f   ole32:ole32.dll
 0001:001064c4       _OleInitialize@4           005074c4 f   ole32:ole32.dll
 0001:001064ca       _OleUninitialize@0         005074ca f   ole32:ole32.dll
 0001:001064d0       _CoFreeUnusedLibraries@0   005074d0 f   ole32:ole32.dll
 0001:001064d6       _CoRegisterMessageFilter@8 005074d6 f   ole32:ole32.dll
 0001:001064dc       _CoRegisterClassObject@20  005074dc f   ole32:ole32.dll
 0001:001064e2       _CoRevokeClassObject@4     005074e2 f   ole32:ole32.dll
 0001:001064e8       _OleIsCurrentClipboard@4   005074e8 f   ole32:ole32.dll
 0001:001064ee       _OleSetClipboard@4         005074ee f   ole32:ole32.dll
 0001:001064f4       _OleFlushClipboard@0       005074f4 f   ole32:ole32.dll
 0001:001064fa       _CreateItemMoniker@12      005074fa f   ole32:ole32.dll
 0001:00106500       _CreateGenericComposite@12 00507500 f   ole32:ole32.dll
 0001:00106506       _CreateFileMoniker@8       00507506 f   ole32:ole32.dll
 0001:0010650c       _GetClassFile@8            0050750c f   ole32:ole32.dll
 0001:00106512       _CoGetMalloc@8             00507512 f   ole32:ole32.dll
 0001:00106518       _StgCreateDocfile@16       00507518 f   ole32:ole32.dll
 0001:0010651e       _StgOpenStorage@24         0050751e f   ole32:ole32.dll
 0001:00106524       _StgIsStorageFile@4        00507524 f   ole32:ole32.dll
 0001:0010652a       _OleLockRunning@12         0050752a f   ole32:ole32.dll
 0001:00106530       _OleSetContainedObject@8   00507530 f   ole32:ole32.dll
 0001:00106536       _OleCreateFromData@28      00507536 f   ole32:ole32.dll
 0001:0010653c       _OleCreateLinkFromData@28  0050753c f   ole32:ole32.dll
 0001:00106542       _OleCreateStaticFromData@28 00507542 f   ole32:ole32.dll
 0001:00106548       _OleCreateFromFile@32      00507548 f   ole32:ole32.dll
 0001:0010654e       _OleCreateLinkToFile@28    0050754e f   ole32:ole32.dll
 0001:00106554       _OleCreate@28              00507554 f   ole32:ole32.dll
 0001:0010655a       _OleLoad@16                0050755a f   ole32:ole32.dll
 0001:00106560       _OleSave@12                00507560 f   ole32:ole32.dll
 0001:00106566       _StgIsStorageILockBytes@4  00507566 f   ole32:ole32.dll
 0001:0010656c       _GetHGlobalFromILockBytes@8 0050756c f   ole32:ole32.dll
 0001:00106572       _OleGetIconOfClass@12      00507572 f   ole32:ole32.dll
 0001:00106578       _WriteClassStm@8           00507578 f   ole32:ole32.dll
 0001:0010657e       _OleSaveToStream@8         0050757e f   ole32:ole32.dll
 0001:00106584       _OleIsRunning@4            00507584 f   ole32:ole32.dll
 0001:0010658a       _OleQueryCreateFromData@4  0050758a f   ole32:ole32.dll
 0001:00106590       _OleQueryLinkFromData@4    00507590 f   ole32:ole32.dll
 0001:00106596       _OleGetClipboard@4         00507596 f   ole32:ole32.dll
 0001:0010659c       _OleSetMenuDescriptor@20   0050759c f   ole32:ole32.dll
 0001:001065a2       _DoDragDrop@16             005075a2 f   ole32:ole32.dll
 0001:001065a8       _OleRegEnumVerbs@8         005075a8 f   ole32:ole32.dll
 0001:001065ae       _OleRegGetMiscStatus@12    005075ae f   ole32:ole32.dll
 0001:001065b4       _OleCreateMenuDescriptor@8 005075b4 f   ole32:ole32.dll
 0001:001065ba       _OleDestroyMenuDescriptor@4 005075ba f   ole32:ole32.dll
 0001:001065c0       _CreateOleAdviseHolder@4   005075c0 f   ole32:ole32.dll
 0001:001065c6       _CreateDataAdviseHolder@4  005075c6 f   ole32:ole32.dll
 0001:001065cc       _OleTranslateAccelerator@12 005075cc f   ole32:ole32.dll
 0001:001065d2       _IsAccelerator@16          005075d2 f   ole32:ole32.dll
 0001:001065d8       _GetRunningObjectTable@8   005075d8 f   ole32:ole32.dll
 0001:001065de       _CoLockObjectExternal@12   005075de f   ole32:ole32.dll
 0001:001065e4       _OleLoadPicture@20         005075e4 f   olepro32:OLEPRO32.DLL
 0001:001065ea       _OleCreateFontIndirect@12  005075ea f   olepro32:OLEPRO32.DLL
 0001:001065f0       _SysFreeString@4           005075f0 f   oleaut32:OLEAUT32.dll
 0001:001065f6       _SysAllocStringLen@8       005075f6 f   oleaut32:OLEAUT32.dll
 0001:001065fc       _VariantChangeType@16      005075fc f   oleaut32:OLEAUT32.dll
 0001:00106602       _VariantClear@4            00507602 f   oleaut32:OLEAUT32.dll
 0001:00106608       _SysAllocString@4          00507608 f   oleaut32:OLEAUT32.dll
 0001:0010660e       _DosDateTimeToVariantTime@12 0050760e f   oleaut32:OLEAUT32.dll
 0001:00106614       _SafeArrayGetDim@4         00507614 f   oleaut32:OLEAUT32.dll
 0001:0010661a       _SafeArrayGetElemsize@4    0050761a f   oleaut32:OLEAUT32.dll
 0001:00106620       _VariantTimeToSystemTime@12 00507620 f   oleaut32:OLEAUT32.dll
 0001:00106626       _SysStringLen@4            00507626 f   oleaut32:OLEAUT32.dll
 0001:0010662c       _SysAllocStringByteLen@8   0050762c f   oleaut32:OLEAUT32.dll
 0001:00106632       _VariantCopy@8             00507632 f   oleaut32:OLEAUT32.dll
 0001:00106638       _SysReAllocStringLen@12    00507638 f   oleaut32:OLEAUT32.dll
 0001:0010663e       _SafeArrayUnaccessData@4   0050763e f   oleaut32:OLEAUT32.dll
 0001:00106644       _SafeArrayAccessData@8     00507644 f   oleaut32:OLEAUT32.dll
 0001:0010664a       _SafeArrayGetUBound@12     0050764a f   oleaut32:OLEAUT32.dll
 0001:00106650       _SafeArrayGetLBound@12     00507650 f   oleaut32:OLEAUT32.dll
 0001:00106656       _SafeArrayRedim@8          00507656 f   oleaut32:OLEAUT32.dll
 0001:0010665c       _SafeArrayCreate@12        0050765c f   oleaut32:OLEAUT32.dll
 0001:00106662       _SysStringByteLen@4        00507662 f   oleaut32:OLEAUT32.dll
 0001:00106668       _VarCyFromStr@16           00507668 f   oleaut32:OLEAUT32.dll
 0001:0010666e       _VarBstrFromCy@20          0050766e f   oleaut32:OLEAUT32.dll
 0001:00106674       _VarDateFromStr@16         00507674 f   oleaut32:OLEAUT32.dll
 0001:0010667a       _VarBstrFromDate@20        0050767a f   oleaut32:OLEAUT32.dll
 0001:00106680       _SafeArrayCopy@8           00507680 f   oleaut32:OLEAUT32.dll
 0001:00106686       _SafeArrayAllocData@4      00507686 f   oleaut32:OLEAUT32.dll
 0001:0010668c       _SafeArrayAllocDescriptor@8 0050768c f   oleaut32:OLEAUT32.dll
 0001:00106692       _SafeArrayGetElement@12    00507692 f   oleaut32:OLEAUT32.dll
 0001:00106698       _SafeArrayPtrOfIndex@12    00507698 f   oleaut32:OLEAUT32.dll
 0001:0010669e       _SafeArrayPutElement@12    0050769e f   oleaut32:OLEAUT32.dll
 0001:001066a4       _SafeArrayLock@4           005076a4 f   oleaut32:OLEAUT32.dll
 0001:001066aa       _SafeArrayUnlock@4         005076aa f   oleaut32:OLEAUT32.dll
 0001:001066b0       _SafeArrayDestroy@4        005076b0 f   oleaut32:OLEAUT32.dll
 0001:001066b6       _SafeArrayDestroyData@4    005076b6 f   oleaut32:OLEAUT32.dll
 0001:001066bc       _SafeArrayDestroyDescriptor@4 005076bc f   oleaut32:OLEAUT32.dll
 0001:001066c2       _LoadTypeLib@8             005076c2 f   oleaut32:OLEAUT32.dll
 0001:00106850       ??_D?$basic_ostream@DU?$char_traits@D@std@@@std@@QAEXXZ 00507850 f i libcpmtd:iostream.obj
 0001:001069a0       ??0Init@ios_base@std@@QAE@XZ 005079a0 f   libcpmtd:iostream.obj
 0001:00106c80       ?setf@ios_base@std@@QAEHH@Z 00507c80 f i libcpmtd:iostream.obj
 0001:00106cc0       ??1Init@ios_base@std@@QAE@XZ 00507cc0 f   libcpmtd:iostream.obj
 0001:00106d30       ??0?$basic_ostream@DU?$char_traits@D@std@@@std@@QAE@PAV?$basic_streambuf@DU?$char_traits@D@std@@@1@_N1@Z 00507d30 f i libcpmtd:iostream.obj
 0001:00106de0       ??0?$basic_ostream@DU?$char_traits@D@std@@@std@@QAE@W4_Uninitialized@1@@Z 00507de0 f i libcpmtd:iostream.obj
 0001:00106e70       ??1?$basic_ostream@DU?$char_traits@D@std@@@std@@UAE@XZ 00507e70 f i libcpmtd:iostream.obj
 0001:00106e90       ?tie@?$basic_ios@DU?$char_traits@D@std@@@std@@QAEPAV?$basic_ostream@DU?$char_traits@D@std@@@2@PAV32@@Z 00507e90 f i libcpmtd:iostream.obj
 0001:00106ec0       ??0?$basic_istream@DU?$char_traits@D@std@@@std@@QAE@W4_Uninitialized@1@@Z 00507ec0 f i libcpmtd:iostream.obj
 0001:00106f50       ??0?$basic_filebuf@DU?$char_traits@D@std@@@std@@QAE@W4_Uninitialized@1@@Z 00507f50 f i libcpmtd:iostream.obj
 0001:00106fb0       ??_E?$basic_ostream@DU?$char_traits@D@std@@@std@@UAEPAXI@Z 00507fb0 f i libcpmtd:iostream.obj
 0001:00106fb0       ??_G?$basic_ostream@DU?$char_traits@D@std@@@std@@UAEPAXI@Z 00507fb0 f i libcpmtd:iostream.obj
 0001:00106ff0       ??0?$basic_streambuf@DU?$char_traits@D@std@@@std@@IAE@W4_Uninitialized@1@@Z 00507ff0 f i libcpmtd:iostream.obj
 0001:00107060       ?id@?$collate@D@std@@$D    00508060 f i libcpmtd:iostream.obj
 0001:001070b0       ?id@?$collate@D@std@@$E    005080b0 f i libcpmtd:iostream.obj
 0001:001072e0       ??_D?$basic_istream@GU?$char_traits@G@std@@@std@@QAEXXZ 005082e0 f i libcpmtd:wiostrea.obj
 0001:00107370       ??_D?$basic_ostream@GU?$char_traits@G@std@@@std@@QAEXXZ 00508370 f i libcpmtd:wiostrea.obj
 0001:00107460       ??0_Winit@std@@QAE@XZ      00508460 f   libcpmtd:wiostrea.obj
 0001:00107740       ??1_Winit@std@@QAE@XZ      00508740 f   libcpmtd:wiostrea.obj
 0001:001077b0       ??0?$basic_ostream@GU?$char_traits@G@std@@@std@@QAE@PAV?$basic_streambuf@GU?$char_traits@G@std@@@1@_N1@Z 005087b0 f i libcpmtd:wiostrea.obj
 0001:00107860       ??0?$basic_ostream@GU?$char_traits@G@std@@@std@@QAE@W4_Uninitialized@1@@Z 00508860 f i libcpmtd:wiostrea.obj
 0001:001078f0       ??1?$basic_ostream@GU?$char_traits@G@std@@@std@@UAE@XZ 005088f0 f i libcpmtd:wiostrea.obj
 0001:00107910       ?flush@?$basic_ostream@GU?$char_traits@G@std@@@std@@QAEAAV12@XZ 00508910 f i libcpmtd:wiostrea.obj
 0001:00107980       ??1?$basic_ios@GU?$char_traits@G@std@@@std@@UAE@XZ 00508980 f i libcpmtd:wiostrea.obj
 0001:001079a0       ?setstate@?$basic_ios@GU?$char_traits@G@std@@@std@@QAEXH_N@Z 005089a0 f i libcpmtd:wiostrea.obj
 0001:001079d0       ?tie@?$basic_ios@GU?$char_traits@G@std@@@std@@QAEPAV?$basic_ostream@GU?$char_traits@G@std@@@2@PAV32@@Z 005089d0 f i libcpmtd:wiostrea.obj
 0001:00107a00       ?rdbuf@?$basic_ios@GU?$char_traits@G@std@@@std@@QBEPAV?$basic_streambuf@GU?$char_traits@G@std@@@2@XZ 00508a00 f i libcpmtd:wiostrea.obj
 0001:00107a20       ??0?$basic_istream@GU?$char_traits@G@std@@@std@@QAE@PAV?$basic_streambuf@GU?$char_traits@G@std@@@1@_N@Z 00508a20 f i libcpmtd:wiostrea.obj
 0001:00107ac0       ??0?$basic_istream@GU?$char_traits@G@std@@@std@@QAE@W4_Uninitialized@1@@Z 00508ac0 f i libcpmtd:wiostrea.obj
 0001:00107b50       ??1?$basic_istream@GU?$char_traits@G@std@@@std@@UAE@XZ 00508b50 f i libcpmtd:wiostrea.obj
 0001:00107b70       ??0?$basic_filebuf@GU?$char_traits@G@std@@@std@@QAE@PAU_iobuf@@@Z 00508b70 f i libcpmtd:wiostrea.obj
 0001:00107be0       ??1?$basic_streambuf@GU?$char_traits@G@std@@@std@@UAE@XZ 00508be0 f i libcpmtd:wiostrea.obj
 0001:00107c00       ?overflow@?$basic_streambuf@GU?$char_traits@G@std@@@std@@MAEGG@Z 00508c00 f i libcpmtd:wiostrea.obj
 0001:00107c20       ?eof@?$char_traits@G@std@@SAGXZ 00508c20 f i libcpmtd:wiostrea.obj
 0001:00107c30       ?pbackfail@?$basic_streambuf@GU?$char_traits@G@std@@@std@@MAEGG@Z 00508c30 f i libcpmtd:wiostrea.obj
 0001:00107c50       ?showmanyc@?$basic_streambuf@GU?$char_traits@G@std@@@std@@MAEHXZ 00508c50 f i libcpmtd:wiostrea.obj
 0001:00107c60       ?underflow@?$basic_streambuf@GU?$char_traits@G@std@@@std@@MAEGXZ 00508c60 f i libcpmtd:wiostrea.obj
 0001:00107c70       ?uflow@?$basic_streambuf@GU?$char_traits@G@std@@@std@@MAEGXZ 00508c70 f i libcpmtd:wiostrea.obj
 0001:00107ce0       ?to_int_type@?$char_traits@G@std@@SAGABG@Z 00508ce0 f i libcpmtd:wiostrea.obj
 0001:00107cf0       ?eq_int_type@?$char_traits@G@std@@SA_NABG0@Z 00508cf0 f i libcpmtd:wiostrea.obj
 0001:00107d10       ?xsgetn@?$basic_streambuf@GU?$char_traits@G@std@@@std@@MAEHPAGH@Z 00508d10 f i libcpmtd:wiostrea.obj
 0001:00107e20       ?copy@?$char_traits@G@std@@SAPAGPAGPBGI@Z 00508e20 f i libcpmtd:wiostrea.obj
 0001:00107e40       _wmemcpy                   00508e40 f i libcpmtd:wiostrea.obj
 0001:00107e90       ?to_char_type@?$char_traits@G@std@@SAGABG@Z 00508e90 f i libcpmtd:wiostrea.obj
 0001:00107ea0       ?xsputn@?$basic_streambuf@GU?$char_traits@G@std@@@std@@MAEHPBGH@Z 00508ea0 f i libcpmtd:wiostrea.obj
 0001:00107fb0       ?seekoff@?$basic_streambuf@GU?$char_traits@G@std@@@std@@MAE?AV?$fpos@H@2@JW4seekdir@ios_base@2@H@Z 00508fb0 f i libcpmtd:wiostrea.obj
 0001:00107fe0       ?seekpos@?$basic_streambuf@GU?$char_traits@G@std@@@std@@MAE?AV?$fpos@H@2@V32@H@Z 00508fe0 f i libcpmtd:wiostrea.obj
 0001:00108010       ?setbuf@?$basic_streambuf@GU?$char_traits@G@std@@@std@@MAEPAV12@PAGH@Z 00509010 f i libcpmtd:wiostrea.obj
 0001:00108020       ?sync@?$basic_streambuf@GU?$char_traits@G@std@@@std@@MAEHXZ 00509020 f i libcpmtd:wiostrea.obj
 0001:00108030       ?imbue@?$basic_streambuf@GU?$char_traits@G@std@@@std@@MAEXABVlocale@2@@Z 00509030 f i libcpmtd:wiostrea.obj
 0001:00108040       ??0?$basic_filebuf@GU?$char_traits@G@std@@@std@@QAE@W4_Uninitialized@1@@Z 00509040 f i libcpmtd:wiostrea.obj
 0001:001080a0       ??1?$basic_filebuf@GU?$char_traits@G@std@@@std@@UAE@XZ 005090a0 f i libcpmtd:wiostrea.obj
 0001:00108140       ?overflow@?$basic_filebuf@GU?$char_traits@G@std@@@std@@MAEGG@Z 00509140 f i libcpmtd:wiostrea.obj
 0001:00108360       ?not_eof@?$char_traits@G@std@@SAGABG@Z 00509360 f i libcpmtd:wiostrea.obj
 0001:001083b0       ?out@?$codecvt@GDH@std@@QBEHAAHPBG1AAPBGPAD3AAPAD@Z 005093b0 f i libcpmtd:wiostrea.obj
 0001:001083f0       ?_Fputc@std@@YA_NGPAU_iobuf@@@Z 005093f0 f i libcpmtd:wiostrea.obj
 0001:00108420       ?pbackfail@?$basic_filebuf@GU?$char_traits@G@std@@@std@@MAEGG@Z 00509420 f i libcpmtd:wiostrea.obj
 0001:001085b0       ?_Ungetc@std@@YA_NGPAU_iobuf@@@Z 005095b0 f i libcpmtd:wiostrea.obj
 0001:001085e0       ?underflow@?$basic_filebuf@GU?$char_traits@G@std@@@std@@MAEGXZ 005095e0 f i libcpmtd:wiostrea.obj
 0001:00108640       ?uflow@?$basic_filebuf@GU?$char_traits@G@std@@@std@@MAEGXZ 00509640 f i libcpmtd:wiostrea.obj
 0001:001087e0       ?in@?$codecvt@GDH@std@@QBEHAAHPBD1AAPBDPAG3AAPAG@Z 005097e0 f i libcpmtd:wiostrea.obj
 0001:00108820       ?_Fgetc@std@@YA_NAAGPAU_iobuf@@@Z 00509820 f i libcpmtd:wiostrea.obj
 0001:00108860       ?seekoff@?$basic_filebuf@GU?$char_traits@G@std@@@std@@MAE?AV?$fpos@H@2@JW4seekdir@ios_base@2@H@Z 00509860 f i libcpmtd:wiostrea.obj
 0001:001088f0       ?seekpos@?$basic_filebuf@GU?$char_traits@G@std@@@std@@MAE?AV?$fpos@H@2@V32@H@Z 005098f0 f i libcpmtd:wiostrea.obj
 0001:001089f0       ?setbuf@?$basic_filebuf@GU?$char_traits@G@std@@@std@@MAEPAV?$basic_streambuf@GU?$char_traits@G@std@@@2@PAGH@Z 005099f0 f i libcpmtd:wiostrea.obj
 0001:00108a40       ?sync@?$basic_filebuf@GU?$char_traits@G@std@@@std@@MAEHXZ 00509a40 f i libcpmtd:wiostrea.obj
 0001:00108a80       ??_E?$basic_ostream@GU?$char_traits@G@std@@@std@@UAEPAXI@Z 00509a80 f i libcpmtd:wiostrea.obj
 0001:00108a80       ??_G?$basic_ostream@GU?$char_traits@G@std@@@std@@UAEPAXI@Z 00509a80 f i libcpmtd:wiostrea.obj
 0001:00108ac0       ??_E?$basic_ios@GU?$char_traits@G@std@@@std@@UAEPAXI@Z 00509ac0 f i libcpmtd:wiostrea.obj
 0001:00108ac0       ??_G?$basic_ios@GU?$char_traits@G@std@@@std@@UAEPAXI@Z 00509ac0 f i libcpmtd:wiostrea.obj
 0001:00108af0       ??_G?$basic_istream@GU?$char_traits@G@std@@@std@@UAEPAXI@Z 00509af0 f i libcpmtd:wiostrea.obj
 0001:00108af0       ??_E?$basic_istream@GU?$char_traits@G@std@@@std@@UAEPAXI@Z 00509af0 f i libcpmtd:wiostrea.obj
 0001:00108b30       ??_E?$basic_streambuf@GU?$char_traits@G@std@@@std@@UAEPAXI@Z 00509b30 f i libcpmtd:wiostrea.obj
 0001:00108b30       ??_G?$basic_streambuf@GU?$char_traits@G@std@@@std@@UAEPAXI@Z 00509b30 f i libcpmtd:wiostrea.obj
 0001:00108b60       ??_E?$basic_filebuf@GU?$char_traits@G@std@@@std@@UAEPAXI@Z 00509b60 f i libcpmtd:wiostrea.obj
 0001:00108b60       ??_G?$basic_filebuf@GU?$char_traits@G@std@@@std@@UAEPAXI@Z 00509b60 f i libcpmtd:wiostrea.obj
 0001:00108b90       ?clear@?$basic_ios@GU?$char_traits@G@std@@@std@@QAEXH_N@Z 00509b90 f i libcpmtd:wiostrea.obj
 0001:00108bd0       ?init@?$basic_ios@GU?$char_traits@G@std@@@std@@IAEXPAV?$basic_streambuf@GU?$char_traits@G@std@@@2@_N@Z 00509bd0 f i libcpmtd:wiostrea.obj
 0001:00108c40       ?_Widen@std@@YAGDPAG@Z     00509c40 f i libcpmtd:wiostrea.obj
 0001:00108c60       ??0?$basic_ios@GU?$char_traits@G@std@@@std@@IAE@XZ 00509c60 f i libcpmtd:wiostrea.obj
 0001:00108c80       ??0?$basic_streambuf@GU?$char_traits@G@std@@@std@@IAE@XZ 00509c80 f i libcpmtd:wiostrea.obj
 0001:00108ce0       ??0?$basic_streambuf@GU?$char_traits@G@std@@@std@@IAE@W4_Uninitialized@1@@Z 00509ce0 f i libcpmtd:wiostrea.obj
 0001:00108d10       ?pubsync@?$basic_streambuf@GU?$char_traits@G@std@@@std@@QAEHXZ 00509d10 f i libcpmtd:wiostrea.obj
 0001:00108d30       ?eback@?$basic_streambuf@GU?$char_traits@G@std@@@std@@IBEPAGXZ 00509d30 f i libcpmtd:wiostrea.obj
 0001:00108d50       ?gptr@?$basic_streambuf@GU?$char_traits@G@std@@@std@@IBEPAGXZ 00509d50 f i libcpmtd:wiostrea.obj
 0001:00108d70       ?pptr@?$basic_streambuf@GU?$char_traits@G@std@@@std@@IBEPAGXZ 00509d70 f i libcpmtd:wiostrea.obj
 0001:00108d90       ?egptr@?$basic_streambuf@GU?$char_traits@G@std@@@std@@IBEPAGXZ 00509d90 f i libcpmtd:wiostrea.obj
 0001:00108db0       ?gbump@?$basic_streambuf@GU?$char_traits@G@std@@@std@@IAEXH@Z 00509db0 f i libcpmtd:wiostrea.obj
 0001:00108df0       ?epptr@?$basic_streambuf@GU?$char_traits@G@std@@@std@@IBEPAGXZ 00509df0 f i libcpmtd:wiostrea.obj
 0001:00108e10       ?_Gndec@?$basic_streambuf@GU?$char_traits@G@std@@@std@@IAEPAGXZ 00509e10 f i libcpmtd:wiostrea.obj
 0001:00108e50       ?_Gninc@?$basic_streambuf@GU?$char_traits@G@std@@@std@@IAEPAGXZ 00509e50 f i libcpmtd:wiostrea.obj
 0001:00108e90       ?pbump@?$basic_streambuf@GU?$char_traits@G@std@@@std@@IAEXH@Z 00509e90 f i libcpmtd:wiostrea.obj
 0001:00108ed0       ?_Pninc@?$basic_streambuf@GU?$char_traits@G@std@@@std@@IAEPAGXZ 00509ed0 f i libcpmtd:wiostrea.obj
 0001:00108f10       ?close@?$basic_filebuf@GU?$char_traits@G@std@@@std@@QAEPAV12@XZ 00509f10 f i libcpmtd:wiostrea.obj
 0001:00108f50       ?_Init@?$basic_filebuf@GU?$char_traits@G@std@@@std@@IAEXPAU_iobuf@@W4_Initfl@12@@Z 00509f50 f i libcpmtd:wiostrea.obj
 0001:00109030       ?_Init@?$basic_streambuf@GU?$char_traits@G@std@@@std@@IAEXXZ 0050a030 f i libcpmtd:wiostrea.obj
 0001:001090a0       ?_Init@?$basic_streambuf@GU?$char_traits@G@std@@@std@@IAEXPAPAG0PAH001@Z 0050a0a0 f i libcpmtd:wiostrea.obj
 0001:001090f0       ?setg@?$basic_streambuf@GU?$char_traits@G@std@@@std@@IAEXPAG00@Z 0050a0f0 f i libcpmtd:wiostrea.obj
 0001:00109130       ?setp@?$basic_streambuf@GU?$char_traits@G@std@@@std@@IAEXPAG0@Z 0050a130 f i libcpmtd:wiostrea.obj
 0001:001091d0       ??0_Lockit@std@@QAE@XZ     0050a1d0 f   libcpmtd:xlock.obj
 0001:001092b0       ??1_Lockit@std@@QAE@XZ     0050a2b0 f   libcpmtd:xlock.obj
 0001:001092d0       ?_Xlen@std@@YAXXZ          0050a2d0 f   libcpmtd:string.obj
 0001:00109330       ??0length_error@std@@QAE@ABV?$basic_string@DU?$char_traits@D@std@@V?$allocator@D@2@@1@@Z 0050a330 f i libcpmtd:string.obj
 0001:00109360       ??1length_error@std@@UAE@XZ 0050a360 f i libcpmtd:string.obj
 0001:00109380       ?_Doraise@length_error@std@@MBEXXZ 0050a380 f i libcpmtd:string.obj
 0001:001093b0       ??_Elength_error@std@@UAEPAXI@Z 0050a3b0 f i libcpmtd:string.obj
 0001:001093b0       ??_Glength_error@std@@UAEPAXI@Z 0050a3b0 f i libcpmtd:string.obj
 0001:001093e0       ??0length_error@std@@QAE@ABV01@@Z 0050a3e0 f i libcpmtd:string.obj
 0001:00109410       ?_Xran@std@@YAXXZ          0050a410 f   libcpmtd:string.obj
 0001:001094d0       ?clear@ios_base@std@@QAEXH_N@Z 0050a4d0 f   libcpmtd:ios.obj
 0001:001095b0       ??0runtime_error@std@@QAE@ABV01@@Z 0050a5b0 f i libcpmtd:ios.obj
 0001:00109620       ?what@runtime_error@std@@UBEPBDXZ 0050a620 f i libcpmtd:ios.obj
 0001:00109640       ?_Doraise@runtime_error@std@@MBEXXZ 0050a640 f i libcpmtd:ios.obj
 0001:00109670       ??1runtime_error@std@@UAE@XZ 0050a670 f i libcpmtd:ios.obj
 0001:001096d0       ??_Gruntime_error@std@@UAEPAXI@Z 0050a6d0 f i libcpmtd:ios.obj
 0001:001096d0       ??_Eruntime_error@std@@UAEPAXI@Z 0050a6d0 f i libcpmtd:ios.obj
 0001:00109700       ??0failure@ios_base@std@@QAE@ABV?$basic_string@DU?$char_traits@D@std@@V?$allocator@D@2@@2@@Z 0050a700 f i libcpmtd:ios.obj
 0001:00109730       ??0runtime_error@std@@QAE@ABV?$basic_string@DU?$char_traits@D@std@@V?$allocator@D@2@@1@@Z 0050a730 f i libcpmtd:ios.obj
 0001:001097a0       ??1failure@ios_base@std@@UAE@XZ 0050a7a0 f i libcpmtd:ios.obj
 0001:001097c0       ?_Doraise@failure@ios_base@std@@MBEXXZ 0050a7c0 f i libcpmtd:ios.obj
 0001:001097f0       ??_Gfailure@ios_base@std@@UAEPAXI@Z 0050a7f0 f i libcpmtd:ios.obj
 0001:001097f0       ??_Efailure@ios_base@std@@UAEPAXI@Z 0050a7f0 f i libcpmtd:ios.obj
 0001:00109820       ??0failure@ios_base@std@@QAE@ABV012@@Z 0050a820 f i libcpmtd:ios.obj
 0001:00109850       ?copyfmt@ios_base@std@@QAEAAV12@ABV12@@Z 0050a850 f   libcpmtd:ios.obj
 0001:00109930       ?exceptions@ios_base@std@@QAEXH@Z 0050a930 f i libcpmtd:ios.obj
 0001:00109960       ?iword@ios_base@std@@QAEAAJH@Z 0050a960 f i libcpmtd:ios.obj
 0001:00109980       ?pword@ios_base@std@@QAEAAPAXH@Z 0050a980 f i libcpmtd:ios.obj
 0001:001099a0       ?imbue@ios_base@std@@QAE?AVlocale@2@ABV32@@Z 0050a9a0 f   libcpmtd:ios.obj
 0001:00109a30       ?register_callback@ios_base@std@@QAEXP6AXW4event@12@AAV12@H@ZH@Z 0050aa30 f   libcpmtd:ios.obj
 0001:00109ac0       ??0_Fnarray@ios_base@std@@QAE@HP6AXW4event@12@AAV12@H@ZPAU012@@Z 0050aac0 f i libcpmtd:ios.obj
 0001:00109af0       ??1ios_base@std@@UAE@XZ    0050aaf0 f   libcpmtd:ios.obj
 0001:00109b80       ?_Callfns@ios_base@std@@AAEXW4event@12@@Z 0050ab80 f   libcpmtd:ios.obj
 0001:00109bd0       ?_Findarr@ios_base@std@@AAEAAU_Iosarray@12@H@Z 0050abd0 f   libcpmtd:ios.obj
 0001:00109d00       ??0_Iosarray@ios_base@std@@QAE@HPAU012@@Z 0050ad00 f i libcpmtd:ios.obj
 0001:00109d40       ?_Addstd@ios_base@std@@IAEXXZ 0050ad40 f   libcpmtd:ios.obj
 0001:00109dd0       ?_Init@ios_base@std@@IAEXXZ 0050add0 f   libcpmtd:ios.obj
 0001:00109e60       ?_Tidy@ios_base@std@@AAEXXZ 0050ae60 f   libcpmtd:ios.obj
 0001:00109f00       ?uncaught_exception@std@@YA_NXZ 0050af00 f   libcpmtd:uncaught.obj
 0001:00109f70       ?classic@locale@std@@SAABV12@XZ 0050af70 f   libcpmtd:locale0.obj
 0001:00109fa0       ?empty@locale@std@@SA?AV12@XZ 0050afa0 f   libcpmtd:locale0.obj
 0001:0010a030       ??0locale@std@@AAE@PAV_Locimp@01@@Z 0050b030 f i libcpmtd:locale0.obj
 0001:0010a050       ?_Getfacet@locale@std@@QBEPBVfacet@12@I_N@Z 0050b050 f   libcpmtd:locale0.obj
 0001:0010a100       ?_Iscloc@locale@std@@QBE_NXZ 0050b100 f   libcpmtd:locale0.obj
 0001:0010a160       ??8locale@std@@QBE_NABV01@@Z 0050b160 f   libcpmtd:locale0.obj
 0001:0010a280       ?name@locale@std@@QBE?AV?$basic_string@DU?$char_traits@D@std@@V?$allocator@D@2@@2@XZ 0050b280 f i libcpmtd:locale0.obj
 0001:0010a2c0       ?_Init@locale@std@@CAPAV_Locimp@12@XZ 0050b2c0 f   libcpmtd:locale0.obj
 0001:0010a3f0       ?_Tidy@locale@std@@CAXXZ   0050b3f0 f   libcpmtd:locale0.obj
 0001:0010a480       ??0_Locimp@locale@std@@AAE@_N@Z 0050b480 f   libcpmtd:locale0.obj
 0001:0010a510       ??_E_Locimp@locale@std@@UAEPAXI@Z 0050b510 f i libcpmtd:locale0.obj
 0001:0010a510       ??_G_Locimp@locale@std@@UAEPAXI@Z 0050b510 f i libcpmtd:locale0.obj
 0001:0010a540       ??1_Locimp@locale@std@@UAE@XZ 0050b540 f   libcpmtd:locale0.obj
 0001:0010a630       ??4?$basic_string@DU?$char_traits@D@std@@V?$allocator@D@2@@std@@QAEAAV01@PBD@Z 0050b630 f i libcpmtd:locale0.obj
 0001:0010a650       ?compare@?$basic_string@DU?$char_traits@D@std@@V?$allocator@D@2@@std@@QBEHABV12@@Z 0050b650 f i libcpmtd:locale0.obj
 0001:0010a680       ?compare@?$basic_string@DU?$char_traits@D@std@@V?$allocator@D@2@@std@@QBEHPBD@Z 0050b680 f i libcpmtd:locale0.obj
 0001:0010a6b0       ?compare@?$basic_string@DU?$char_traits@D@std@@V?$allocator@D@2@@std@@QBEHIIPBDI@Z 0050b6b0 f i libcpmtd:locale0.obj
 0001:0010a760       ?compare@?$char_traits@D@std@@SAHPBD0I@Z 0050b760 f i libcpmtd:locale0.obj
 0001:0010a7e0       ??0locale@std@@QAE@ABV01@0H@Z 0050b7e0 f   libcpmtd:locale.obj
 0001:0010a8d0       ??0locale@std@@QAE@PBDH@Z  0050b8d0 f   libcpmtd:locale.obj
 0001:0010aa40       ?_Getname@_Locinfo@std@@QBE?AV?$basic_string@DU?$char_traits@D@std@@V?$allocator@D@2@@2@XZ 0050ba40 f i libcpmtd:locale.obj
 0001:0010aa80       ??0locale@std@@QAE@ABV01@PBDH@Z 0050ba80 f   libcpmtd:locale.obj
 0001:0010ac10       ?_Addfac@locale@std@@QAEAAV12@PAVfacet@12@II@Z 0050bc10 f   libcpmtd:locale.obj
 0001:0010acd0       ?global@locale@std@@SA?AV12@ABV12@@Z 0050bcd0 f   libcpmtd:locale.obj
 0001:0010ae50       ?_Makeloc@_Locimp@locale@std@@CAPAV123@ABV_Locinfo@3@HPAV123@PBV23@@Z 0050be50 f   libcpmtd:locale.obj
 0001:0010b210       ??0?$ctype@D@std@@QAE@ABV_Locinfo@1@I@Z 0050c210 f i libcpmtd:locale.obj
 0001:0010b270       ?_Getcat@?$ctype@D@std@@SAIXZ 0050c270 f i libcpmtd:locale.obj
 0001:0010b280       ??0_Locimp@locale@std@@AAE@ABV012@@Z 0050c280 f   libcpmtd:locale.obj
 0001:0010b410       ?_Addfac@_Locimp@locale@std@@AAEXPAVfacet@23@I@Z 0050c410 f   libcpmtd:locale.obj
 0001:0010b540       ??0_Locinfo@std@@QAE@PBD@Z 0050c540 f   libcpmtd:locale.obj
 0001:0010b620       ??0_Locinfo@std@@QAE@HPBD@Z 0050c620 f   libcpmtd:locale.obj
 0001:0010b6c0       ??1_Locinfo@std@@QAE@XZ    0050c6c0 f   libcpmtd:locale.obj
 0001:0010b760       ?_Addcats@_Locinfo@std@@QAEAAV12@HPBD@Z 0050c760 f   libcpmtd:locale.obj
 0001:0010b810       ??0?$codecvt@DDH@std@@QAE@ABV_Locinfo@1@I@Z 0050c810 f i libcpmtd:locale.obj
 0001:0010b870       ?_Getcat@?$num_get@DV?$istreambuf_iterator@DU?$char_traits@D@std@@@std@@@std@@SAIXZ 0050c870 f i libcpmtd:locale.obj
 0001:0010b880       ??0?$num_get@DV?$istreambuf_iterator@DU?$char_traits@D@std@@@std@@@std@@QAE@ABV_Locinfo@1@I@Z 0050c880 f i libcpmtd:locale.obj
 0001:0010b8e0       ?do_get@?$num_get@DV?$istreambuf_iterator@DU?$char_traits@D@std@@@std@@@std@@MBE?AV?$istreambuf_iterator@DU?$char_traits@D@std@@@2@V32@0AAVios_base@2@AAHAA_N@Z 0050c8e0 f i libcpmtd:locale.obj
 0001:0010bb30       ?do_get@?$num_get@DV?$istreambuf_iterator@DU?$char_traits@D@std@@@std@@@std@@MBE?AV?$istreambuf_iterator@DU?$char_traits@D@std@@@2@V32@0AAVios_base@2@AAHAAG@Z 0050cb30 f i libcpmtd:locale.obj
 0001:0010bc70       ?do_get@?$num_get@DV?$istreambuf_iterator@DU?$char_traits@D@std@@@std@@@std@@MBE?AV?$istreambuf_iterator@DU?$char_traits@D@std@@@2@V32@0AAVios_base@2@AAHAAI@Z 0050cc70 f i libcpmtd:locale.obj
 0001:0010bdb0       ?do_get@?$num_get@DV?$istreambuf_iterator@DU?$char_traits@D@std@@@std@@@std@@MBE?AV?$istreambuf_iterator@DU?$char_traits@D@std@@@2@V32@0AAVios_base@2@AAHAAJ@Z 0050cdb0 f i libcpmtd:locale.obj
 0001:0010beb0       ?do_get@?$num_get@DV?$istreambuf_iterator@DU?$char_traits@D@std@@@std@@@std@@MBE?AV?$istreambuf_iterator@DU?$char_traits@D@std@@@2@V32@0AAVios_base@2@AAHAAK@Z 0050ceb0 f i libcpmtd:locale.obj
 0001:0010bfb0       ?do_get@?$num_get@DV?$istreambuf_iterator@DU?$char_traits@D@std@@@std@@@std@@MBE?AV?$istreambuf_iterator@DU?$char_traits@D@std@@@2@V32@0AAVios_base@2@AAHAAM@Z 0050cfb0 f i libcpmtd:locale.obj
 0001:0010c0b0       ?do_get@?$num_get@DV?$istreambuf_iterator@DU?$char_traits@D@std@@@std@@@std@@MBE?AV?$istreambuf_iterator@DU?$char_traits@D@std@@@2@V32@0AAVios_base@2@AAHAAN@Z 0050d0b0 f i libcpmtd:locale.obj
 0001:0010c1b0       ?do_get@?$num_get@DV?$istreambuf_iterator@DU?$char_traits@D@std@@@std@@@std@@MBE?AV?$istreambuf_iterator@DU?$char_traits@D@std@@@2@V32@0AAVios_base@2@AAHAAO@Z 0050d1b0 f i libcpmtd:locale.obj
 0001:0010c2b0       ?do_get@?$num_get@DV?$istreambuf_iterator@DU?$char_traits@D@std@@@std@@@std@@MBE?AV?$istreambuf_iterator@DU?$char_traits@D@std@@@2@V32@0AAVios_base@2@AAHAAPAX@Z 0050d2b0 f i libcpmtd:locale.obj
 0001:0010c430       ?_Getcat@?$num_put@DV?$ostreambuf_iterator@DU?$char_traits@D@std@@@std@@@std@@SAIXZ 0050d430 f i libcpmtd:locale.obj
 0001:0010c440       ??0?$num_put@DV?$ostreambuf_iterator@DU?$char_traits@D@std@@@std@@@std@@QAE@ABV_Locinfo@1@I@Z 0050d440 f i libcpmtd:locale.obj
 0001:0010c4a0       ??0?$numpunct@D@std@@QAE@ABV_Locinfo@1@I@Z 0050d4a0 f i libcpmtd:locale.obj
 0001:0010c500       ?_Getcat@?$numpunct@D@std@@SAIXZ 0050d500 f i libcpmtd:locale.obj
 0001:0010c510       ??_E?$num_get@DV?$istreambuf_iterator@DU?$char_traits@D@std@@@std@@@std@@UAEPAXI@Z 0050d510 f i libcpmtd:locale.obj
 0001:0010c510       ??_G?$num_get@DV?$istreambuf_iterator@DU?$char_traits@D@std@@@std@@@std@@UAEPAXI@Z 0050d510 f i libcpmtd:locale.obj
 0001:0010c540       ??1?$num_get@DV?$istreambuf_iterator@DU?$char_traits@D@std@@@std@@@std@@UAE@XZ 0050d540 f i libcpmtd:locale.obj
 0001:0010c560       ??0?$basic_string@DU?$char_traits@D@std@@V?$allocator@D@2@@std@@QAE@IDABV?$allocator@D@1@@Z 0050d560 f i libcpmtd:locale.obj
 0001:0010c5a0       ?_Init@?$num_get@DV?$istreambuf_iterator@DU?$char_traits@D@std@@@std@@@std@@IAEXABV_Locinfo@2@@Z 0050d5a0 f i libcpmtd:locale.obj
 0001:0010c5b0       ?_Getifld@?$num_get@DV?$istreambuf_iterator@DU?$char_traits@D@std@@@std@@@std@@CAHPADAAV?$istreambuf_iterator@DU?$char_traits@D@std@@@2@1HABVlocale@2@@Z 0050d5b0 f i libcpmtd:locale.obj
 0001:0010ca50       ?_Getffld@?$num_get@DV?$istreambuf_iterator@DU?$char_traits@D@std@@@std@@@std@@CAHPADAAV?$istreambuf_iterator@DU?$char_traits@D@std@@@2@1ABVlocale@2@@Z 0050da50 f i libcpmtd:locale.obj
 0001:0010cf30       ??D?$istreambuf_iterator@DU?$char_traits@D@std@@@std@@QBEABDXZ 0050df30 f i libcpmtd:locale.obj
 0001:0010cf60       ??E?$istreambuf_iterator@DU?$char_traits@D@std@@@std@@QAEAAV01@XZ 0050df60 f i libcpmtd:locale.obj
 0001:0010cf80       ?assign@?$basic_string@DU?$char_traits@D@std@@V?$allocator@D@2@@std@@QAEAAV12@ID@Z 0050df80 f i libcpmtd:locale.obj
 0001:0010cfe0       ??A?$basic_string@DU?$char_traits@D@std@@V?$allocator@D@2@@std@@QAEAADI@Z 0050dfe0 f i libcpmtd:locale.obj
 0001:0010d020       ?_Inc@?$istreambuf_iterator@DU?$char_traits@D@std@@@std@@AAEXXZ 0050e020 f i libcpmtd:locale.obj
 0001:0010d080       ?_Peek@?$istreambuf_iterator@DU?$char_traits@D@std@@@std@@AAEDXZ 0050e080 f i libcpmtd:locale.obj
 0001:0010d0f0       ?use_facet@std@@YAABV?$num_get@DV?$istreambuf_iterator@DU?$char_traits@D@std@@@std@@@1@ABVlocale@1@PBV21@_N@Z 0050e0f0 f i libcpmtd:locale.obj
 0001:0010d210       ?_Getloctxt@std@@YAHAAV?$istreambuf_iterator@DU?$char_traits@D@std@@@1@0IPBD@Z 0050e210 f i libcpmtd:locale.obj
 0001:0010d440       ??8std@@YA_NABV?$istreambuf_iterator@DU?$char_traits@D@std@@@0@0@Z 0050e440 f i libcpmtd:locale.obj
 0001:0010d460       ??9std@@YA_NABV?$istreambuf_iterator@DU?$char_traits@D@std@@@0@0@Z 0050e460 f i libcpmtd:locale.obj
 0001:0010d480       ?_Narrow@std@@YAHD@Z       0050e480 f i libcpmtd:locale.obj
 0001:0010d490       ?isdigit@std@@YA_NDABVlocale@1@@Z 0050e490 f i libcpmtd:locale.obj
 0001:0010d4c0       ??0?$num_get@DV?$istreambuf_iterator@DU?$char_traits@D@std@@@std@@@std@@QAE@I@Z 0050e4c0 f i libcpmtd:locale.obj
 0001:0010d550       ?equal@?$istreambuf_iterator@DU?$char_traits@D@std@@@std@@QBE_NABV12@@Z 0050e550 f i libcpmtd:locale.obj
 0001:0010d5c0       ?_Save@?$_Tidyfac@V?$num_get@DV?$istreambuf_iterator@DU?$char_traits@D@std@@@std@@@std@@@std@@SAPAV?$num_get@DV?$istreambuf_iterator@DU?$char_traits@D@std@@@std@@@2@PAV32@@Z 0050e5c0 f i libcpmtd:locale.obj
 0001:0010d630       ?_Tidy@?$_Tidyfac@V?$num_get@DV?$istreambuf_iterator@DU?$char_traits@D@std@@@std@@@std@@@std@@SAXXZ 0050e630 f i libcpmtd:locale.obj
 0001:0010d720       ?__Fiopen@std@@YAPAU_iobuf@@PBDH@Z 0050e720 f   libcpmtd:fiopen.obj
 0001:0010d830       __Tolower                  0050e830 f   libcpmtd:_tolower.obj
 0001:0010d8e0       __Tolower_lk               0050e8e0 f   libcpmtd:_tolower.obj
 0001:0010da40       __Getctype                 0050ea40 f   libcpmtd:_tolower.obj
 0001:0010db20       __Toupper                  0050eb20 f   libcpmtd:_toupper.obj
 0001:0010dbd0       __Toupper_lk               0050ebd0 f   libcpmtd:_toupper.obj
 0001:0010dd30       __Wcrtomb                  0050ed30 f   libcpmtd:xwctomb.obj
 0001:0010ddb0       ___Wcrtomb_lk              0050edb0 f   libcpmtd:xwctomb.obj
 0001:0010de70       __Getcvt                   0050ee70 f   libcpmtd:xwctomb.obj
 0001:0010def0       _wcrtomb                   0050eef0 f   libcpmtd:xwctomb.obj
 0001:0010df30       _wcsrtombs                 0050ef30 f   libcpmtd:xwctomb.obj
 0001:0010e130       _wctob                     0050f130 f   libcpmtd:xwctomb.obj
 0001:0010e180       __Mbrtowc                  0050f180 f   libcpmtd:xmbtowc.obj
 0001:0010e420       _btowc                     0050f420 f   libcpmtd:xmbtowc.obj
 0001:0010e480       _mbrlen                    0050f480 f   libcpmtd:xmbtowc.obj
 0001:0010e520       _mbrtowc                   0050f520 f   libcpmtd:xmbtowc.obj
 0001:0010e600       _mbsrtowcs                 0050f600 f   libcpmtd:xmbtowc.obj
 0001:0010e790       ?_Nomemory@std@@YAXXZ      0050f790 f   libcpmtd:nomemory.obj
 0001:0010e7f0       ??0bad_alloc@std@@QAE@PBD@Z 0050f7f0 f i libcpmtd:nomemory.obj
 0001:0010e820       ??1bad_alloc@std@@UAE@XZ   0050f820 f i libcpmtd:nomemory.obj
 0001:0010e840       ?_Doraise@bad_alloc@std@@MBEXXZ 0050f840 f i libcpmtd:nomemory.obj
 0001:0010e870       ??_Gbad_alloc@std@@UAEPAXI@Z 0050f870 f i libcpmtd:nomemory.obj
 0001:0010e870       ??_Ebad_alloc@std@@UAEPAXI@Z 0050f870 f i libcpmtd:nomemory.obj
 0001:0010e8a0       ??0bad_alloc@std@@QAE@ABV01@@Z 0050f8a0 f i libcpmtd:nomemory.obj
 0001:0010e8e0       ?_Makewloc@_Locimp@locale@std@@CAXABV_Locinfo@3@HPAV123@PBV23@@Z 0050f8e0 f   libcpmtd:wlocale.obj
 0001:0010f160       ??0?$codecvt@GDH@std@@QAE@ABV_Locinfo@1@I@Z 00510160 f i libcpmtd:wlocale.obj
 0001:0010f1c0       ?_Getcat@?$codecvt@GDH@std@@SAIXZ 005101c0 f i libcpmtd:wlocale.obj
 0001:0010f1d0       ?_Init@?$codecvt@GDH@std@@IAEXABV_Locinfo@2@@Z 005101d0 f i libcpmtd:wlocale.obj
 0001:0010f200       ?do_in@?$codecvt@GDH@std@@MBEHAAHPBD1AAPBDPAG3AAPAG@Z 00510200 f i libcpmtd:wlocale.obj
 0001:0010f2f0       ?do_out@?$codecvt@GDH@std@@MBEHAAHPBG1AAPBGPAD3AAPAD@Z 005102f0 f i libcpmtd:wlocale.obj
 0001:0010f440       ?do_length@?$codecvt@GDH@std@@MBEHAAHPBG1I@Z 00510440 f i libcpmtd:wlocale.obj
 0001:0010f4c0       ?do_always_noconv@?$codecvt@GDH@std@@MBE_NXZ 005104c0 f i libcpmtd:wlocale.obj
 0001:0010f4d0       ?do_max_length@?$codecvt@GDH@std@@MBEHXZ 005104d0 f i libcpmtd:wlocale.obj
 0001:0010f4e0       ?do_encoding@?$codecvt@GDH@std@@MBEHXZ 005104e0 f i libcpmtd:wlocale.obj
 0001:0010f4f0       ??_E?$codecvt@GDH@std@@UAEPAXI@Z 005104f0 f i libcpmtd:wlocale.obj
 0001:0010f4f0       ??_G?$codecvt@GDH@std@@UAEPAXI@Z 005104f0 f i libcpmtd:wlocale.obj
 0001:0010f520       ??1?$codecvt@GDH@std@@UAE@XZ 00510520 f i libcpmtd:wlocale.obj
 0001:0010f540       ??0?$ctype@G@std@@QAE@ABV_Locinfo@1@I@Z 00510540 f i libcpmtd:wlocale.obj
 0001:0010f5a0       ?_Getcat@?$ctype@G@std@@SAIXZ 005105a0 f i libcpmtd:wlocale.obj
 0001:0010f5b0       ?do_is@?$ctype@G@std@@MBE_NFG@Z 005105b0 f i libcpmtd:wlocale.obj
 0001:0010f5f0       ?do_is@?$ctype@G@std@@MBEPBGPBG0PAF@Z 005105f0 f i libcpmtd:wlocale.obj
 0001:0010f650       ?do_scan_is@?$ctype@G@std@@MBEPBGFPBG0@Z 00510650 f i libcpmtd:wlocale.obj
 0001:0010f6a0       ?is@?$ctype@G@std@@QBE_NFG@Z 005106a0 f i libcpmtd:wlocale.obj
 0001:0010f6d0       ?do_scan_not@?$ctype@G@std@@MBEPBGFPBG0@Z 005106d0 f i libcpmtd:wlocale.obj
 0001:0010f720       ?do_tolower@?$ctype@G@std@@MBEGG@Z 00510720 f i libcpmtd:wlocale.obj
 0001:0010f760       ?do_tolower@?$ctype@G@std@@MBEPBGPAGPBG@Z 00510760 f i libcpmtd:wlocale.obj
 0001:0010f7b0       ?do_toupper@?$ctype@G@std@@MBEGG@Z 005107b0 f i libcpmtd:wlocale.obj
 0001:0010f7f0       ?do_toupper@?$ctype@G@std@@MBEPBGPAGPBG@Z 005107f0 f i libcpmtd:wlocale.obj
 0001:0010f840       ?do_widen@?$ctype@G@std@@MBEGD@Z 00510840 f i libcpmtd:wlocale.obj
 0001:0010f860       ?do_widen@?$ctype@G@std@@MBEPBDPBD0PAG@Z 00510860 f i libcpmtd:wlocale.obj
 0001:0010f8b0       ?do_narrow@?$ctype@G@std@@MBEDGD@Z 005108b0 f i libcpmtd:wlocale.obj
 0001:0010f8d0       ?_Narrow@std@@YAHG@Z       005108d0 f i libcpmtd:wlocale.obj
 0001:0010f8f0       ?do_narrow@?$ctype@G@std@@MBEPBGPBG0DPAD@Z 005108f0 f i libcpmtd:wlocale.obj
 0001:0010f940       ??0?$time_put@GV?$ostreambuf_iterator@GU?$char_traits@G@std@@@std@@@std@@QAE@ABV_Locinfo@1@I@Z 00510940 f i libcpmtd:wlocale.obj
 0001:0010f9b0       ??0_Timevec@std@@QAE@PAX@Z 005109b0 f i libcpmtd:wlocale.obj
 0001:0010f9d0       ??1_Timevec@std@@QAE@XZ    005109d0 f i libcpmtd:wlocale.obj
 0001:0010f9f0       ??0time_base@std@@QAE@I@Z  005109f0 f i libcpmtd:wlocale.obj
 0001:0010fa20       ??_Etime_base@std@@UAEPAXI@Z 00510a20 f i libcpmtd:wlocale.obj
 0001:0010fa20       ??_Gtime_base@std@@UAEPAXI@Z 00510a20 f i libcpmtd:wlocale.obj
 0001:0010fa50       ??1time_base@std@@UAE@XZ   00510a50 f i libcpmtd:wlocale.obj
 0001:0010fa70       ?_Getcat@?$time_put@GV?$ostreambuf_iterator@GU?$char_traits@G@std@@@std@@@std@@SAIXZ 00510a70 f i libcpmtd:wlocale.obj
 0001:0010fa80       ?do_put@?$time_put@GV?$ostreambuf_iterator@GU?$char_traits@G@std@@@std@@@std@@MBE?AV?$ostreambuf_iterator@GU?$char_traits@G@std@@@2@V32@AAVios_base@2@PBUtm@@DD@Z 00510a80 f i libcpmtd:wlocale.obj
 0001:0010fbc0       ?_Getptr@_Timevec@std@@QBEPAXXZ 00510bc0 f i libcpmtd:wlocale.obj
 0001:0010fbd0       ?_Getcat@?$num_get@GV?$istreambuf_iterator@GU?$char_traits@G@std@@@std@@@std@@SAIXZ 00510bd0 f i libcpmtd:wlocale.obj
 0001:0010fbe0       ??0?$num_get@GV?$istreambuf_iterator@GU?$char_traits@G@std@@@std@@@std@@QAE@ABV_Locinfo@1@I@Z 00510be0 f i libcpmtd:wlocale.obj
 0001:0010fc40       ?do_get@?$num_get@GV?$istreambuf_iterator@GU?$char_traits@G@std@@@std@@@std@@MBE?AV?$istreambuf_iterator@GU?$char_traits@G@std@@@2@V32@0AAVios_base@2@AAHAA_N@Z 00510c40 f i libcpmtd:wlocale.obj
 0001:0010fe90       ?do_get@?$num_get@GV?$istreambuf_iterator@GU?$char_traits@G@std@@@std@@@std@@MBE?AV?$istreambuf_iterator@GU?$char_traits@G@std@@@2@V32@0AAVios_base@2@AAHAAG@Z 00510e90 f i libcpmtd:wlocale.obj
 0001:0010ffd0       ?do_get@?$num_get@GV?$istreambuf_iterator@GU?$char_traits@G@std@@@std@@@std@@MBE?AV?$istreambuf_iterator@GU?$char_traits@G@std@@@2@V32@0AAVios_base@2@AAHAAI@Z 00510fd0 f i libcpmtd:wlocale.obj
 0001:00110110       ?do_get@?$num_get@GV?$istreambuf_iterator@GU?$char_traits@G@std@@@std@@@std@@MBE?AV?$istreambuf_iterator@GU?$char_traits@G@std@@@2@V32@0AAVios_base@2@AAHAAJ@Z 00511110 f i libcpmtd:wlocale.obj
 0001:00110210       ?do_get@?$num_get@GV?$istreambuf_iterator@GU?$char_traits@G@std@@@std@@@std@@MBE?AV?$istreambuf_iterator@GU?$char_traits@G@std@@@2@V32@0AAVios_base@2@AAHAAK@Z 00511210 f i libcpmtd:wlocale.obj
 0001:00110310       ?do_get@?$num_get@GV?$istreambuf_iterator@GU?$char_traits@G@std@@@std@@@std@@MBE?AV?$istreambuf_iterator@GU?$char_traits@G@std@@@2@V32@0AAVios_base@2@AAHAAM@Z 00511310 f i libcpmtd:wlocale.obj
 0001:00110410       ?do_get@?$num_get@GV?$istreambuf_iterator@GU?$char_traits@G@std@@@std@@@std@@MBE?AV?$istreambuf_iterator@GU?$char_traits@G@std@@@2@V32@0AAVios_base@2@AAHAAN@Z 00511410 f i libcpmtd:wlocale.obj
 0001:00110510       ?do_get@?$num_get@GV?$istreambuf_iterator@GU?$char_traits@G@std@@@std@@@std@@MBE?AV?$istreambuf_iterator@GU?$char_traits@G@std@@@2@V32@0AAVios_base@2@AAHAAO@Z 00511510 f i libcpmtd:wlocale.obj
 0001:00110610       ?do_get@?$num_get@GV?$istreambuf_iterator@GU?$char_traits@G@std@@@std@@@std@@MBE?AV?$istreambuf_iterator@GU?$char_traits@G@std@@@2@V32@0AAVios_base@2@AAHAAPAX@Z 00511610 f i libcpmtd:wlocale.obj
 0001:001107a0       ?_Getcat@?$num_put@GV?$ostreambuf_iterator@GU?$char_traits@G@std@@@std@@@std@@SAIXZ 005117a0 f i libcpmtd:wlocale.obj
 0001:001107b0       ??0?$num_put@GV?$ostreambuf_iterator@GU?$char_traits@G@std@@@std@@@std@@QAE@ABV_Locinfo@1@I@Z 005117b0 f i libcpmtd:wlocale.obj
 0001:00110810       ?do_put@?$num_put@GV?$ostreambuf_iterator@GU?$char_traits@G@std@@@std@@@std@@MBE?AV?$ostreambuf_iterator@GU?$char_traits@G@std@@@2@V32@AAVios_base@2@G_N@Z 00511810 f i libcpmtd:wlocale.obj
 0001:00110a50       ?do_put@?$num_put@GV?$ostreambuf_iterator@GU?$char_traits@G@std@@@std@@@std@@MBE?AV?$ostreambuf_iterator@GU?$char_traits@G@std@@@2@V32@AAVios_base@2@GJ@Z 00511a50 f i libcpmtd:wlocale.obj
 0001:00110ac0       ?do_put@?$num_put@GV?$ostreambuf_iterator@GU?$char_traits@G@std@@@std@@@std@@MBE?AV?$ostreambuf_iterator@GU?$char_traits@G@std@@@2@V32@AAVios_base@2@GK@Z 00511ac0 f i libcpmtd:wlocale.obj
 0001:00110b30       ?do_put@?$num_put@GV?$ostreambuf_iterator@GU?$char_traits@G@std@@@std@@@std@@MBE?AV?$ostreambuf_iterator@GU?$char_traits@G@std@@@2@V32@AAVios_base@2@GN@Z 00511b30 f i libcpmtd:wlocale.obj
 0001:00110c00       ?do_put@?$num_put@GV?$ostreambuf_iterator@GU?$char_traits@G@std@@@std@@@std@@MBE?AV?$ostreambuf_iterator@GU?$char_traits@G@std@@@2@V32@AAVios_base@2@GO@Z 00511c00 f i libcpmtd:wlocale.obj
 0001:00110cd0       ?do_put@?$num_put@GV?$ostreambuf_iterator@GU?$char_traits@G@std@@@std@@@std@@MBE?AV?$ostreambuf_iterator@GU?$char_traits@G@std@@@2@V32@AAVios_base@2@GPBX@Z 00511cd0 f i libcpmtd:wlocale.obj
 0001:00110de0       ??0?$numpunct@G@std@@QAE@ABV_Locinfo@1@I@Z 00511de0 f i libcpmtd:wlocale.obj
 0001:00110e40       ?_Getcat@?$numpunct@G@std@@SAIXZ 00511e40 f i libcpmtd:wlocale.obj
 0001:00110e50       ?do_decimal_point@?$numpunct@G@std@@MBEGXZ 00511e50 f i libcpmtd:wlocale.obj
 0001:00110e70       ?do_thousands_sep@?$numpunct@G@std@@MBEGXZ 00511e70 f i libcpmtd:wlocale.obj
 0001:00110e90       ?do_grouping@?$numpunct@G@std@@MBE?AV?$basic_string@DU?$char_traits@D@std@@V?$allocator@D@2@@2@XZ 00511e90 f i libcpmtd:wlocale.obj
 0001:00110ed0       ?do_falsename@?$numpunct@G@std@@MBE?AV?$basic_string@GU?$char_traits@G@std@@V?$allocator@G@2@@2@XZ 00511ed0 f i libcpmtd:wlocale.obj
 0001:00110f10       ?do_truename@?$numpunct@G@std@@MBE?AV?$basic_string@GU?$char_traits@G@std@@V?$allocator@G@2@@2@XZ 00511f10 f i libcpmtd:wlocale.obj
 0001:00110f50       ??0?$collate@G@std@@QAE@ABV_Locinfo@1@I@Z 00511f50 f i libcpmtd:wlocale.obj
 0001:00110fb0       ?_Getcat@?$collate@G@std@@SAIXZ 00511fb0 f i libcpmtd:wlocale.obj
 0001:00110fc0       ?do_compare@?$collate@G@std@@MBEHPBG000@Z 00511fc0 f i libcpmtd:wlocale.obj
 0001:00110ff0       ?do_transform@?$collate@G@std@@MBE?AV?$basic_string@GU?$char_traits@G@std@@V?$allocator@G@2@@2@PBG0@Z 00511ff0 f i libcpmtd:wlocale.obj
 0001:001110f0       ?do_hash@?$collate@G@std@@MBEJPBG0@Z 005120f0 f i libcpmtd:wlocale.obj
 0001:00111140       ??0?$messages@G@std@@QAE@ABV_Locinfo@1@I@Z 00512140 f i libcpmtd:wlocale.obj
 0001:001111a0       ??0messages_base@std@@QAE@I@Z 005121a0 f i libcpmtd:wlocale.obj
 0001:001111d0       ??_Gmessages_base@std@@UAEPAXI@Z 005121d0 f i libcpmtd:wlocale.obj
 0001:001111d0       ??_Emessages_base@std@@UAEPAXI@Z 005121d0 f i libcpmtd:wlocale.obj
 0001:00111200       ??1messages_base@std@@UAE@XZ 00512200 f i libcpmtd:wlocale.obj
 0001:00111220       ?_Getcat@?$messages@G@std@@SAIXZ 00512220 f i libcpmtd:wlocale.obj
 0001:00111230       ?do_open@?$messages@G@std@@MBEHABV?$basic_string@DU?$char_traits@D@std@@V?$allocator@D@2@@2@ABVlocale@2@@Z 00512230 f i libcpmtd:wlocale.obj
 0001:00111240       ?do_get@?$messages@G@std@@MBE?AV?$basic_string@GU?$char_traits@G@std@@V?$allocator@G@2@@2@HHHABV32@@Z 00512240 f i libcpmtd:wlocale.obj
 0001:001112c0       ?do_close@?$messages@G@std@@MBEXH@Z 005122c0 f i libcpmtd:wlocale.obj
 0001:001112d0       ??0?$money_get@GV?$istreambuf_iterator@GU?$char_traits@G@std@@@std@@@std@@QAE@ABV_Locinfo@1@I@Z 005122d0 f i libcpmtd:wlocale.obj
 0001:00111330       ?_Getcat@?$money_get@GV?$istreambuf_iterator@GU?$char_traits@G@std@@@std@@@std@@SAIXZ 00512330 f i libcpmtd:wlocale.obj
 0001:00111340       ?do_get@?$money_get@GV?$istreambuf_iterator@GU?$char_traits@G@std@@@std@@@std@@MBE?AV?$istreambuf_iterator@GU?$char_traits@G@std@@@2@V32@0_NAAVios_base@2@AAHAAO@Z 00512340 f i libcpmtd:wlocale.obj
 0001:001114c0       ?do_get@?$money_get@GV?$istreambuf_iterator@GU?$char_traits@G@std@@@std@@@std@@MBE?AV?$istreambuf_iterator@GU?$char_traits@G@std@@@2@V32@0_NAAVios_base@2@AAHAAV?$basic_string@GU?$char_traits@G@std@@V?$allocator@G@2@@2@@Z 005124c0 f i libcpmtd:wlocale.obj
 0001:00111580       ??0?$money_put@GV?$ostreambuf_iterator@GU?$char_traits@G@std@@@std@@@std@@QAE@ABV_Locinfo@1@I@Z 00512580 f i libcpmtd:wlocale.obj
 0001:001115e0       ?_Getcat@?$money_put@GV?$ostreambuf_iterator@GU?$char_traits@G@std@@@std@@@std@@SAIXZ 005125e0 f i libcpmtd:wlocale.obj
 0001:001115f0       ?do_put@?$money_put@GV?$ostreambuf_iterator@GU?$char_traits@G@std@@@std@@@std@@MBE?AV?$ostreambuf_iterator@GU?$char_traits@G@std@@@2@V32@_NAAVios_base@2@GO@Z 005125f0 f i libcpmtd:wlocale.obj
 0001:00111760       ?do_put@?$money_put@GV?$ostreambuf_iterator@GU?$char_traits@G@std@@@std@@@std@@MBE?AV?$ostreambuf_iterator@GU?$char_traits@G@std@@@2@V32@_NAAVios_base@2@GABV?$basic_string@GU?$char_traits@G@std@@V?$allocator@G@2@@2@@Z 00512760 f i libcpmtd:wlocale.obj
 0001:001118e0       ??0?$moneypunct@G$0A@@std@@QAE@ABV_Locinfo@1@I@Z 005128e0 f i libcpmtd:wlocale.obj
 0001:00111910       ?_Getcat@?$moneypunct@G$0A@@std@@SAIXZ 00512910 f i libcpmtd:wlocale.obj
 0001:00111920       ?do_decimal_point@?$_Mpunct@G@std@@MBEGXZ 00512920 f i libcpmtd:wlocale.obj
 0001:00111940       ?do_thousands_sep@?$_Mpunct@G@std@@MBEGXZ 00512940 f i libcpmtd:wlocale.obj
 0001:00111960       ?do_grouping@?$_Mpunct@G@std@@MBE?AV?$basic_string@DU?$char_traits@D@std@@V?$allocator@D@2@@2@XZ 00512960 f i libcpmtd:wlocale.obj
 0001:001119a0       ?do_curr_symbol@?$_Mpunct@G@std@@MBE?AV?$basic_string@GU?$char_traits@G@std@@V?$allocator@G@2@@2@XZ 005129a0 f i libcpmtd:wlocale.obj
 0001:001119e0       ?do_positive_sign@?$_Mpunct@G@std@@MBE?AV?$basic_string@GU?$char_traits@G@std@@V?$allocator@G@2@@2@XZ 005129e0 f i libcpmtd:wlocale.obj
 0001:00111a20       ?do_negative_sign@?$_Mpunct@G@std@@MBE?AV?$basic_string@GU?$char_traits@G@std@@V?$allocator@G@2@@2@XZ 00512a20 f i libcpmtd:wlocale.obj
 0001:00111a60       ?do_frac_digits@?$_Mpunct@G@std@@MBEHXZ 00512a60 f i libcpmtd:wlocale.obj
 0001:00111a80       ?do_pos_format@?$_Mpunct@G@std@@MBE?AUpattern@money_base@2@XZ 00512a80 f i libcpmtd:wlocale.obj
 0001:00111aa0       ?do_neg_format@?$_Mpunct@G@std@@MBE?AUpattern@money_base@2@XZ 00512aa0 f i libcpmtd:wlocale.obj
 0001:00111ac0       ??0?$moneypunct@G$00@std@@QAE@ABV_Locinfo@1@I@Z 00512ac0 f i libcpmtd:wlocale.obj
 0001:00111af0       ?_Getcat@?$moneypunct@G$00@std@@SAIXZ 00512af0 f i libcpmtd:wlocale.obj
 0001:00111b00       ??0?$time_get@GV?$istreambuf_iterator@GU?$char_traits@G@std@@@std@@@std@@QAE@ABV_Locinfo@1@I@Z 00512b00 f i libcpmtd:wlocale.obj
 0001:00111b60       ?_Getcat@?$time_get@GV?$istreambuf_iterator@GU?$char_traits@G@std@@@std@@@std@@SAIXZ 00512b60 f i libcpmtd:wlocale.obj
 0001:00111b70       ?do_date_order@?$time_get@GV?$istreambuf_iterator@GU?$char_traits@G@std@@@std@@@std@@MBEHXZ 00512b70 f i libcpmtd:wlocale.obj
 0001:00111b80       ?do_get_time@?$time_get@GV?$istreambuf_iterator@GU?$char_traits@G@std@@@std@@@std@@MBE?AV?$istreambuf_iterator@GU?$char_traits@G@std@@@2@V32@0AAVios_base@2@AAHPAUtm@@@Z 00512b80 f i libcpmtd:wlocale.obj
 0001:00111c90       ?do_get_date@?$time_get@GV?$istreambuf_iterator@GU?$char_traits@G@std@@@std@@@std@@MBE?AV?$istreambuf_iterator@GU?$char_traits@G@std@@@2@V32@0AAVios_base@2@AAHPAUtm@@@Z 00512c90 f i libcpmtd:wlocale.obj
 0001:00111e40       ?do_get_weekday@?$time_get@GV?$istreambuf_iterator@GU?$char_traits@G@std@@@std@@@std@@MBE?AV?$istreambuf_iterator@GU?$char_traits@G@std@@@2@V32@0AAVios_base@2@AAHPAUtm@@@Z 00512e40 f i libcpmtd:wlocale.obj
 0001:00111ea0       ?do_get_monthname@?$time_get@GV?$istreambuf_iterator@GU?$char_traits@G@std@@@std@@@std@@MBE?AV?$istreambuf_iterator@GU?$char_traits@G@std@@@2@V32@0AAVios_base@2@AAHPAUtm@@@Z 00512ea0 f i libcpmtd:wlocale.obj
 0001:00111f00       ?do_get_year@?$time_get@GV?$istreambuf_iterator@GU?$char_traits@G@std@@@std@@@std@@MBE?AV?$istreambuf_iterator@GU?$char_traits@G@std@@@2@V32@0AAVios_base@2@AAHPAUtm@@@Z 00512f00 f i libcpmtd:wlocale.obj
 0001:00111fa0       ??_E?$ctype@G@std@@UAEPAXI@Z 00512fa0 f i libcpmtd:wlocale.obj
 0001:00111fa0       ??_G?$ctype@G@std@@UAEPAXI@Z 00512fa0 f i libcpmtd:wlocale.obj
 0001:00111fd0       ??1?$ctype@G@std@@UAE@XZ   00512fd0 f i libcpmtd:wlocale.obj
 0001:00112010       ??_E?$time_put@GV?$ostreambuf_iterator@GU?$char_traits@G@std@@@std@@@std@@UAEPAXI@Z 00513010 f i libcpmtd:wlocale.obj
 0001:00112010       ??_G?$time_put@GV?$ostreambuf_iterator@GU?$char_traits@G@std@@@std@@@std@@UAEPAXI@Z 00513010 f i libcpmtd:wlocale.obj
 0001:00112040       ??1?$time_put@GV?$ostreambuf_iterator@GU?$char_traits@G@std@@@std@@@std@@UAE@XZ 00513040 f i libcpmtd:wlocale.obj
 0001:001120a0       ??_G?$num_get@GV?$istreambuf_iterator@GU?$char_traits@G@std@@@std@@@std@@UAEPAXI@Z 005130a0 f i libcpmtd:wlocale.obj
 0001:001120a0       ??_E?$num_get@GV?$istreambuf_iterator@GU?$char_traits@G@std@@@std@@@std@@UAEPAXI@Z 005130a0 f i libcpmtd:wlocale.obj
 0001:001120d0       ??1?$num_get@GV?$istreambuf_iterator@GU?$char_traits@G@std@@@std@@@std@@UAE@XZ 005130d0 f i libcpmtd:wlocale.obj
 0001:001120f0       ??_G?$num_put@GV?$ostreambuf_iterator@GU?$char_traits@G@std@@@std@@@std@@UAEPAXI@Z 005130f0 f i libcpmtd:wlocale.obj
 0001:001120f0       ??_E?$num_put@GV?$ostreambuf_iterator@GU?$char_traits@G@std@@@std@@@std@@UAEPAXI@Z 005130f0 f i libcpmtd:wlocale.obj
 0001:00112120       ??1?$num_put@GV?$ostreambuf_iterator@GU?$char_traits@G@std@@@std@@@std@@UAE@XZ 00513120 f i libcpmtd:wlocale.obj
 0001:00112140       ??_G?$numpunct@G@std@@UAEPAXI@Z 00513140 f i libcpmtd:wlocale.obj
 0001:00112140       ??_E?$numpunct@G@std@@UAEPAXI@Z 00513140 f i libcpmtd:wlocale.obj
 0001:00112170       ??1?$numpunct@G@std@@UAE@XZ 00513170 f i libcpmtd:wlocale.obj
 0001:001121d0       ??_G?$collate@G@std@@UAEPAXI@Z 005131d0 f i libcpmtd:wlocale.obj
 0001:001121d0       ??_E?$collate@G@std@@UAEPAXI@Z 005131d0 f i libcpmtd:wlocale.obj
 0001:00112200       ??1?$collate@G@std@@UAE@XZ 00513200 f i libcpmtd:wlocale.obj
 0001:00112220       ??_G?$messages@G@std@@UAEPAXI@Z 00513220 f i libcpmtd:wlocale.obj
 0001:00112220       ??_E?$messages@G@std@@UAEPAXI@Z 00513220 f i libcpmtd:wlocale.obj
 0001:00112250       ??1?$messages@G@std@@UAE@XZ 00513250 f i libcpmtd:wlocale.obj
